 nampower

 Timestamp is 69cd9470 (Wed Apr  1 14:56:00 2026)

 Preferred load address is 10000000

 Start         Length     Name                   Class
 0001:00000000 00000e80H .text$di                CODE
 0001:00000e80 0009fca0H .text$mn                CODE
 0001:000a0b20 00006be0H .text$x                 CODE
 0001:000a7700 00000d0cH .text$yd                CODE
 0002:00000000 00000210H .idata$5                DATA
 0002:00000210 00000008H .00cfg                  DATA
 0002:00000218 00000004H .CRT$XCA                DATA
 0002:0000021c 0000000cH .CRT$XCC                DATA
 0002:00000228 00000008H .CRT$XCL                DATA
 0002:00000230 00000190H .CRT$XCU                DATA
 0002:000003c0 00000004H .CRT$XCZ                DATA
 0002:000003c4 00000004H .CRT$XIA                DATA
 0002:000003c8 00000018H .CRT$XIC                DATA
 0002:000003e0 00000004H .CRT$XIZ                DATA
 0002:000003e4 00000004H .CRT$XLA                DATA
 0002:000003e8 00000004H .CRT$XLZ                DATA
 0002:000003ec 00000004H .CRT$XPA                DATA
 0002:000003f0 00000008H .CRT$XPX                DATA
 0002:000003f8 00000004H .CRT$XPXA               DATA
 0002:000003fc 00000004H .CRT$XPZ                DATA
 0002:00000400 00000004H .CRT$XTA                DATA
 0002:00000404 0000001cH .CRT$XTZ                DATA
 0002:00000408 00000000H .gfids$y                DATA
 0002:00000420 0001c160H .rdata                  DATA
 0002:0001c580 00000000H .rdata$CastGuardVftablesA DATA
 0002:0001c580 00000000H .rdata$CastGuardVftablesC DATA
 0002:0001c580 00000018H .rdata$T                DATA
 0002:0001c598 00003804H .rdata$r                DATA
 0002:0001fd9c 00000498H .rdata$sxdata           DATA
 0002:00020234 00000120H .rdata$voltmd           DATA
 0002:00020354 00000398H .rdata$zzzdbg           DATA
 0002:000206ec 00000004H .rtc$IAA                DATA
 0002:000206f0 00000004H .rtc$IZZ                DATA
 0002:000206f4 00000004H .rtc$TAA                DATA
 0002:000206f8 00000004H .rtc$TZZ                DATA
 0002:000206fc 00000004H .tls                    DATA
 0002:00020700 0000000cH .tls$                   DATA
 0002:0002070c 00000004H .tls$ZZZ                DATA
 0002:00020710 00007b60H .xdata$x                DATA
 0002:00028270 00000044H .edata                  DATA
 0002:000282b4 0000003cH .idata$2                DATA
 0002:000282f0 00000014H .idata$3                DATA
 0002:00028304 00000210H .idata$4                DATA
 0002:00028514 000009caH .idata$6                DATA
 0003:00000000 00013960H .data                   DATA
 0003:00013960 00001778H .data$r                 DATA
 0003:000150d8 00003018H .data$rs                DATA
 0003:000180f0 0000c438H .bss                    DATA
 0004:00000000 00000060H .rsrc$01                DATA
 0004:00000060 00000180H .rsrc$02                DATA

  Address         Publics by Value              Rva+Base       Lib:Object

 0000:00000000       ___AbsoluteZero            00000000     <absolute>
 0000:00000000       ___arm64x_extra_rfe_table  00000000     <absolute>
 0000:00000000       ___arm64x_extra_rfe_table_size 00000000     <absolute>
 0000:00000000       ___arm64x_native_entrypoint 00000000     <absolute>
 0000:00000000       ___arm64x_redirection_metadata 00000000     <absolute>
 0000:00000000       ___arm64x_redirection_metadata_count 00000000     <absolute>
 0000:00000000       ___dynamic_value_reloc_table 00000000     <absolute>
 0000:00000000       ___enclave_config          00000000     <absolute>
 0000:00000000       ___guard_check_icall_a64n_fptr 00000000     <absolute>
 0000:00000000       ___guard_eh_cont_count     00000000     <absolute>
 0000:00000000       ___guard_eh_cont_table     00000000     <absolute>
 0000:00000000       ___guard_fids_count        00000000     <absolute>
 0000:00000000       ___guard_fids_table        00000000     <absolute>
 0000:00000000       ___guard_iat_count         00000000     <absolute>
 0000:00000000       ___guard_iat_table         00000000     <absolute>
 0000:00000000       ___guard_longjmp_count     00000000     <absolute>
 0000:00000000       ___guard_longjmp_table     00000000     <absolute>
 0000:00000000       ___hybrid_auxiliary_delayload_iat 00000000     <absolute>
 0000:00000000       ___hybrid_auxiliary_delayload_iat_copy 00000000     <absolute>
 0000:00000000       ___hybrid_auxiliary_iat    00000000     <absolute>
 0000:00000000       ___hybrid_auxiliary_iat_copy 00000000     <absolute>
 0000:00000000       ___hybrid_code_map         00000000     <absolute>
 0000:00000000       ___hybrid_code_map_count   00000000     <absolute>
 0000:00000000       ___hybrid_image_info_bitfield 00000000     <absolute>
 0000:00000000       ___x64_code_ranges_to_entry_points 00000000     <absolute>
 0000:00000000       ___x64_code_ranges_to_entry_points_count 00000000     <absolute>
 0000:00000000       __except_list              00000000     <absolute>
 0000:0000002c       __tls_array                0000002c     <absolute>
 0000:00000100       ___guard_flags             00000100     <absolute>
 0000:00000126       ___safe_se_handler_count   00000126     <absolute>
 0000:00000000       ___ImageBase               10000000     <linker-defined>
 0001:00000e80       ___local_stdio_printf_options 10001e80 f i udis86:udis86.obj
 0001:00000e86       __vsnprintf_l              10001e86 f i udis86:udis86.obj
 0001:00000eb8       _sprintf                   10001eb8 f i udis86:udis86.obj
 0001:00000ed3       _ud_init                   10001ed3 f   udis86:udis86.obj
 0001:00000f3e       _ud_disassemble            10001f3e f   udis86:udis86.obj
 0001:00000f77       _ud_set_mode               10001f77 f   udis86:udis86.obj
 0001:00000f99       _ud_set_pc                 10001f99 f   udis86:udis86.obj
 0001:00000fb3       _ud_set_syntax             10001fb3 f   udis86:udis86.obj
 0001:00000fc1       _ud_insn_asm               10001fc1 f   udis86:udis86.obj
 0001:00000fcf       _ud_insn_off               10001fcf f   udis86:udis86.obj
 0001:00000fdd       _ud_insn_hex               10001fdd f   udis86:udis86.obj
 0001:0000103e       _ud_insn_ptr               1000203e f   udis86:udis86.obj
 0001:0000105a       _ud_insn_len               1000205a f   udis86:udis86.obj
 0001:00001065       _ud_insn_opr               10002065 f   udis86:udis86.obj
 0001:0000108a       _ud_set_asm_buffer         1000208a f   udis86:udis86.obj
 0001:000010c3       _ud_set_input_buffer       100020c3 f   udis86:udis86.obj
 0001:00001300       _ud_translate_intel        10002300 f   udis86:syn-intel.obj
 0001:0000283e       _ud_decode                 1000383e f   udis86:decode.obj
 0001:00002900       _vsnprintf                 10003900 f i udis86:syn.obj
 0001:00002931       _ud_syn_rel_target         10003931 f   udis86:syn.obj
 0001:00002991       _ud_asmprintf              10003991 f   udis86:syn.obj
 0001:000029e6       _ud_syn_print_addr         100039e6 f   udis86:syn.obj
 0001:00002a5c       _ud_syn_print_imm          10003a5c f   udis86:syn.obj
 0001:00002b1d       _ud_syn_print_mem_disp     10003b1d f   udis86:syn.obj
 0001:00002be0       ??$_Allocate_at_least_helper@V?$allocator@D@std@@@std@@YAPADAAV?$allocator@D@0@AAI@Z 10003be0 f i logging.cpp.obj
 0001:00002c30       ??$_Allocate_for_capacity@$0A@@?$basic_string@DU?$char_traits@D@std@@V?$allocator@D@2@@std@@CAPADAAV?$allocator@D@1@AAI@Z 10003c30 f i logging.cpp.obj
 0001:00002c90       ??$_Construct@$00PBD@?$basic_string@DU?$char_traits@D@std@@V?$allocator@D@2@@std@@AAEXQBDI@Z 10003c90 f i logging.cpp.obj
 0001:00002d20       ??$_Fputc@D@std@@YA_NDPAU_iobuf@@@Z 10003d20 f i logging.cpp.obj
 0001:00002d40       ??$use_facet@V?$codecvt@DDU_Mbstatet@@@std@@@std@@YAABV?$codecvt@DDU_Mbstatet@@@0@ABVlocale@0@@Z 10003d40 f i logging.cpp.obj
 0001:00002eb0       ??$use_facet@V?$ctype@D@std@@@std@@YAABV?$ctype@D@0@ABVlocale@0@@Z 10003eb0 f i logging.cpp.obj
 0001:00003040       ??0?$basic_filebuf@DU?$char_traits@D@std@@@std@@QAE@XZ 10004040 f i logging.cpp.obj
 0001:00003190       ??0?$basic_ios@DU?$char_traits@D@std@@@std@@IAE@XZ 10004190 f i logging.cpp.obj
 0001:00003200       ??0?$basic_ostream@DU?$char_traits@D@std@@@std@@QAE@PAV?$basic_streambuf@DU?$char_traits@D@std@@@1@_N@Z 10004200 f i logging.cpp.obj
 0001:000033d0       ??0?$basic_streambuf@DU?$char_traits@D@std@@@std@@IAE@XZ 100043d0 f i logging.cpp.obj
 0001:000034a0       ??0?$basic_string@DU?$char_traits@D@std@@V?$allocator@D@2@@std@@QAE@ABV01@@Z 100044a0 f i logging.cpp.obj
 0001:00003550       ??0?$basic_string@DU?$char_traits@D@std@@V?$allocator@D@2@@std@@QAE@QBD@Z 10004550 f i logging.cpp.obj
 0001:00003590       ??0?$fpos@U_Mbstatet@@@std@@QAE@_J@Z 10004590 f i logging.cpp.obj
 0001:000035c0       ??0_Locinfo@std@@QAE@PBD@Z 100045c0 f i logging.cpp.obj
 0001:00003670       ??0_System_error@std@@IAE@Verror_code@1@ABV?$basic_string@DU?$char_traits@D@std@@V?$allocator@D@2@@1@@Z 10004670 f i logging.cpp.obj
 0001:00003880       ??0_System_error@std@@QAE@ABV01@@Z 10004880 f i logging.cpp.obj
 0001:000038c0       ??0bad_alloc@std@@QAE@ABV01@@Z 100048c0 f i logging.cpp.obj
 0001:000038f0       ??0bad_array_new_length@std@@QAE@ABV01@@Z 100048f0 f i logging.cpp.obj
 0001:00003920       ??0bad_array_new_length@std@@QAE@XZ 10004920 f i logging.cpp.obj
 0001:00003940       ??0bad_cast@std@@QAE@ABV01@@Z 10004940 f i logging.cpp.obj
 0001:00003970       ??0bad_cast@std@@QAE@XZ    10004970 f i logging.cpp.obj
 0001:00003990       ??0exception@std@@QAE@ABV01@@Z 10004990 f i logging.cpp.obj
 0001:000039c0       ??0exception@std@@QAE@QBD@Z 100049c0 f i logging.cpp.obj
 0001:00003a00       ??0failure@ios_base@std@@QAE@ABV012@@Z 10004a00 f i logging.cpp.obj
 0001:00003a50       ??0failure@ios_base@std@@QAE@PBDABVerror_code@2@@Z 10004a50 f i logging.cpp.obj
 0001:00003b40       ??0runtime_error@std@@QAE@ABV01@@Z 10004b40 f i logging.cpp.obj
 0001:00003b70       ??0system_error@std@@QAE@ABV01@@Z 10004b70 f i logging.cpp.obj
 0001:00003bc0       ??1?$_Yarn@D@std@@QAE@XZ   10004bc0 f i logging.cpp.obj
 0001:00003bc0       ??1?$_Yarn@_W@std@@QAE@XZ  10004bc0 f i logging.cpp.obj
 0001:00003be0       ??1?$basic_filebuf@DU?$char_traits@D@std@@@std@@UAE@XZ 10004be0 f i logging.cpp.obj
 0001:00003d30       ??1?$basic_ios@DU?$char_traits@D@std@@@std@@UAE@XZ 10004d30 f i logging.cpp.obj
 0001:00003d80       ??1?$basic_ostream@DU?$char_traits@D@std@@@std@@UAE@XZ 10004d80 f i logging.cpp.obj
 0001:00003da0       ??1?$basic_string@DU?$char_traits@D@std@@V?$allocator@D@2@@std@@QAE@XZ 10004da0 f i logging.cpp.obj
 0001:00003da0       ?_Tidy_deallocate@?$basic_string@DU?$char_traits@D@std@@V?$allocator@D@2@@std@@AAEXXZ 10004da0 f i logging.cpp.obj
 0001:00003df0       ??1?$unique_ptr@V_Facet_base@std@@U?$default_delete@V_Facet_base@std@@@2@@std@@QAE@XZ 10004df0 f i logging.cpp.obj
 0001:00003e00       ??1_Locinfo@std@@QAE@XZ    10004e00 f i logging.cpp.obj
 0001:00003ee0       ??1__non_rtti_object@std@@UAE@XZ 10004ee0 f i libvcruntime:rtti.obj
 0001:00003ee0       ??1bad_alloc@std@@UAE@XZ   10004ee0 f i logging.cpp.obj
 0001:00003ee0       ??1bad_array_new_length@std@@UAE@XZ 10004ee0 f i logging.cpp.obj
 0001:00003ee0       ??1bad_cast@std@@UAE@XZ    10004ee0 f i logging.cpp.obj
 0001:00003ee0       ??1bad_exception@std@@UAE@XZ 10004ee0 f i main.cpp.obj
 0001:00003ee0       ??1bad_function_call@std@@UAE@XZ 10004ee0 f i libcpmt:xthrow.obj
 0001:00003ee0       ??1bad_typeid@std@@UAE@XZ  10004ee0 f i libvcruntime:rtti.obj
 0001:00003ee0       ??1exception@std@@UAE@XZ   10004ee0 f i logging.cpp.obj
 0001:00003ee0       ??1failure@ios_base@std@@UAE@XZ 10004ee0 f i logging.cpp.obj
 0001:00003ee0       ??1invalid_argument@std@@UAE@XZ 10004ee0 f i libcpmt:xthrow.obj
 0001:00003ee0       ??1length_error@std@@UAE@XZ 10004ee0 f i libcpmt:xthrow.obj
 0001:00003ee0       ??1out_of_range@std@@UAE@XZ 10004ee0 f i libcpmt:xthrow.obj
 0001:00003ee0       ??1runtime_error@std@@UAE@XZ 10004ee0 f i logging.cpp.obj
 0001:00003f00       ??1facet@locale@std@@MAE@XZ 10004f00 f i logging.cpp.obj
 0001:00003f10       ??1locale@std@@QAE@XZ      10004f10 f i logging.cpp.obj
 0001:00003f30       ??_D?$basic_ofstream@DU?$char_traits@D@std@@@std@@QAEXXZ 10004f30 f i logging.cpp.obj
 0001:00003fbf       ??_E?$basic_ofstream@DU?$char_traits@D@std@@@std@@$4PPPPPPPM@A@AEPAXI@Z 10004fbf f i logging.cpp.obj
 0001:00003fc7       ??_E?$basic_ostream@DU?$char_traits@D@std@@@std@@$4PPPPPPPM@A@AEPAXI@Z 10004fc7 f i logging.cpp.obj
 0001:00003fd0       ??_E?$basic_filebuf@DU?$char_traits@D@std@@@std@@UAEPAXI@Z 10004fd0 f i logging.cpp.obj
 0001:00003fd0       ??_G?$basic_filebuf@DU?$char_traits@D@std@@@std@@UAEPAXI@Z 10004fd0 f i logging.cpp.obj
 0001:00003ff0       ??_E?$basic_ios@DU?$char_traits@D@std@@@std@@UAEPAXI@Z 10004ff0 f i logging.cpp.obj
 0001:00003ff0       ??_G?$basic_ios@DU?$char_traits@D@std@@@std@@UAEPAXI@Z 10004ff0 f i logging.cpp.obj
 0001:00004060       ??_E?$basic_ofstream@DU?$char_traits@D@std@@@std@@UAEPAXI@Z 10005060 f i logging.cpp.obj
 0001:00004060       ??_G?$basic_ofstream@DU?$char_traits@D@std@@@std@@UAEPAXI@Z 10005060 f i logging.cpp.obj
 0001:00004090       ??_E?$basic_ostream@DU?$char_traits@D@std@@@std@@UAEPAXI@Z 10005090 f i logging.cpp.obj
 0001:00004090       ??_G?$basic_ostream@DU?$char_traits@D@std@@@std@@UAEPAXI@Z 10005090 f i logging.cpp.obj
 0001:00004120       ??_E?$basic_streambuf@DU?$char_traits@D@std@@@std@@UAEPAXI@Z 10005120 f i logging.cpp.obj
 0001:00004120       ??_G?$basic_streambuf@DU?$char_traits@D@std@@@std@@UAEPAXI@Z 10005120 f i logging.cpp.obj
 0001:00004170       ??_E?$codecvt@DDU_Mbstatet@@@std@@MAEPAXI@Z 10005170 f i logging.cpp.obj
 0001:00004170       ??_E?$num_put@DV?$ostreambuf_iterator@DU?$char_traits@D@std@@@std@@@std@@MAEPAXI@Z 10005170 f i main.cpp.obj
 0001:00004170       ??_G?$codecvt@DDU_Mbstatet@@@std@@MAEPAXI@Z 10005170 f i logging.cpp.obj
 0001:00004170       ??_G?$num_put@DV?$ostreambuf_iterator@DU?$char_traits@D@std@@@std@@@std@@MAEPAXI@Z 10005170 f i main.cpp.obj
 0001:000041a0       ??_E?$ctype@D@std@@MAEPAXI@Z 100051a0 f i logging.cpp.obj
 0001:000041a0       ??_G?$ctype@D@std@@MAEPAXI@Z 100051a0 f i logging.cpp.obj
 0001:000041f0       ??_E_Facet_base@std@@UAEPAXI@Z 100051f0 f i logging.cpp.obj
 0001:000041f0       ??_G_Facet_base@std@@UAEPAXI@Z 100051f0 f i logging.cpp.obj
 0001:00004220       ??_E_Iostream_error_category2@std@@UAEPAXI@Z 10005220 f i logging.cpp.obj
 0001:00004220       ??_G_Iostream_error_category2@std@@UAEPAXI@Z 10005220 f i logging.cpp.obj
 0001:00004240       ??_E_System_error@std@@UAEPAXI@Z 10005240 f i logging.cpp.obj
 0001:00004240       ??_Efailure@ios_base@std@@UAEPAXI@Z 10005240 f i logging.cpp.obj
 0001:00004240       ??_Esystem_error@std@@UAEPAXI@Z 10005240 f i logging.cpp.obj
 0001:00004240       ??_G_System_error@std@@UAEPAXI@Z 10005240 f i logging.cpp.obj
 0001:00004240       ??_Gfailure@ios_base@std@@UAEPAXI@Z 10005240 f i logging.cpp.obj
 0001:00004240       ??_Gsystem_error@std@@UAEPAXI@Z 10005240 f i logging.cpp.obj
 0001:00004270       ??_Ebad_alloc@std@@UAEPAXI@Z 10005270 f i logging.cpp.obj
 0001:00004270       ??_Ebad_array_new_length@std@@UAEPAXI@Z 10005270 f i logging.cpp.obj
 0001:00004270       ??_Ebad_cast@std@@UAEPAXI@Z 10005270 f i logging.cpp.obj
 0001:00004270       ??_Ebad_exception@std@@UAEPAXI@Z 10005270 f i main.cpp.obj
 0001:00004270       ??_Eexception@std@@UAEPAXI@Z 10005270 f i logging.cpp.obj
 0001:00004270       ??_Eruntime_error@std@@UAEPAXI@Z 10005270 f i logging.cpp.obj
 0001:00004270       ??_Gbad_alloc@std@@UAEPAXI@Z 10005270 f i logging.cpp.obj
 0001:00004270       ??_Gbad_array_new_length@std@@UAEPAXI@Z 10005270 f i logging.cpp.obj
 0001:00004270       ??_Gbad_cast@std@@UAEPAXI@Z 10005270 f i logging.cpp.obj
 0001:00004270       ??_Gbad_exception@std@@UAEPAXI@Z 10005270 f i main.cpp.obj
 0001:00004270       ??_Gexception@std@@UAEPAXI@Z 10005270 f i logging.cpp.obj
 0001:00004270       ??_Gruntime_error@std@@UAEPAXI@Z 10005270 f i logging.cpp.obj
 0001:000042a0       ??_Eios_base@std@@UAEPAXI@Z 100052a0 f i logging.cpp.obj
 0001:000042a0       ??_Gios_base@std@@UAEPAXI@Z 100052a0 f i logging.cpp.obj
 0001:00004310       ?_Deallocate_for_capacity@?$basic_string@DU?$char_traits@D@std@@V?$allocator@D@2@@std@@CAXAAV?$allocator@D@2@QADI@Z 10005310 f i logging.cpp.obj
 0001:00004350       ?_Decref@facet@locale@std@@UAEPAV_Facet_base@3@XZ 10005350 f i logging.cpp.obj
 0001:00004370       ?_Endwrite@?$basic_filebuf@DU?$char_traits@D@std@@@std@@IAE_NXZ 10005370 f i logging.cpp.obj
 0001:00004450       ?_Incref@facet@locale@std@@UAEXXZ 10005450 f i logging.cpp.obj
 0001:00004460       ?_Init@?$basic_filebuf@DU?$char_traits@D@std@@@std@@IAEXPAU_iobuf@@W4_Initfl@12@@Z 10005460 f i logging.cpp.obj
 0001:00004540       ?_Init@?$basic_streambuf@DU?$char_traits@D@std@@@std@@IAEXXZ 10005540 f i logging.cpp.obj
 0001:000045a0       ?_Initcvt@?$basic_filebuf@DU?$char_traits@D@std@@@std@@IAEXABV?$codecvt@DDU_Mbstatet@@@2@@Z 100055a0 f i logging.cpp.obj
 0001:00004620       ?_Lock@?$basic_filebuf@DU?$char_traits@D@std@@@std@@UAEXXZ 10005620 f i logging.cpp.obj
 0001:00004630       ?InvalidFunctionPtrCheckHook@Nampower@@YAXPAVPatchDetourBase@hadesmem@@I@Z 10005630 f i main.cpp.obj
 0001:00004630       ?_Lock@?$basic_streambuf@DU?$char_traits@D@std@@@std@@UAEXXZ 10005630 f i logging.cpp.obj
 0001:00004630       ?_Unlock@?$basic_streambuf@DU?$char_traits@D@std@@@std@@UAEXXZ 10005630 f i logging.cpp.obj
 0001:00004630       ?sp_enable_shared_from_this@detail@boost@@YAXZZ 10005630 f i main.cpp.obj
 0001:00004630       @_guard_check_icall_nop@4  10005630 f i libvcruntime:jbcxrval.obj
 0001:00004640       ?_Reset_back@?$basic_filebuf@DU?$char_traits@D@std@@@std@@AAEXXZ 10005640 f i logging.cpp.obj
 0001:00004670       ?_Throw_bad_array_new_length@std@@YAXXZ 10005670 f i logging.cpp.obj
 0001:00004690       ?_Throw_bad_cast@std@@YAXXZ 10005690 f i logging.cpp.obj
 0001:000046b0       ?_Unlock@?$basic_filebuf@DU?$char_traits@D@std@@@std@@UAEXXZ 100056b0 f i logging.cpp.obj
 0001:000046c0       ?_Xlen_string@std@@YAXXZ   100056c0 f i logging.cpp.obj
 0001:000046d0       ?_Xran@?$_String_val@U?$_Simple_types@D@std@@@std@@SAXXZ 100056d0 f i logging.cpp.obj
 0001:000046e0       ?append@?$basic_string@DU?$char_traits@D@std@@V?$allocator@D@2@@std@@QAEAAV12@QBDI@Z 100056e0 f i logging.cpp.obj
 0001:00004840       ?c_str@?$basic_string@DU?$char_traits@D@std@@V?$allocator@D@2@@std@@QBEPBDXZ 10005840 f i logging.cpp.obj
 0001:00004850       ?clear@ios_base@std@@QAEXH@Z 10005850 f i logging.cpp.obj
 0001:000048c0       ?clear@ios_base@std@@QAEXH_N@Z 100058c0 f i logging.cpp.obj
 0001:00004940       ?close@?$basic_filebuf@DU?$char_traits@D@std@@@std@@QAEPAV12@XZ 10005940 f i logging.cpp.obj
 0001:00004a20       ?deallocate@?$allocator@D@std@@QAEXQADI@Z 10005a20 f i logging.cpp.obj
 0001:00004a60       ?default_error_condition@error_category@std@@UBE?AVerror_condition@2@H@Z 10005a60 f i logging.cpp.obj
 0001:00004a70       ?CanHookChainImpl@?$PatchDetour@P6GHPAIPAVCDataStore@Nampower@@@ZPAX@hadesmem@@MBE_NXZ 10005a70 f i main.cpp.obj
 0001:00004a70       ?CanHookChainImpl@?$PatchDetour@P6GXXZPAX@hadesmem@@MBE_NXZ 10005a70 f i main.cpp.obj
 0001:00004a70       ?CanHookChainImpl@?$PatchDetour@P6IHIIIPAVCDataStore@Nampower@@@ZPAX@hadesmem@@MBE_NXZ 10005a70 f i main.cpp.obj
 0001:00004a70       ?CanHookChainImpl@?$PatchDetour@P6IHPAI@ZPAX@hadesmem@@MBE_NXZ 10005a70 f i main.cpp.obj
 0001:00004a70       ?CanHookChainImpl@?$PatchDetour@P6IHPAX0IPAPAH1HHHHIPAPAPAPAH@ZPAX@hadesmem@@MBE_NXZ 10005a70 f i main.cpp.obj
 0001:00004a70       ?CanHookChainImpl@?$PatchDetour@P6IH_K@ZPAX@hadesmem@@MBE_NXZ 10005a70 f i main.cpp.obj
 0001:00004a70       ?CanHookChainImpl@?$PatchDetour@P6IIPAI00@ZPAX@hadesmem@@MBE_NXZ 10005a70 f i main.cpp.obj
 0001:00004a70       ?CanHookChainImpl@?$PatchDetour@P6IIPAI@ZPAX@hadesmem@@MBE_NXZ 10005a70 f i main.cpp.obj
 0001:00004a70       ?CanHookChainImpl@?$PatchDetour@P6IIPAUCTerrainClickEvent@game@@@ZPAX@hadesmem@@MBE_NXZ 10005a70 f i main.cpp.obj
 0001:00004a70       ?CanHookChainImpl@?$PatchDetour@P6IPAHPAI@ZPAX@hadesmem@@MBE_NXZ 10005a70 f i main.cpp.obj
 0001:00004a70       ?CanHookChainImpl@?$PatchDetour@P6IXEH@ZPAX@hadesmem@@MBE_NXZ 10005a70 f i main.cpp.obj
 0001:00004a70       ?CanHookChainImpl@?$PatchDetour@P6IXHI@ZPAX@hadesmem@@MBE_NXZ 10005a70 f i main.cpp.obj
 0001:00004a70       ?CanHookChainImpl@?$PatchDetour@P6IXI@ZPAX@hadesmem@@MBE_NXZ 10005a70 f i main.cpp.obj
 0001:00004a70       ?CanHookChainImpl@?$PatchDetour@P6IXIHH@ZPAX@hadesmem@@MBE_NXZ 10005a70 f i main.cpp.obj
 0001:00004a70       ?CanHookChainImpl@?$PatchDetour@P6IXIH_K@ZPAX@hadesmem@@MBE_NXZ 10005a70 f i main.cpp.obj
 0001:00004a70       ?CanHookChainImpl@?$PatchDetour@P6IXIW4SpellCastResult@game@@HH_N@ZPAX@hadesmem@@MBE_NXZ 10005a70 f i main.cpp.obj
 0001:00004a70       ?CanHookChainImpl@?$PatchDetour@P6IXPAI@ZPAX@hadesmem@@MBE_NXZ 10005a70 f i main.cpp.obj
 0001:00004a70       ?CanHookChainImpl@?$PatchDetour@P6IXPAIPAXHE@ZPAX@hadesmem@@MBE_NXZ 10005a70 f i main.cpp.obj
 0001:00004a70       ?CanHookChainImpl@?$PatchDetour@P6IXPAIPAXHHHH@ZPAX@hadesmem@@MBE_NXZ 10005a70 f i main.cpp.obj
 0001:00004a70       ?CanHookChainImpl@?$PatchDetour@P6IXPAIPAXII@ZPAX@hadesmem@@MBE_NXZ 10005a70 f i main.cpp.obj
 0001:00004a70       ?CanHookChainImpl@?$PatchDetour@P6IXPAIPAXW4CHAT_COMMAND_ID@game@@PAD@ZPAX@hadesmem@@MBE_NXZ 10005a70 f i main.cpp.obj
 0001:00004a70       ?CanHookChainImpl@?$PatchDetour@P6IXPAIPA_K@ZPAX@hadesmem@@MBE_NXZ 10005a70 f i main.cpp.obj
 0001:00004a70       ?CanHookChainImpl@?$PatchDetour@P6IXPAUSpellCast@game@@D@ZPAX@hadesmem@@MBE_NXZ 10005a70 f i main.cpp.obj
 0001:00004a70       ?CanHookChainImpl@?$PatchDetour@P6IXPAX0I@ZPAX@hadesmem@@MBE_NXZ 10005a70 f i main.cpp.obj
 0001:00004a70       ?CanHookChainImpl@?$PatchDetour@P6IXPAX0II@ZPAX@hadesmem@@MBE_NXZ 10005a70 f i main.cpp.obj
 0001:00004a70       ?CanHookChainImpl@?$PatchDetour@P6IXPAX0PAVCDataStore@Nampower@@@ZPAX@hadesmem@@MBE_NXZ 10005a70 f i main.cpp.obj
 0001:00004a70       ?CanHookChainImpl@?$PatchDetour@P6IXPAXHH@ZPAX@hadesmem@@MBE_NXZ 10005a70 f i main.cpp.obj
 0001:00004a70       ?CanHookChainImpl@?$PatchDetour@P6IXPA_K0I@ZPAX@hadesmem@@MBE_NXZ 10005a70 f i main.cpp.obj
 0001:00004a70       ?CanHookChainImpl@?$PatchDetour@P6IXPA_K0II@ZPAX@hadesmem@@MBE_NXZ 10005a70 f i main.cpp.obj
 0001:00004a70       ?CanHookChainImpl@?$PatchDetour@P6IXPA_K0IPAVCDataStore@Nampower@@@ZPAX@hadesmem@@MBE_NXZ 10005a70 f i main.cpp.obj
 0001:00004a70       ?CanHookChainImpl@?$PatchDetour@P6IXPA_KI@ZPAX@hadesmem@@MBE_NXZ 10005a70 f i main.cpp.obj
 0001:00004a70       ?CanHookChainImpl@?$PatchDetour@P6IXPA_KPBDHHH@ZPAX@hadesmem@@MBE_NXZ 10005a70 f i main.cpp.obj
 0001:00004a70       ?CanHookChainImpl@?$PatchDetour@P6IXXZPAX@hadesmem@@MBE_NXZ 10005a70 f i main.cpp.obj
 0001:00004a70       ?CanHookChainImpl@?$PatchDetour@P6IX_K@ZPAX@hadesmem@@MBE_NXZ 10005a70 f i main.cpp.obj
 0001:00004a70       ?CanHookChainImpl@?$PatchDetour@P6IX_N0W4SpellCastResult@game@@@ZPAX@hadesmem@@MBE_NXZ 10005a70 f i main.cpp.obj
 0001:00004a70       ?CanHookChainImpl@?$PatchDetour@P6I_KPBD@ZPAX@hadesmem@@MBE_NXZ 10005a70 f i main.cpp.obj
 0001:00004a70       ?CanHookChainImpl@?$PatchDetour@P6I_NPAI0IM@ZPAX@hadesmem@@MBE_NXZ 10005a70 f i main.cpp.obj
 0001:00004a70       ?CanHookChainImpl@?$PatchDetour@P6I_NPAIIPAUCGItem_C@game@@_K@ZPAX@hadesmem@@MBE_NXZ 10005a70 f i main.cpp.obj
 0001:00004a70       ?CanHookChainImpl@?$PatchDetour@P6I_NPAUEVENT_DATA_KEY@@H@ZPAX@hadesmem@@MBE_NXZ 10005a70 f i main.cpp.obj
 0001:00004a70       ?CanHookChainImpl@?$PatchDetour@P6I_NPAUSpellRec@game@@PADHMMMMM@ZPAX@hadesmem@@MBE_NXZ 10005a70 f i main.cpp.obj
 0001:00004a70       ?do_always_noconv@?$codecvt@DDU_Mbstatet@@@std@@MBE_NXZ 10005a70 f i logging.cpp.obj
 0001:00004a70       ___acrt_uninitialize_command_line 10005a70 f i libucrt:argv_data.obj
 0001:00004a80       ?do_encoding@codecvt_base@std@@MBEHXZ 10005a80 f i logging.cpp.obj
 0001:00004a80       ?do_max_length@codecvt_base@std@@MBEHXZ 10005a80 f i logging.cpp.obj
 0001:00004a90       ?do_in@?$codecvt@DDU_Mbstatet@@@std@@MBEHAAU_Mbstatet@@PBD1AAPBDPAD3AAPAD@Z 10005a90 f i logging.cpp.obj
 0001:00004a90       ?do_out@?$codecvt@DDU_Mbstatet@@@std@@MBEHAAU_Mbstatet@@PBD1AAPBDPAD3AAPAD@Z 10005a90 f i logging.cpp.obj
 0001:00004ab0       ?do_length@?$codecvt@DDU_Mbstatet@@@std@@MBEHAAU_Mbstatet@@PBD1I@Z 10005ab0 f i logging.cpp.obj
 0001:00004ad0       ?do_narrow@?$ctype@D@std@@MBEDDD@Z 10005ad0 f i logging.cpp.obj
 0001:00004ae0       ?do_narrow@?$ctype@D@std@@MBEPBDPBD0DPAD@Z 10005ae0 f i logging.cpp.obj
 0001:00004b00       ?do_tolower@?$ctype@D@std@@MBEDD@Z 10005b00 f i logging.cpp.obj
 0001:00004b20       ?do_tolower@?$ctype@D@std@@MBEPBDPADPBD@Z 10005b20 f i logging.cpp.obj
 0001:00004b50       ?do_toupper@?$ctype@D@std@@MBEDD@Z 10005b50 f i logging.cpp.obj
 0001:00004b70       ?do_toupper@?$ctype@D@std@@MBEPBDPADPBD@Z 10005b70 f i logging.cpp.obj
 0001:00004ba0       ?do_unshift@?$codecvt@DDU_Mbstatet@@@std@@MBEHAAU_Mbstatet@@PAD1AAPAD@Z 10005ba0 f i logging.cpp.obj
 0001:00004bc0       ?do_widen@?$ctype@D@std@@MBEDD@Z 10005bc0 f i logging.cpp.obj
 0001:00004bd0       ?do_widen@?$ctype@D@std@@MBEPBDPBD0PAD@Z 10005bd0 f i logging.cpp.obj
 0001:00004bf0       ?equivalent@error_category@std@@UBE_NABVerror_code@2@H@Z 10005bf0 f i logging.cpp.obj
 0001:00004c20       ?equivalent@error_category@std@@UBE_NHABVerror_condition@2@@Z 10005c20 f i logging.cpp.obj
 0001:00004c60       ?erase@?$basic_string@DU?$char_traits@D@std@@V?$allocator@D@2@@std@@QAEAAV12@II@Z 10005c60 f i logging.cpp.obj
 0001:00004cb0       ?imbue@?$basic_filebuf@DU?$char_traits@D@std@@@std@@MAEXABVlocale@2@@Z 10005cb0 f i logging.cpp.obj
 0001:00004d30       ?imbue@?$basic_streambuf@DU?$char_traits@D@std@@@std@@MAEXABVlocale@2@@Z 10005d30 f i logging.cpp.obj
 0001:00004d40       ?init@?$basic_ios@DU?$char_traits@D@std@@@std@@IAEXPAV?$basic_streambuf@DU?$char_traits@D@std@@@2@_N@Z 10005d40 f i logging.cpp.obj
 0001:00004ec0       ?make_error_code@std@@YA?AVerror_code@1@W4io_errc@1@@Z 10005ec0 f i logging.cpp.obj
 0001:00004ee0       ?message@_Iostream_error_category2@std@@UBE?AV?$basic_string@DU?$char_traits@D@std@@V?$allocator@D@2@@2@H@Z 10005ee0 f i logging.cpp.obj
 0001:00004fa0       ?name@_Iostream_error_category2@std@@UBEPBDXZ 10005fa0 f i logging.cpp.obj
 0001:00004fb0       ?overflow@?$basic_filebuf@DU?$char_traits@D@std@@@std@@MAEHH@Z 10005fb0 f i logging.cpp.obj
 0001:00005140       ?overflow@?$basic_streambuf@DU?$char_traits@D@std@@@std@@MAEHH@Z 10006140 f i logging.cpp.obj
 0001:00005140       ?pbackfail@?$basic_streambuf@DU?$char_traits@D@std@@@std@@MAEHH@Z 10006140 f i logging.cpp.obj
 0001:00005150       ?pbackfail@?$basic_filebuf@DU?$char_traits@D@std@@@std@@MAEHH@Z 10006150 f i logging.cpp.obj
 0001:00005200       ?push_back@?$basic_string@DU?$char_traits@D@std@@V?$allocator@D@2@@std@@QAEXD@Z 10006200 f i logging.cpp.obj
 0001:00005320       ?seekoff@?$basic_filebuf@DU?$char_traits@D@std@@@std@@MAE?AV?$fpos@U_Mbstatet@@@2@_JHH@Z 10006320 f i logging.cpp.obj
 0001:00005400       ?seekoff@?$basic_streambuf@DU?$char_traits@D@std@@@std@@MAE?AV?$fpos@U_Mbstatet@@@2@_JHH@Z 10006400 f i logging.cpp.obj
 0001:00005430       ?seekpos@?$basic_filebuf@DU?$char_traits@D@std@@@std@@MAE?AV?$fpos@U_Mbstatet@@@2@V32@H@Z 10006430 f i logging.cpp.obj
 0001:00005500       ?seekpos@?$basic_streambuf@DU?$char_traits@D@std@@@std@@MAE?AV?$fpos@U_Mbstatet@@@2@V32@H@Z 10006500 f i logging.cpp.obj
 0001:00005530       ?setbuf@?$basic_filebuf@DU?$char_traits@D@std@@@std@@MAEPAV?$basic_streambuf@DU?$char_traits@D@std@@@2@PAD_J@Z 10006530 f i logging.cpp.obj
 0001:00005580       ?setbuf@?$basic_streambuf@DU?$char_traits@D@std@@@std@@MAEPAV12@PAD_J@Z 10006580 f i logging.cpp.obj
 0001:00005590       ?setstate@?$basic_ios@DU?$char_traits@D@std@@@std@@QAEXH_N@Z 10006590 f i logging.cpp.obj
 0001:000055c0       ?showmanyc@?$basic_streambuf@DU?$char_traits@D@std@@@std@@MAE_JXZ 100065c0 f i logging.cpp.obj
 0001:000055d0       ?sync@?$basic_filebuf@DU?$char_traits@D@std@@@std@@MAEHXZ 100065d0 f i logging.cpp.obj
 0001:00005600       ?get_untyped_deleter@?$sp_counted_impl_p@V?$clone_impl@Ubad_alloc_@exception_detail@boost@@@exception_detail@boost@@@detail@boost@@UAEPAXXZ 10006600 f i main.cpp.obj
 0001:00005600       ?get_untyped_deleter@?$sp_counted_impl_p@V?$clone_impl@Ubad_exception_@exception_detail@boost@@@exception_detail@boost@@@detail@boost@@UAEPAXXZ 10006600 f i main.cpp.obj
 0001:00005600       ?get_untyped_deleter@?$sp_counted_impl_p@V?$error_info@UTagErrorCodeWinLast@hadesmem@@K@boost@@@detail@boost@@UAEPAXXZ 10006600 f i main.cpp.obj
 0001:00005600       ?get_untyped_deleter@?$sp_counted_impl_p@V?$error_info@UTagErrorString@hadesmem@@V?$basic_string@DU?$char_traits@D@std@@V?$allocator@D@2@@std@@@boost@@@detail@boost@@UAEPAXXZ 10006600 f i main.cpp.obj
 0001:00005600       ?get_untyped_deleter@?$sp_counted_impl_p@Verror_info_base@exception_detail@boost@@@detail@boost@@UAEPAXXZ 10006600 f i main.cpp.obj
 0001:00005600       ?sync@?$basic_streambuf@DU?$char_traits@D@std@@@std@@MAEHXZ 10006600 f i logging.cpp.obj
 0001:00005610       ?uflow@?$basic_filebuf@DU?$char_traits@D@std@@@std@@MAEHXZ 10006610 f i logging.cpp.obj
 0001:00005950       ?uflow@?$basic_streambuf@DU?$char_traits@D@std@@@std@@MAEHXZ 10006950 f i logging.cpp.obj
 0001:00005980       ?underflow@?$basic_filebuf@DU?$char_traits@D@std@@@std@@MAEHXZ 10006980 f i logging.cpp.obj
 0001:000059c0       ?raw_length@pDNameNode@@UBEHXZ 100069c0 f i libvcruntime:undname.obj
 0001:000059c0       ?underflow@?$basic_streambuf@DU?$char_traits@D@std@@@std@@MAEHXZ 100069c0 f i logging.cpp.obj
 0001:000059d0       ?what@exception@std@@UBEPBDXZ 100069d0 f i logging.cpp.obj
 0001:000059e0       ?xsgetn@?$basic_filebuf@DU?$char_traits@D@std@@@std@@MAE_JPAD_J@Z 100069e0 f i logging.cpp.obj
 0001:00005ba0       ?xsgetn@?$basic_streambuf@DU?$char_traits@D@std@@@std@@MAE_JPAD_J@Z 10006ba0 f i logging.cpp.obj
 0001:00005c70       ?xsputn@?$basic_filebuf@DU?$char_traits@D@std@@@std@@MAE_JPBD_J@Z 10006c70 f i logging.cpp.obj
 0001:00005e30       ?xsputn@?$basic_streambuf@DU?$char_traits@D@std@@@std@@MAE_JPBD_J@Z 10006e30 f i logging.cpp.obj
 0001:00005f00       ??$Get@E@CDataStore@Nampower@@QAEXAAE@Z 10006f00 f i cdatastore.cpp.obj
 0001:00005f80       ?AssertFetchRead@CDataStore@Nampower@@QAE_NII@Z 10006f80 f   cdatastore.cpp.obj
 0001:00005fb0       ?AssertFetchWrite@CDataStore@Nampower@@QAE_NII@Z 10006fb0 f   cdatastore.cpp.obj
 0001:00005fe0       ?Destroy@CDataStore@Nampower@@IAEXXZ 10006fe0 f   cdatastore.cpp.obj
 0001:00006000       ?DetachBuffer@CDataStore@Nampower@@UAEXPAPAXPAI1@Z 10007000 f   cdatastore.cpp.obj
 0001:00006040       ?Finalize@CDataStore@Nampower@@UAEXXZ 10007040 f   cdatastore.cpp.obj
 0001:00006050       ?GetBufferParams@CDataStore@Nampower@@UAEXPAPBXPAI1@Z 10007050 f   cdatastore.cpp.obj
 0001:00006080       ?GetPackedGuid@CDataStore@Nampower@@QAEXAA_K@Z 10007080 f   cdatastore.cpp.obj
 0001:00006190       ?Initialize@CDataStore@Nampower@@IAEXXZ 10007190 f   cdatastore.cpp.obj
 0001:000061b0       ?InternalDestroy@CDataStore@Nampower@@MAEXAAPAEAAI1@Z 100071b0 f   cdatastore.cpp.obj
 0001:000061f0       ?InternalFetchRead@CDataStore@Nampower@@MAEHIIAAPAEAAI1@Z 100071f0 f   cdatastore.cpp.obj
 0001:00006200       ?InternalFetchWrite@CDataStore@Nampower@@MAEHIIAAPAEAAI1@Z 10007200 f   cdatastore.cpp.obj
 0001:00006250       ?InternalInitialize@CDataStore@Nampower@@MAEXAAPAEAAI1@Z 10007250 f   cdatastore.cpp.obj
 0001:00006260       ?IsRead@CDataStore@Nampower@@UAEHXZ 10007260 f   cdatastore.cpp.obj
 0001:00006270       ?Reset@CDataStore@Nampower@@UAEXXZ 10007270 f   cdatastore.cpp.obj
 0001:000062a0       ?ClntObjMgrGetActivePlayerGuid@game@@YA_KXZ 100072a0 f   game.cpp.obj
 0001:000062b0       ?ClntObjMgrObjectPtr@game@@YAPAIW4TypeMask@1@_K@Z 100072b0 f   game.cpp.obj
 0001:000062d0       ?GetActivePlayerUnitFields@game@@YAPAUUnitFields@1@XZ 100072d0 f   game.cpp.obj
 0001:000062f0       ?GetCastTime@game@@YAIPAXI@Z 100072f0 f   game.cpp.obj
 0001:00006310       ?GetCorpseOwner@game@@YA_KPAI@Z 10007310 f   game.cpp.obj
 0001:00006330       ?GetCurrentTargetGuid@game@@YA_KXZ 10007330 f   game.cpp.obj
 0001:00006340       ?GetDurationObject@game@@YAPAVCDuration@1@I@Z 10007340 f   game.cpp.obj
 0001:00006360       ?GetItemId@game@@YAIPAUCGItem_C@1@@Z 10007360 f   game.cpp.obj
 0001:00006370       ?GetObjectPtr@game@@YAPAI_K@Z 10007370 f   game.cpp.obj
 0001:00006380       ?GetObjectVFTable@game@@YAPAIPAI@Z 10007380 f   game.cpp.obj
 0001:00006390       ?GetPartyOrRaidMemberInfo@game@@YAPAUCGPartyMemberInfo@1@_K@Z 10007390 f   game.cpp.obj
 0001:000063a0       ?GetPartyOrRaidPetInfo@game@@YAPAUCGPartyMemberPetInfo@1@_K@Z 100073a0 f   game.cpp.obj
 0001:000063b0       ?GetPlayerInventoryPtr@game@@YAPAIPAI@Z 100073b0 f   game.cpp.obj
 0001:000063c0       ?GetSpellDuration@game@@YAHPBUSpellRec@1@_N@Z 100073c0 f   game.cpp.obj
 0001:000063e0       ?GetSpellInfo@game@@YAPBUSpellRec@1@I@Z 100073e0 f   game.cpp.obj
 0001:00006400       ?GetSpellModifier@game@@YAHPBUSpellRec@1@W4SpellModOp@1@@Z 10007400 f   game.cpp.obj
 0001:00006430       ?GetSpellName@game@@YAPBDI@Z 10007430 f   game.cpp.obj
 0001:00006470       ?UnitGetGuid@game@@YA_KPAI@Z 10007470 f   game.cpp.obj
 0001:00006490       ?UnitGetMountDisplayId@game@@YAIPAI@Z 10007490 f   game.cpp.obj
 0001:000064b0       ?UnitGetOwnerGuidForGuid@game@@YA_K_K@Z 100074b0 f   game.cpp.obj
 0001:00006510       ?UnitGetPetGuidForGuid@game@@YA_K_K@Z 10007510 f   game.cpp.obj
 0001:00006560       ?UnitGetPosition@game@@YA?AUC3Vector@1@PAI@Z 10007560 f   game.cpp.obj
 0001:00006590       ?UnitGetTargetGuid@game@@YA_KPAI@Z 10007590 f   game.cpp.obj
 0001:000065b0       ?UnitGetTargetGuidForGuid@game@@YA_K_K@Z 100075b0 f   game.cpp.obj
 0001:000065f0       ?UnitIsBuffCapped@game@@YA_NPAI@Z 100075f0 f   game.cpp.obj
 0001:00006630       ?UnitIsDebuffCapped@game@@YA_NPAI@Z 10007630 f   game.cpp.obj
 0001:00006670       ?UnitIsInCombat@game@@YA_NPAI@Z 10007670 f   game.cpp.obj
 0001:000066a0       ?UnitIsPvpFlagged@game@@YA_NPAI@Z 100076a0 f   game.cpp.obj
 0001:000066d0       ??$?0PAD$0A@@?$basic_string@DU?$char_traits@D@std@@V?$allocator@D@2@@std@@QAE@PAD0ABV?$allocator@D@1@@Z 100076d0 f i main.cpp.obj
 0001:00006790       ??$?0V?$clone_impl@Ubad_alloc_@exception_detail@boost@@@exception_detail@boost@@@shared_count@detail@boost@@QAE@PAV?$clone_impl@Ubad_alloc_@exception_detail@boost@@@exception_detail@2@@Z 10007790 f i main.cpp.obj
 0001:00006830       ??$?0V?$clone_impl@Ubad_exception_@exception_detail@boost@@@exception_detail@boost@@@shared_count@detail@boost@@QAE@PAV?$clone_impl@Ubad_exception_@exception_detail@boost@@@exception_detail@2@@Z 10007830 f i main.cpp.obj
 0001:000068d0       ??$?0V?$error_info@UTagErrorCodeWinLast@hadesmem@@K@boost@@@?$shared_ptr@V?$error_info@UTagErrorCodeWinLast@hadesmem@@K@boost@@@boost@@QAE@PAV?$error_info@UTagErrorCodeWinLast@hadesmem@@K@1@@Z 100078d0 f i main.cpp.obj
 0001:00006980       ??$?0V?$error_info@UTagErrorCodeWinLast@hadesmem@@K@boost@@@shared_count@detail@boost@@QAE@PAV?$error_info@UTagErrorCodeWinLast@hadesmem@@K@2@@Z 10007980 f i main.cpp.obj
 0001:00006a20       ??$?0V?$error_info@UTagErrorString@hadesmem@@V?$basic_string@DU?$char_traits@D@std@@V?$allocator@D@2@@std@@@boost@@@?$shared_ptr@V?$error_info@UTagErrorString@hadesmem@@V?$basic_string@DU?$char_traits@D@std@@V?$allocator@D@2@@std@@@boost@@@boost@@QAE@PAV?$error_info@UTagErrorString@hadesmem@@V?$basic_string@DU?$char_traits@D@std@@V?$allocator@D@2@@std@@@1@@Z 10007a20 f i main.cpp.obj
 0001:00006ad0       ??$?0V?$error_info@UTagErrorString@hadesmem@@V?$basic_string@DU?$char_traits@D@std@@V?$allocator@D@2@@std@@@boost@@@shared_count@detail@boost@@QAE@PAV?$error_info@UTagErrorString@hadesmem@@V?$basic_string@DU?$char_traits@D@std@@V?$allocator@D@2@@std@@@2@@Z 10007ad0 f i main.cpp.obj
 0001:00006b70       ??$?0Verror_info_base@exception_detail@boost@@@shared_count@detail@boost@@QAE@PAVerror_info_base@exception_detail@2@@Z 10007b70 f i main.cpp.obj
 0001:00006c10       ??$?6DU?$char_traits@D@std@@@std@@YAAAV?$basic_ostream@DU?$char_traits@D@std@@@0@AAV10@ABU?$_Timeobj@DPBUtm@@@0@@Z 10007c10 f i main.cpp.obj
 0001:00006d90       ??$?6DU?$char_traits@D@std@@V?$allocator@D@1@@std@@YAAAV?$basic_ostream@DU?$char_traits@D@std@@@0@AAV10@ABV?$basic_string@DU?$char_traits@D@std@@V?$allocator@D@2@@0@@Z 10007d90 f i main.cpp.obj
 0001:00006db0       ??$?6U?$char_traits@D@std@@@std@@YAAAV?$basic_ostream@DU?$char_traits@D@std@@@0@AAV10@D@Z 10007db0 f i main.cpp.obj
 0001:00007050       ??$?6U?$char_traits@D@std@@@std@@YAAAV?$basic_ostream@DU?$char_traits@D@std@@@0@AAV10@PBD@Z 10008050 f i main.cpp.obj
 0001:000072f0       ??$?6VError@hadesmem@@UTagErrorCodeWinLast@1@K@boost@@YAABVError@hadesmem@@ABV12@$$QAV?$error_info@UTagErrorCodeWinLast@hadesmem@@K@0@@Z 100082f0 f i main.cpp.obj
 0001:00007300       ??$?6VError@hadesmem@@UTagErrorString@1@V?$basic_string@DU?$char_traits@D@std@@V?$allocator@D@2@@std@@@boost@@YAABVError@hadesmem@@ABV12@$$QAV?$error_info@UTagErrorString@hadesmem@@V?$basic_string@DU?$char_traits@D@std@@V?$allocator@D@2@@std@@@0@@Z 10008300 f i main.cpp.obj
 0001:00007310       ??$Put@I@CDataStore@Nampower@@QAEXI@Z 10008310 f i main.cpp.obj
 0001:00007350       ??$ReadVector@EV?$allocator@E@std@@@hadesmem@@YA?AV?$vector@EV?$allocator@E@std@@@std@@ABVProcess@0@PAXI@Z 10008350 f i main.cpp.obj
 0001:00007410       ??$Toolhelp32Enum@UtagTHREADENTRY32@@P6GHPAXPAU1@@Z@detail@hadesmem@@YA?AV?$Optional@UtagTHREADENTRY32@@@01@P6GHPAXPAUtagTHREADENTRY32@@@Z0ABV?$basic_string@DU?$char_traits@D@std@@V?$allocator@D@2@@std@@@Z 10008410 f i main.cpp.obj
 0001:00007580       ??$TraceFormatT@DP6AHPADIPBDZZPBDAAPAXAAPAX@@YAXPBDP6AHPADI0ZZ0AAPAX3@Z 10008580 f i main.cpp.obj
 0001:00007580       ??$TraceFormatT@DP6AHPADIPBDZZPBDKPBD@@YAXPBDP6AHPADI0ZZ0$$QAK$$QAPBD@Z 10008580 f i main.cpp.obj
 0001:00007580       ??$TraceFormatT@DP6AHPADIPBDZZPBDQBDQBD@@YAXPBDP6AHPADI0ZZ0$$QBQBD3@Z 10008580 f i main.cpp.obj
 0001:000077f0       ??$TraceFormatT@DP6AHPADIPBDZZPBDAAPAXAAPAXI@@YAXPBDP6AHPADI0ZZ0AAPAX3$$QAI@Z 100087f0 f i main.cpp.obj
 0001:00007a60       ??$TraceFormatT@DP6AHPADIPBDZZPBDAAY0BF@$$CBD@@YAXPBDP6AHPADI0ZZ0AAY0BF@$$CBD@Z 10008a60 f i main.cpp.obj
 0001:00007a60       ??$TraceFormatT@DP6AHPADIPBDZZPBDAAY0BG@$$CBD@@YAXPBDP6AHPADI0ZZ0AAY0BG@$$CBD@Z 10008a60 f i main.cpp.obj
 0001:00007a60       ??$TraceFormatT@DP6AHPADIPBDZZPBDAAY0BH@$$CBD@@YAXPBDP6AHPADI0ZZ0AAY0BH@$$CBD@Z 10008a60 f i main.cpp.obj
 0001:00007a60       ??$TraceFormatT@DP6AHPADIPBDZZPBDAAY0BK@$$CBD@@YAXPBDP6AHPADI0ZZ0AAY0BK@$$CBD@Z 10008a60 f i main.cpp.obj
 0001:00007a60       ??$TraceFormatT@DP6AHPADIPBDZZPBDAAY0CE@$$CBD@@YAXPBDP6AHPADI0ZZ0AAY0CE@$$CBD@Z 10008a60 f i main.cpp.obj
 0001:00007cc0       ??$TraceFormatT@DP6AHPADIPBDZZPBDABG@@YAXPBDP6AHPADI0ZZ0ABG@Z 10008cc0 f i main.cpp.obj
 0001:00007f20       ??$TraceFormatT@DP6AHPADIPBDZZPBDABQAX@@YAXPBDP6AHPADI0ZZ0ABQAX@Z 10008f20 f i main.cpp.obj
 0001:00007f20       ??$TraceFormatT@DP6AHPADIPBDZZPBDPBD@@YAXPBDP6AHPADI0ZZ0$$QAPBD@Z 10008f20 f i main.cpp.obj
 0001:00008180       ??$TraceFormatT@DP6AHPADIPBDZZPBDPAV?$PatchDetour@P6GHPAIPAVCDataStore@Nampower@@@ZPAX@hadesmem@@AAPAXABQAP6GHPAVPatchDetourBase@2@PAIPAVCDataStore@Nampower@@@ZPAX@@YAXPBDP6AHPADI0ZZ0$$QAPAV?$PatchDetour@P6GHPAIPAVCDataStore@Nampower@@@ZPAX@hadesmem@@AAPAXABQAP6GHPAVPatchDetourBase@1@PAIPAVCDataStore@Nampower@@@Z$$QAPAX@Z 10009180 f i main.cpp.obj
 0001:00008180       ??$TraceFormatT@DP6AHPADIPBDZZPBDPAV?$PatchDetour@P6GXXZPAX@hadesmem@@AAPAXABQAP6GXPAVPatchDetourBase@2@@ZPAX@@YAXPBDP6AHPADI0ZZ0$$QAPAV?$PatchDetour@P6GXXZPAX@hadesmem@@AAPAXABQAP6GXPAVPatchDetourBase@1@@Z$$QAPAX@Z 10009180 f i main.cpp.obj
 0001:00008180       ??$TraceFormatT@DP6AHPADIPBDZZPBDPAV?$PatchDetour@P6IHIIIPAVCDataStore@Nampower@@@ZPAX@hadesmem@@AAPAXABQAP6IHPAVPatchDetourBase@2@IIIPAVCDataStore@Nampower@@@ZPAX@@YAXPBDP6AHPADI0ZZ0$$QAPAV?$PatchDetour@P6IHIIIPAVCDataStore@Nampower@@@ZPAX@hadesmem@@AAPAXABQAP6IHPAVPatchDetourBase@1@IIIPAVCDataStore@Nampower@@@Z$$QAPAX@Z 10009180 f i main.cpp.obj
 0001:00008180       ??$TraceFormatT@DP6AHPADIPBDZZPBDPAV?$PatchDetour@P6IHPAI@ZPAX@hadesmem@@AAPAXABQAP6IHPAVPatchDetourBase@2@PAI@ZPAX@@YAXPBDP6AHPADI0ZZ0$$QAPAV?$PatchDetour@P6IHPAI@ZPAX@hadesmem@@AAPAXABQAP6IHPAVPatchDetourBase@1@PAI@Z$$QAPAX@Z 10009180 f i main.cpp.obj
 0001:00008180       ??$TraceFormatT@DP6AHPADIPBDZZPBDPAV?$PatchDetour@P6IHPAX0IPAPAH1HHHHIPAPAPAPAH@ZPAX@hadesmem@@AAPAXABQAP6IHPAVPatchDetourBase@2@PAX3IPAPAH4HHHHIPAPAPAPAH@ZPAX@@YAXPBDP6AHPADI0ZZ0$$QAPAV?$PatchDetour@P6IHPAX0IPAPAH1HHHHIPAPAPAPAH@ZPAX@hadesmem@@AAPAXABQAP6IHPAVPatchDetourBase@1@PAX6IPAPAH7HHHHIPAPAPAPAH@Z$$QAPAX@Z 10009180 f i main.cpp.obj
 0001:00008180       ??$TraceFormatT@DP6AHPADIPBDZZPBDPAV?$PatchDetour@P6IH_K@ZPAX@hadesmem@@AAPAXABQAP6IHPAVPatchDetourBase@2@_K@ZPAX@@YAXPBDP6AHPADI0ZZ0$$QAPAV?$PatchDetour@P6IH_K@ZPAX@hadesmem@@AAPAXABQAP6IHPAVPatchDetourBase@1@_K@Z$$QAPAX@Z 10009180 f i main.cpp.obj
 0001:00008180       ??$TraceFormatT@DP6AHPADIPBDZZPBDPAV?$PatchDetour@P6IIPAI00@ZPAX@hadesmem@@AAPAXABQAP6IIPAVPatchDetourBase@2@PAI33@ZPAX@@YAXPBDP6AHPADI0ZZ0$$QAPAV?$PatchDetour@P6IIPAI00@ZPAX@hadesmem@@AAPAXABQAP6IIPAVPatchDetourBase@1@PAI66@Z$$QAPAX@Z 10009180 f i main.cpp.obj
 0001:00008180       ??$TraceFormatT@DP6AHPADIPBDZZPBDPAV?$PatchDetour@P6IIPAI@ZPAX@hadesmem@@AAPAXABQAP6IIPAVPatchDetourBase@2@PAI@ZPAX@@YAXPBDP6AHPADI0ZZ0$$QAPAV?$PatchDetour@P6IIPAI@ZPAX@hadesmem@@AAPAXABQAP6IIPAVPatchDetourBase@1@PAI@Z$$QAPAX@Z 10009180 f i main.cpp.obj
 0001:00008180       ??$TraceFormatT@DP6AHPADIPBDZZPBDPAV?$PatchDetour@P6IIPAUCTerrainClickEvent@game@@@ZPAX@hadesmem@@AAPAXABQAP6IIPAVPatchDetourBase@2@PAUCTerrainClickEvent@game@@@ZPAX@@YAXPBDP6AHPADI0ZZ0$$QAPAV?$PatchDetour@P6IIPAUCTerrainClickEvent@game@@@ZPAX@hadesmem@@AAPAXABQAP6IIPAVPatchDetourBase@1@PAUCTerrainClickEvent@game@@@Z$$QAPAX@Z 10009180 f i main.cpp.obj
 0001:00008180       ??$TraceFormatT@DP6AHPADIPBDZZPBDPAV?$PatchDetour@P6IPAHPAI@ZPAX@hadesmem@@AAPAXABQAP6IPAHPAVPatchDetourBase@2@PAI@ZPAX@@YAXPBDP6AHPADI0ZZ0$$QAPAV?$PatchDetour@P6IPAHPAI@ZPAX@hadesmem@@AAPAXABQAP6IPAHPAVPatchDetourBase@1@PAI@Z$$QAPAX@Z 10009180 f i main.cpp.obj
 0001:00008180       ??$TraceFormatT@DP6AHPADIPBDZZPBDPAV?$PatchDetour@P6IXEH@ZPAX@hadesmem@@AAPAXABQAP6IXPAVPatchDetourBase@2@EH@ZPAX@@YAXPBDP6AHPADI0ZZ0$$QAPAV?$PatchDetour@P6IXEH@ZPAX@hadesmem@@AAPAXABQAP6IXPAVPatchDetourBase@1@EH@Z$$QAPAX@Z 10009180 f i main.cpp.obj
 0001:00008180       ??$TraceFormatT@DP6AHPADIPBDZZPBDPAV?$PatchDetour@P6IXHI@ZPAX@hadesmem@@AAPAXABQAP6IXPAVPatchDetourBase@2@HI@ZPAX@@YAXPBDP6AHPADI0ZZ0$$QAPAV?$PatchDetour@P6IXHI@ZPAX@hadesmem@@AAPAXABQAP6IXPAVPatchDetourBase@1@HI@Z$$QAPAX@Z 10009180 f i main.cpp.obj
 0001:00008180       ??$TraceFormatT@DP6AHPADIPBDZZPBDPAV?$PatchDetour@P6IXI@ZPAX@hadesmem@@AAPAXABQAP6IXPAVPatchDetourBase@2@I@ZPAX@@YAXPBDP6AHPADI0ZZ0$$QAPAV?$PatchDetour@P6IXI@ZPAX@hadesmem@@AAPAXABQAP6IXPAVPatchDetourBase@1@I@Z$$QAPAX@Z 10009180 f i main.cpp.obj
 0001:00008180       ??$TraceFormatT@DP6AHPADIPBDZZPBDPAV?$PatchDetour@P6IXIHH@ZPAX@hadesmem@@AAPAXABQAP6IXPAVPatchDetourBase@2@IHH@ZPAX@@YAXPBDP6AHPADI0ZZ0$$QAPAV?$PatchDetour@P6IXIHH@ZPAX@hadesmem@@AAPAXABQAP6IXPAVPatchDetourBase@1@IHH@Z$$QAPAX@Z 10009180 f i main.cpp.obj
 0001:00008180       ??$TraceFormatT@DP6AHPADIPBDZZPBDPAV?$PatchDetour@P6IXIH_K@ZPAX@hadesmem@@AAPAXABQAP6IXPAVPatchDetourBase@2@IH_K@ZPAX@@YAXPBDP6AHPADI0ZZ0$$QAPAV?$PatchDetour@P6IXIH_K@ZPAX@hadesmem@@AAPAXABQAP6IXPAVPatchDetourBase@1@IH_K@Z$$QAPAX@Z 10009180 f i main.cpp.obj
 0001:00008180       ??$TraceFormatT@DP6AHPADIPBDZZPBDPAV?$PatchDetour@P6IXIW4SpellCastResult@game@@HH_N@ZPAX@hadesmem@@AAPAXABQAP6IXPAVPatchDetourBase@2@IW4SpellCastResult@game@@HH_N@ZPAX@@YAXPBDP6AHPADI0ZZ0$$QAPAV?$PatchDetour@P6IXIW4SpellCastResult@game@@HH_N@ZPAX@hadesmem@@AAPAXABQAP6IXPAVPatchDetourBase@1@IW4SpellCastResult@game@@HH_N@Z$$QAPAX@Z 10009180 f i main.cpp.obj
 0001:00008180       ??$TraceFormatT@DP6AHPADIPBDZZPBDPAV?$PatchDetour@P6IXPAI@ZPAX@hadesmem@@AAPAXABQAP6IXPAVPatchDetourBase@2@PAI@ZPAX@@YAXPBDP6AHPADI0ZZ0$$QAPAV?$PatchDetour@P6IXPAI@ZPAX@hadesmem@@AAPAXABQAP6IXPAVPatchDetourBase@1@PAI@Z$$QAPAX@Z 10009180 f i main.cpp.obj
 0001:00008180       ??$TraceFormatT@DP6AHPADIPBDZZPBDPAV?$PatchDetour@P6IXPAIPAXHE@ZPAX@hadesmem@@AAPAXABQAP6IXPAVPatchDetourBase@2@PAIPAXHE@ZPAX@@YAXPBDP6AHPADI0ZZ0$$QAPAV?$PatchDetour@P6IXPAIPAXHE@ZPAX@hadesmem@@AAPAXABQAP6IXPAVPatchDetourBase@1@PAIPAXHE@Z$$QAPAX@Z 10009180 f i main.cpp.obj
 0001:00008180       ??$TraceFormatT@DP6AHPADIPBDZZPBDPAV?$PatchDetour@P6IXPAIPAXHHHH@ZPAX@hadesmem@@AAPAXABQAP6IXPAVPatchDetourBase@2@PAIPAXHHHH@ZPAX@@YAXPBDP6AHPADI0ZZ0$$QAPAV?$PatchDetour@P6IXPAIPAXHHHH@ZPAX@hadesmem@@AAPAXABQAP6IXPAVPatchDetourBase@1@PAIPAXHHHH@Z$$QAPAX@Z 10009180 f i main.cpp.obj
 0001:00008180       ??$TraceFormatT@DP6AHPADIPBDZZPBDPAV?$PatchDetour@P6IXPAIPAXII@ZPAX@hadesmem@@AAPAXABQAP6IXPAVPatchDetourBase@2@PAIPAXII@ZPAX@@YAXPBDP6AHPADI0ZZ0$$QAPAV?$PatchDetour@P6IXPAIPAXII@ZPAX@hadesmem@@AAPAXABQAP6IXPAVPatchDetourBase@1@PAIPAXII@Z$$QAPAX@Z 10009180 f i main.cpp.obj
 0001:00008180       ??$TraceFormatT@DP6AHPADIPBDZZPBDPAV?$PatchDetour@P6IXPAIPAXW4CHAT_COMMAND_ID@game@@PAD@ZPAX@hadesmem@@AAPAXABQAP6IXPAVPatchDetourBase@2@PAIPAXW4CHAT_COMMAND_ID@game@@0@ZPAX@@YAXPBDP6AHPADI0ZZ0$$QAPAV?$PatchDetour@P6IXPAIPAXW4CHAT_COMMAND_ID@game@@PAD@ZPAX@hadesmem@@AAPAXABQAP6IXPAVPatchDetourBase@1@PAIPAXW4CHAT_COMMAND_ID@game@@1@Z$$QAPAX@Z 10009180 f i main.cpp.obj
 0001:00008180       ??$TraceFormatT@DP6AHPADIPBDZZPBDPAV?$PatchDetour@P6IXPAIPA_K@ZPAX@hadesmem@@AAPAXABQAP6IXPAVPatchDetourBase@2@PAIPA_K@ZPAX@@YAXPBDP6AHPADI0ZZ0$$QAPAV?$PatchDetour@P6IXPAIPA_K@ZPAX@hadesmem@@AAPAXABQAP6IXPAVPatchDetourBase@1@PAIPA_K@Z$$QAPAX@Z 10009180 f i main.cpp.obj
 0001:00008180       ??$TraceFormatT@DP6AHPADIPBDZZPBDPAV?$PatchDetour@P6IXPAUSpellCast@game@@D@ZPAX@hadesmem@@AAPAXABQAP6IXPAVPatchDetourBase@2@PAUSpellCast@game@@D@ZPAX@@YAXPBDP6AHPADI0ZZ0$$QAPAV?$PatchDetour@P6IXPAUSpellCast@game@@D@ZPAX@hadesmem@@AAPAXABQAP6IXPAVPatchDetourBase@1@PAUSpellCast@game@@D@Z$$QAPAX@Z 10009180 f i main.cpp.obj
 0001:00008180       ??$TraceFormatT@DP6AHPADIPBDZZPBDPAV?$PatchDetour@P6IXPAX0I@ZPAX@hadesmem@@AAPAXABQAP6IXPAVPatchDetourBase@2@PAX3I@ZPAX@@YAXPBDP6AHPADI0ZZ0$$QAPAV?$PatchDetour@P6IXPAX0I@ZPAX@hadesmem@@AAPAXABQAP6IXPAVPatchDetourBase@1@PAX6I@Z$$QAPAX@Z 10009180 f i main.cpp.obj
 0001:00008180       ??$TraceFormatT@DP6AHPADIPBDZZPBDPAV?$PatchDetour@P6IXPAX0II@ZPAX@hadesmem@@AAPAXABQAP6IXPAVPatchDetourBase@2@PAX3II@ZPAX@@YAXPBDP6AHPADI0ZZ0$$QAPAV?$PatchDetour@P6IXPAX0II@ZPAX@hadesmem@@AAPAXABQAP6IXPAVPatchDetourBase@1@PAX6II@Z$$QAPAX@Z 10009180 f i main.cpp.obj
 0001:00008180       ??$TraceFormatT@DP6AHPADIPBDZZPBDPAV?$PatchDetour@P6IXPAX0PAVCDataStore@Nampower@@@ZPAX@hadesmem@@AAPAXABQAP6IXPAVPatchDetourBase@2@PAX3PAVCDataStore@Nampower@@@ZPAX@@YAXPBDP6AHPADI0ZZ0$$QAPAV?$PatchDetour@P6IXPAX0PAVCDataStore@Nampower@@@ZPAX@hadesmem@@AAPAXABQAP6IXPAVPatchDetourBase@1@PAX6PAVCDataStore@Nampower@@@Z$$QAPAX@Z 10009180 f i main.cpp.obj
 0001:00008180       ??$TraceFormatT@DP6AHPADIPBDZZPBDPAV?$PatchDetour@P6IXPAXHH@ZPAX@hadesmem@@AAPAXABQAP6IXPAVPatchDetourBase@2@PAXHH@ZPAX@@YAXPBDP6AHPADI0ZZ0$$QAPAV?$PatchDetour@P6IXPAXHH@ZPAX@hadesmem@@AAPAXABQAP6IXPAVPatchDetourBase@1@PAXHH@Z$$QAPAX@Z 10009180 f i main.cpp.obj
 0001:00008180       ??$TraceFormatT@DP6AHPADIPBDZZPBDPAV?$PatchDetour@P6IXPA_K0I@ZPAX@hadesmem@@AAPAXABQAP6IXPAVPatchDetourBase@2@PA_K3I@ZPAX@@YAXPBDP6AHPADI0ZZ0$$QAPAV?$PatchDetour@P6IXPA_K0I@ZPAX@hadesmem@@AAPAXABQAP6IXPAVPatchDetourBase@1@PA_K6I@Z$$QAPAX@Z 10009180 f i main.cpp.obj
 0001:00008180       ??$TraceFormatT@DP6AHPADIPBDZZPBDPAV?$PatchDetour@P6IXPA_K0II@ZPAX@hadesmem@@AAPAXABQAP6IXPAVPatchDetourBase@2@PA_K3II@ZPAX@@YAXPBDP6AHPADI0ZZ0$$QAPAV?$PatchDetour@P6IXPA_K0II@ZPAX@hadesmem@@AAPAXABQAP6IXPAVPatchDetourBase@1@PA_K6II@Z$$QAPAX@Z 10009180 f i main.cpp.obj
 0001:00008180       ??$TraceFormatT@DP6AHPADIPBDZZPBDPAV?$PatchDetour@P6IXPA_K0IPAVCDataStore@Nampower@@@ZPAX@hadesmem@@AAPAXABQAP6IXPAVPatchDetourBase@2@PA_K3IPAVCDataStore@Nampower@@@ZPAX@@YAXPBDP6AHPADI0ZZ0$$QAPAV?$PatchDetour@P6IXPA_K0IPAVCDataStore@Nampower@@@ZPAX@hadesmem@@AAPAXABQAP6IXPAVPatchDetourBase@1@PA_K6IPAVCDataStore@Nampower@@@Z$$QAPAX@Z 10009180 f i main.cpp.obj
 0001:00008180       ??$TraceFormatT@DP6AHPADIPBDZZPBDPAV?$PatchDetour@P6IXPA_KI@ZPAX@hadesmem@@AAPAXABQAP6IXPAVPatchDetourBase@2@PA_KI@ZPAX@@YAXPBDP6AHPADI0ZZ0$$QAPAV?$PatchDetour@P6IXPA_KI@ZPAX@hadesmem@@AAPAXABQAP6IXPAVPatchDetourBase@1@PA_KI@Z$$QAPAX@Z 10009180 f i main.cpp.obj
 0001:00008180       ??$TraceFormatT@DP6AHPADIPBDZZPBDPAV?$PatchDetour@P6IXPA_KPBDHHH@ZPAX@hadesmem@@AAPAXABQAP6IXPAVPatchDetourBase@2@PA_K1HHH@ZPAX@@YAXPBDP6AHPADI0ZZ0$$QAPAV?$PatchDetour@P6IXPA_KPBDHHH@ZPAX@hadesmem@@AAPAXABQAP6IXPAVPatchDetourBase@1@PA_K0HHH@Z$$QAPAX@Z 10009180 f i main.cpp.obj
 0001:00008180       ??$TraceFormatT@DP6AHPADIPBDZZPBDPAV?$PatchDetour@P6IXXZPAX@hadesmem@@AAPAXABQAP6IXPAVPatchDetourBase@2@@ZPAX@@YAXPBDP6AHPADI0ZZ0$$QAPAV?$PatchDetour@P6IXXZPAX@hadesmem@@AAPAXABQAP6IXPAVPatchDetourBase@1@@Z$$QAPAX@Z 10009180 f i main.cpp.obj
 0001:00008180       ??$TraceFormatT@DP6AHPADIPBDZZPBDPAV?$PatchDetour@P6IX_K@ZPAX@hadesmem@@AAPAXABQAP6IXPAVPatchDetourBase@2@_K@ZPAX@@YAXPBDP6AHPADI0ZZ0$$QAPAV?$PatchDetour@P6IX_K@ZPAX@hadesmem@@AAPAXABQAP6IXPAVPatchDetourBase@1@_K@Z$$QAPAX@Z 10009180 f i main.cpp.obj
 0001:00008180       ??$TraceFormatT@DP6AHPADIPBDZZPBDPAV?$PatchDetour@P6IX_N0W4SpellCastResult@game@@@ZPAX@hadesmem@@AAPAXABQAP6IXPAVPatchDetourBase@2@_N3W4SpellCastResult@game@@@ZPAX@@YAXPBDP6AHPADI0ZZ0$$QAPAV?$PatchDetour@P6IX_N0W4SpellCastResult@game@@@ZPAX@hadesmem@@AAPAXABQAP6IXPAVPatchDetourBase@1@_N6W4SpellCastResult@game@@@Z$$QAPAX@Z 10009180 f i main.cpp.obj
 0001:00008180       ??$TraceFormatT@DP6AHPADIPBDZZPBDPAV?$PatchDetour@P6I_KPBD@ZPAX@hadesmem@@AAPAXABQAP6I_KPAVPatchDetourBase@2@1@ZPAX@@YAXPBDP6AHPADI0ZZ0$$QAPAV?$PatchDetour@P6I_KPBD@ZPAX@hadesmem@@AAPAXABQAP6I_KPAVPatchDetourBase@1@0@Z$$QAPAX@Z 10009180 f i main.cpp.obj
 0001:00008180       ??$TraceFormatT@DP6AHPADIPBDZZPBDPAV?$PatchDetour@P6I_NPAI0IM@ZPAX@hadesmem@@AAPAXABQAP6I_NPAVPatchDetourBase@2@PAI3IM@ZPAX@@YAXPBDP6AHPADI0ZZ0$$QAPAV?$PatchDetour@P6I_NPAI0IM@ZPAX@hadesmem@@AAPAXABQAP6I_NPAVPatchDetourBase@1@PAI6IM@Z$$QAPAX@Z 10009180 f i main.cpp.obj
 0001:00008180       ??$TraceFormatT@DP6AHPADIPBDZZPBDPAV?$PatchDetour@P6I_NPAIIPAUCGItem_C@game@@_K@ZPAX@hadesmem@@AAPAXABQAP6I_NPAVPatchDetourBase@2@PAIIPAUCGItem_C@game@@_K@ZPAX@@YAXPBDP6AHPADI0ZZ0$$QAPAV?$PatchDetour@P6I_NPAIIPAUCGItem_C@game@@_K@ZPAX@hadesmem@@AAPAXABQAP6I_NPAVPatchDetourBase@1@PAIIPAUCGItem_C@game@@_K@Z$$QAPAX@Z 10009180 f i main.cpp.obj
 0001:00008180       ??$TraceFormatT@DP6AHPADIPBDZZPBDPAV?$PatchDetour@P6I_NPAUEVENT_DATA_KEY@@H@ZPAX@hadesmem@@AAPAXABQAP6I_NPAVPatchDetourBase@2@PAUEVENT_DATA_KEY@@H@ZPAX@@YAXPBDP6AHPADI0ZZ0$$QAPAV?$PatchDetour@P6I_NPAUEVENT_DATA_KEY@@H@ZPAX@hadesmem@@AAPAXABQAP6I_NPAVPatchDetourBase@1@PAUEVENT_DATA_KEY@@H@Z$$QAPAX@Z 10009180 f i main.cpp.obj
 0001:00008180       ??$TraceFormatT@DP6AHPADIPBDZZPBDPAV?$PatchDetour@P6I_NPAUSpellRec@game@@PADHMMMMM@ZPAX@hadesmem@@AAPAXABQAP6I_NPAVPatchDetourBase@2@PAUSpellRec@game@@0HMMMMM@ZPAX@@YAXPBDP6AHPADI0ZZ0$$QAPAV?$PatchDetour@P6I_NPAUSpellRec@game@@PADHMMMMM@ZPAX@hadesmem@@AAPAXABQAP6I_NPAVPatchDetourBase@1@PAUSpellRec@game@@1HMMMMM@Z$$QAPAX@Z 10009180 f i main.cpp.obj
 0001:00008400       ??$_Destroy_range@V?$allocator@V?$unique_ptr@VAllocator@hadesmem@@U?$default_delete@VAllocator@hadesmem@@@std@@@std@@@std@@@std@@YAXPAV?$unique_ptr@VAllocator@hadesmem@@U?$default_delete@VAllocator@hadesmem@@@std@@@0@QAV10@AAV?$allocator@V?$unique_ptr@VAllocator@hadesmem@@U?$default_delete@VAllocator@hadesmem@@@std@@@std@@@0@@Z 10009400 f i main.cpp.obj
 0001:00008440       ??$_Destroy_range@V?$allocator@VSuspendedThread@hadesmem@@@std@@@std@@YAXPAVSuspendedThread@hadesmem@@QAV12@AAV?$allocator@VSuspendedThread@hadesmem@@@0@@Z 10009440 f i main.cpp.obj
 0001:000084b0       ??$_Emplace_reallocate@K@?$vector@VSuspendedThread@hadesmem@@V?$allocator@VSuspendedThread@hadesmem@@@std@@@std@@AAEPAVSuspendedThread@hadesmem@@QAV23@$$QAK@Z 100094b0 f i main.cpp.obj
 0001:000086a0       ??$_Erase_tree@V?$allocator@U?$_Tree_node@IPAX@std@@@std@@@?$_Tree_val@U?$_Tree_simple_types@I@std@@@std@@QAEXAAV?$allocator@U?$_Tree_node@IPAX@std@@@1@PAU?$_Tree_node@IPAX@1@@Z 100096a0 f i spell_scripts.cpp.obj
 0001:000086a0       ??$_Erase_tree@V?$allocator@U?$_Tree_node@KPAX@std@@@std@@@?$_Tree_val@U?$_Tree_simple_types@K@std@@@std@@QAEXAAV?$allocator@U?$_Tree_node@KPAX@std@@@1@PAU?$_Tree_node@KPAX@1@@Z 100096a0 f i main.cpp.obj
 0001:000086e0       ??$_Erase_tree@V?$allocator@U?$_Tree_node@U?$pair@$$CBUtype_info_@exception_detail@boost@@V?$shared_ptr@Verror_info_base@exception_detail@boost@@@3@@std@@PAX@std@@@std@@@?$_Tree_val@U?$_Tree_simple_types@U?$pair@$$CBUtype_info_@exception_detail@boost@@V?$shared_ptr@Verror_info_base@exception_detail@boost@@@3@@std@@@std@@@std@@QAEXAAV?$allocator@U?$_Tree_node@U?$pair@$$CBUtype_info_@exception_detail@boost@@V?$shared_ptr@Verror_info_base@exception_detail@boost@@@3@@std@@PAX@std@@@1@PAU?$_Tree_node@U?$pair@$$CBUtype_info_@exception_detail@boost@@V?$shared_ptr@Verror_info_base@exception_detail@boost@@@3@@std@@PAX@1@@Z 100096e0 f i main.cpp.obj
 0001:00008750       ??$_Find_lower_bound@Utype_info_@exception_detail@boost@@@?$_Tree@V?$_Tmap_traits@Utype_info_@exception_detail@boost@@V?$shared_ptr@Verror_info_base@exception_detail@boost@@@3@U?$less@Utype_info_@exception_detail@boost@@@std@@V?$allocator@U?$pair@$$CBUtype_info_@exception_detail@boost@@V?$shared_ptr@Verror_info_base@exception_detail@boost@@@3@@std@@@6@$0A@@std@@@std@@IBE?AU?$_Tree_find_result@PAU?$_Tree_node@U?$pair@$$CBUtype_info_@exception_detail@boost@@V?$shared_ptr@Verror_info_base@exception_detail@boost@@@3@@std@@PAX@std@@@1@ABUtype_info_@exception_detail@boost@@@Z 10009750 f i main.cpp.obj
 0001:000087f0       ??$_Fput_v3@$0A@@?$num_put@DV?$ostreambuf_iterator@DU?$char_traits@D@std@@@std@@@std@@ABE?AV?$ostreambuf_iterator@DU?$char_traits@D@std@@@1@V21@AAVios_base@1@DPBDI_N@Z 100097f0 f i main.cpp.obj
 0001:00008bd0       ??$_Insert_string@DU?$char_traits@D@std@@I@std@@YAAAV?$basic_ostream@DU?$char_traits@D@std@@@0@AAV10@QBDI@Z 10009bd0 f i main.cpp.obj
 0001:00008e20       ??$_UIntegral_to_buff@DI@std@@YAPADPADI@Z 10009e20 f i main.cpp.obj
 0001:00008e60       ??$_Uninitialized_move@PAVSuspendedThread@hadesmem@@V?$allocator@VSuspendedThread@hadesmem@@@std@@@std@@YAPAVSuspendedThread@hadesmem@@QAV12@0PAV12@AAV?$allocator@VSuspendedThread@hadesmem@@@0@@Z 10009e60 f i main.cpp.obj
 0001:00008eb0       ??$checked_delete@V?$clone_impl@Ubad_alloc_@exception_detail@boost@@@exception_detail@boost@@@boost@@YAXPAV?$clone_impl@Ubad_alloc_@exception_detail@boost@@@exception_detail@0@@Z 10009eb0 f i main.cpp.obj
 0001:00008eb0       ??$checked_delete@V?$clone_impl@Ubad_exception_@exception_detail@boost@@@exception_detail@boost@@@boost@@YAXPAV?$clone_impl@Ubad_exception_@exception_detail@boost@@@exception_detail@0@@Z 10009eb0 f i main.cpp.obj
 0001:00008ec0       ??$checked_delete@V?$error_info@UTagErrorCodeWinLast@hadesmem@@K@boost@@@boost@@YAXPAV?$error_info@UTagErrorCodeWinLast@hadesmem@@K@0@@Z 10009ec0 f i main.cpp.obj
 0001:00008ec0       ??$checked_delete@V?$error_info@UTagErrorString@hadesmem@@V?$basic_string@DU?$char_traits@D@std@@V?$allocator@D@2@@std@@@boost@@@boost@@YAXPAV?$error_info@UTagErrorString@hadesmem@@V?$basic_string@DU?$char_traits@D@std@@V?$allocator@D@2@@std@@@0@@Z 10009ec0 f i main.cpp.obj
 0001:00008ec0       ??$checked_delete@Verror_info_base@exception_detail@boost@@@boost@@YAXPAVerror_info_base@exception_detail@0@@Z 10009ec0 f i main.cpp.obj
 0001:00008ed0       ??$createHook@P6GHPAIPAVCDataStore@Nampower@@@ZP6AHPAVPatchDetourBase@hadesmem@@01@Z@Nampower@@YA?AV?$unique_ptr@V?$PatchDetour@P6GHPAIPAVCDataStore@Nampower@@@ZPAX@hadesmem@@U?$default_delete@V?$PatchDetour@P6GHPAIPAVCDataStore@Nampower@@@ZPAX@hadesmem@@@std@@@std@@ABVProcess@hadesmem@@W4Offsets@@P6AHPAVPatchDetourBase@4@PAIPAVCDataStore@0@@Z@Z 10009ed0 f i main.cpp.obj
 0001:000096e0       ??$createHook@P6GXXZP6AXPAVPatchDetourBase@hadesmem@@@Z@Nampower@@YA?AV?$unique_ptr@V?$PatchDetour@P6GXXZPAX@hadesmem@@U?$default_delete@V?$PatchDetour@P6GXXZPAX@hadesmem@@@std@@@std@@ABVProcess@hadesmem@@W4Offsets@@P6AXPAVPatchDetourBase@4@@Z@Z 1000a6e0 f i main.cpp.obj
 0001:00009ef0       ??$createHook@P6IHIIIPAVCDataStore@Nampower@@@ZP6AHPAVPatchDetourBase@hadesmem@@III0@Z@Nampower@@YA?AV?$unique_ptr@V?$PatchDetour@P6IHIIIPAVCDataStore@Nampower@@@ZPAX@hadesmem@@U?$default_delete@V?$PatchDetour@P6IHIIIPAVCDataStore@Nampower@@@ZPAX@hadesmem@@@std@@@std@@ABVProcess@hadesmem@@W4Offsets@@P6AHPAVPatchDetourBase@4@IIIPAVCDataStore@0@@Z@Z 1000aef0 f i main.cpp.obj
 0001:0000a700       ??$createHook@P6IHPAI@ZP6AHPAVPatchDetourBase@hadesmem@@0@Z@Nampower@@YA?AV?$unique_ptr@V?$PatchDetour@P6IHPAI@ZPAX@hadesmem@@U?$default_delete@V?$PatchDetour@P6IHPAI@ZPAX@hadesmem@@@std@@@std@@ABVProcess@hadesmem@@W4Offsets@@P6AHPAVPatchDetourBase@4@PAI@Z@Z 1000b700 f i main.cpp.obj
 0001:0000af10       ??$createHook@P6IHPAX0IPAPAH1HHHHIPAPAPAPAH@ZP6AHPAVPatchDetourBase@hadesmem@@00I11HHHHI2@Z@Nampower@@YA?AV?$unique_ptr@V?$PatchDetour@P6IHPAX0IPAPAH1HHHHIPAPAPAPAH@ZPAX@hadesmem@@U?$default_delete@V?$PatchDetour@P6IHPAX0IPAPAH1HHHHIPAPAPAPAH@ZPAX@hadesmem@@@std@@@std@@ABVProcess@hadesmem@@W4Offsets@@P6AHPAVPatchDetourBase@4@PAX3IPAPAH4HHHHIPAPAPAPAH@Z@Z 1000bf10 f i main.cpp.obj
 0001:0000b720       ??$createHook@P6IH_K@ZP6AHPAVPatchDetourBase@hadesmem@@0@Z@Nampower@@YA?AV?$unique_ptr@V?$PatchDetour@P6IH_K@ZPAX@hadesmem@@U?$default_delete@V?$PatchDetour@P6IH_K@ZPAX@hadesmem@@@std@@@std@@ABVProcess@hadesmem@@W4Offsets@@P6AHPAVPatchDetourBase@4@_K@Z@Z 1000c720 f i main.cpp.obj
 0001:0000bf30       ??$createHook@P6IIPAI00@ZP6AIPAVPatchDetourBase@hadesmem@@000@Z@Nampower@@YA?AV?$unique_ptr@V?$PatchDetour@P6IIPAI00@ZPAX@hadesmem@@U?$default_delete@V?$PatchDetour@P6IIPAI00@ZPAX@hadesmem@@@std@@@std@@ABVProcess@hadesmem@@W4Offsets@@P6AIPAVPatchDetourBase@4@PAI33@Z@Z 1000cf30 f i main.cpp.obj
 0001:0000c740       ??$createHook@P6IIPAI@ZP6AIPAVPatchDetourBase@hadesmem@@0@Z@Nampower@@YA?AV?$unique_ptr@V?$PatchDetour@P6IIPAI@ZPAX@hadesmem@@U?$default_delete@V?$PatchDetour@P6IIPAI@ZPAX@hadesmem@@@std@@@std@@ABVProcess@hadesmem@@W4Offsets@@P6AIPAVPatchDetourBase@4@PAI@Z@Z 1000d740 f i main.cpp.obj
 0001:0000cf50       ??$createHook@P6IIPAUCTerrainClickEvent@game@@@ZP6AIPAVPatchDetourBase@hadesmem@@0@Z@Nampower@@YA?AV?$unique_ptr@V?$PatchDetour@P6IIPAUCTerrainClickEvent@game@@@ZPAX@hadesmem@@U?$default_delete@V?$PatchDetour@P6IIPAUCTerrainClickEvent@game@@@ZPAX@hadesmem@@@std@@@std@@ABVProcess@hadesmem@@W4Offsets@@P6AIPAVPatchDetourBase@4@PAUCTerrainClickEvent@game@@@Z@Z 1000df50 f i main.cpp.obj
 0001:0000d760       ??$createHook@P6IPAHPAI@ZP6APAHPAVPatchDetourBase@hadesmem@@0@Z@Nampower@@YA?AV?$unique_ptr@V?$PatchDetour@P6IPAHPAI@ZPAX@hadesmem@@U?$default_delete@V?$PatchDetour@P6IPAHPAI@ZPAX@hadesmem@@@std@@@std@@ABVProcess@hadesmem@@W4Offsets@@P6APAHPAVPatchDetourBase@4@PAI@Z@Z 1000e760 f i main.cpp.obj
 0001:0000df70       ??$createHook@P6IXEH@ZP6AXPAVPatchDetourBase@hadesmem@@EH@Z@Nampower@@YA?AV?$unique_ptr@V?$PatchDetour@P6IXEH@ZPAX@hadesmem@@U?$default_delete@V?$PatchDetour@P6IXEH@ZPAX@hadesmem@@@std@@@std@@ABVProcess@hadesmem@@W4Offsets@@P6AXPAVPatchDetourBase@4@EH@Z@Z 1000ef70 f i main.cpp.obj
 0001:0000e780       ??$createHook@P6IXHI@ZP6AXPAVPatchDetourBase@hadesmem@@HI@Z@Nampower@@YA?AV?$unique_ptr@V?$PatchDetour@P6IXHI@ZPAX@hadesmem@@U?$default_delete@V?$PatchDetour@P6IXHI@ZPAX@hadesmem@@@std@@@std@@ABVProcess@hadesmem@@W4Offsets@@P6AXPAVPatchDetourBase@4@HI@Z@Z 1000f780 f i main.cpp.obj
 0001:0000ef90       ??$createHook@P6IXI@ZP6AXPAVPatchDetourBase@hadesmem@@I@Z@Nampower@@YA?AV?$unique_ptr@V?$PatchDetour@P6IXI@ZPAX@hadesmem@@U?$default_delete@V?$PatchDetour@P6IXI@ZPAX@hadesmem@@@std@@@std@@ABVProcess@hadesmem@@W4Offsets@@P6AXPAVPatchDetourBase@4@I@Z@Z 1000ff90 f i main.cpp.obj
 0001:0000f7a0       ??$createHook@P6IXIHH@ZP6AXPAVPatchDetourBase@hadesmem@@IHH@Z@Nampower@@YA?AV?$unique_ptr@V?$PatchDetour@P6IXIHH@ZPAX@hadesmem@@U?$default_delete@V?$PatchDetour@P6IXIHH@ZPAX@hadesmem@@@std@@@std@@ABVProcess@hadesmem@@W4Offsets@@P6AXPAVPatchDetourBase@4@IHH@Z@Z 100107a0 f i main.cpp.obj
 0001:0000ffb0       ??$createHook@P6IXIH_K@ZP6AXPAVPatchDetourBase@hadesmem@@IH0@Z@Nampower@@YA?AV?$unique_ptr@V?$PatchDetour@P6IXIH_K@ZPAX@hadesmem@@U?$default_delete@V?$PatchDetour@P6IXIH_K@ZPAX@hadesmem@@@std@@@std@@ABVProcess@hadesmem@@W4Offsets@@P6AXPAVPatchDetourBase@4@IH_K@Z@Z 10010fb0 f i main.cpp.obj
 0001:000107c0       ??$createHook@P6IXIW4SpellCastResult@game@@HH_N@ZP6AXPAVPatchDetourBase@hadesmem@@I0HH1@Z@Nampower@@YA?AV?$unique_ptr@V?$PatchDetour@P6IXIW4SpellCastResult@game@@HH_N@ZPAX@hadesmem@@U?$default_delete@V?$PatchDetour@P6IXIW4SpellCastResult@game@@HH_N@ZPAX@hadesmem@@@std@@@std@@ABVProcess@hadesmem@@W4Offsets@@P6AXPAVPatchDetourBase@4@IW4SpellCastResult@game@@HH_N@Z@Z 100117c0 f i main.cpp.obj
 0001:00010fd0       ??$createHook@P6IXPAI@ZP6AXPAVPatchDetourBase@hadesmem@@0@Z@Nampower@@YA?AV?$unique_ptr@V?$PatchDetour@P6IXPAI@ZPAX@hadesmem@@U?$default_delete@V?$PatchDetour@P6IXPAI@ZPAX@hadesmem@@@std@@@std@@ABVProcess@hadesmem@@W4Offsets@@P6AXPAVPatchDetourBase@4@PAI@Z@Z 10011fd0 f i main.cpp.obj
 0001:000117e0       ??$createHook@P6IXPAIPAXHE@ZP6AXPAVPatchDetourBase@hadesmem@@01HE@Z@Nampower@@YA?AV?$unique_ptr@V?$PatchDetour@P6IXPAIPAXHE@ZPAX@hadesmem@@U?$default_delete@V?$PatchDetour@P6IXPAIPAXHE@ZPAX@hadesmem@@@std@@@std@@ABVProcess@hadesmem@@W4Offsets@@P6AXPAVPatchDetourBase@4@PAIPAXHE@Z@Z 100127e0 f i main.cpp.obj
 0001:00011ff0       ??$createHook@P6IXPAIPAXHHHH@ZP6AXPAVPatchDetourBase@hadesmem@@01HHHH@Z@Nampower@@YA?AV?$unique_ptr@V?$PatchDetour@P6IXPAIPAXHHHH@ZPAX@hadesmem@@U?$default_delete@V?$PatchDetour@P6IXPAIPAXHHHH@ZPAX@hadesmem@@@std@@@std@@ABVProcess@hadesmem@@W4Offsets@@P6AXPAVPatchDetourBase@4@PAIPAXHHHH@Z@Z 10012ff0 f i main.cpp.obj
 0001:00012800       ??$createHook@P6IXPAIPAXII@ZP6AXPAVPatchDetourBase@hadesmem@@01II@Z@Nampower@@YA?AV?$unique_ptr@V?$PatchDetour@P6IXPAIPAXII@ZPAX@hadesmem@@U?$default_delete@V?$PatchDetour@P6IXPAIPAXII@ZPAX@hadesmem@@@std@@@std@@ABVProcess@hadesmem@@W4Offsets@@P6AXPAVPatchDetourBase@4@PAIPAXII@Z@Z 10013800 f i main.cpp.obj
 0001:00013010       ??$createHook@P6IXPAIPAXW4CHAT_COMMAND_ID@game@@PAD@ZP6AXPAVPatchDetourBase@hadesmem@@0123@Z@Nampower@@YA?AV?$unique_ptr@V?$PatchDetour@P6IXPAIPAXW4CHAT_COMMAND_ID@game@@PAD@ZPAX@hadesmem@@U?$default_delete@V?$PatchDetour@P6IXPAIPAXW4CHAT_COMMAND_ID@game@@PAD@ZPAX@hadesmem@@@std@@@std@@ABVProcess@hadesmem@@W4Offsets@@P6AXPAVPatchDetourBase@4@PAIPAXW4CHAT_COMMAND_ID@game@@PAD@Z@Z 10014010 f i main.cpp.obj
 0001:00013820       ??$createHook@P6IXPAIPA_K@ZP6AXPAVPatchDetourBase@hadesmem@@01@Z@Nampower@@YA?AV?$unique_ptr@V?$PatchDetour@P6IXPAIPA_K@ZPAX@hadesmem@@U?$default_delete@V?$PatchDetour@P6IXPAIPA_K@ZPAX@hadesmem@@@std@@@std@@ABVProcess@hadesmem@@W4Offsets@@P6AXPAVPatchDetourBase@4@PAIPA_K@Z@Z 10014820 f i main.cpp.obj
 0001:00014030       ??$createHook@P6IXPAUSpellCast@game@@D@ZP6AXPAVPatchDetourBase@hadesmem@@0D@Z@Nampower@@YA?AV?$unique_ptr@V?$PatchDetour@P6IXPAUSpellCast@game@@D@ZPAX@hadesmem@@U?$default_delete@V?$PatchDetour@P6IXPAUSpellCast@game@@D@ZPAX@hadesmem@@@std@@@std@@ABVProcess@hadesmem@@W4Offsets@@P6AXPAVPatchDetourBase@4@PAUSpellCast@game@@D@Z@Z 10015030 f i main.cpp.obj
 0001:00014840       ??$createHook@P6IXPAX0I@ZP6AXPAVPatchDetourBase@hadesmem@@00I@Z@Nampower@@YA?AV?$unique_ptr@V?$PatchDetour@P6IXPAX0I@ZPAX@hadesmem@@U?$default_delete@V?$PatchDetour@P6IXPAX0I@ZPAX@hadesmem@@@std@@@std@@ABVProcess@hadesmem@@W4Offsets@@P6AXPAVPatchDetourBase@4@PAX3I@Z@Z 10015840 f i main.cpp.obj
 0001:00015050       ??$createHook@P6IXPAX0II@ZP6AXPAVPatchDetourBase@hadesmem@@00II@Z@Nampower@@YA?AV?$unique_ptr@V?$PatchDetour@P6IXPAX0II@ZPAX@hadesmem@@U?$default_delete@V?$PatchDetour@P6IXPAX0II@ZPAX@hadesmem@@@std@@@std@@ABVProcess@hadesmem@@W4Offsets@@P6AXPAVPatchDetourBase@4@PAX3II@Z@Z 10016050 f i main.cpp.obj
 0001:00015860       ??$createHook@P6IXPAX0PAVCDataStore@Nampower@@@ZP6AXPAVPatchDetourBase@hadesmem@@001@Z@Nampower@@YA?AV?$unique_ptr@V?$PatchDetour@P6IXPAX0PAVCDataStore@Nampower@@@ZPAX@hadesmem@@U?$default_delete@V?$PatchDetour@P6IXPAX0PAVCDataStore@Nampower@@@ZPAX@hadesmem@@@std@@@std@@ABVProcess@hadesmem@@W4Offsets@@P6AXPAVPatchDetourBase@4@PAX3PAVCDataStore@0@@Z@Z 10016860 f i main.cpp.obj
 0001:00016070       ??$createHook@P6IXPAXHH@ZP6AXPAVPatchDetourBase@hadesmem@@0HH@Z@Nampower@@YA?AV?$unique_ptr@V?$PatchDetour@P6IXPAXHH@ZPAX@hadesmem@@U?$default_delete@V?$PatchDetour@P6IXPAXHH@ZPAX@hadesmem@@@std@@@std@@ABVProcess@hadesmem@@W4Offsets@@P6AXPAVPatchDetourBase@4@PAXHH@Z@Z 10017070 f i main.cpp.obj
 0001:00016880       ??$createHook@P6IXPA_K0I@ZP6AXPAVPatchDetourBase@hadesmem@@00I@Z@Nampower@@YA?AV?$unique_ptr@V?$PatchDetour@P6IXPA_K0I@ZPAX@hadesmem@@U?$default_delete@V?$PatchDetour@P6IXPA_K0I@ZPAX@hadesmem@@@std@@@std@@ABVProcess@hadesmem@@W4Offsets@@P6AXPAVPatchDetourBase@4@PA_K3I@Z@Z 10017880 f i main.cpp.obj
 0001:00017090       ??$createHook@P6IXPA_K0II@ZP6AXPAVPatchDetourBase@hadesmem@@00II@Z@Nampower@@YA?AV?$unique_ptr@V?$PatchDetour@P6IXPA_K0II@ZPAX@hadesmem@@U?$default_delete@V?$PatchDetour@P6IXPA_K0II@ZPAX@hadesmem@@@std@@@std@@ABVProcess@hadesmem@@W4Offsets@@P6AXPAVPatchDetourBase@4@PA_K3II@Z@Z 10018090 f i main.cpp.obj
 0001:000178b0       ??$createHook@P6IXPA_K0IPAVCDataStore@Nampower@@@ZP6AXPAVPatchDetourBase@hadesmem@@00I1@Z@Nampower@@YA?AV?$unique_ptr@V?$PatchDetour@P6IXPA_K0IPAVCDataStore@Nampower@@@ZPAX@hadesmem@@U?$default_delete@V?$PatchDetour@P6IXPA_K0IPAVCDataStore@Nampower@@@ZPAX@hadesmem@@@std@@@std@@ABVProcess@hadesmem@@W4Offsets@@P6AXPAVPatchDetourBase@4@PA_K3IPAVCDataStore@0@@Z@Z 100188b0 f i main.cpp.obj
 0001:000180c0       ??$createHook@P6IXPA_KI@ZP6AXPAVPatchDetourBase@hadesmem@@0I@Z@Nampower@@YA?AV?$unique_ptr@V?$PatchDetour@P6IXPA_KI@ZPAX@hadesmem@@U?$default_delete@V?$PatchDetour@P6IXPA_KI@ZPAX@hadesmem@@@std@@@std@@ABVProcess@hadesmem@@W4Offsets@@P6AXPAVPatchDetourBase@4@PA_KI@Z@Z 100190c0 f i main.cpp.obj
 0001:000188d0       ??$createHook@P6IXPA_KPBDHHH@ZP6AXPAVPatchDetourBase@hadesmem@@01HHH@Z@Nampower@@YA?AV?$unique_ptr@V?$PatchDetour@P6IXPA_KPBDHHH@ZPAX@hadesmem@@U?$default_delete@V?$PatchDetour@P6IXPA_KPBDHHH@ZPAX@hadesmem@@@std@@@std@@ABVProcess@hadesmem@@W4Offsets@@P6AXPAVPatchDetourBase@4@PA_KPBDHHH@Z@Z 100198d0 f i main.cpp.obj
 0001:000190e0       ??$createHook@P6IX_K@ZP6AXPAVPatchDetourBase@hadesmem@@0@Z@Nampower@@YA?AV?$unique_ptr@V?$PatchDetour@P6IX_K@ZPAX@hadesmem@@U?$default_delete@V?$PatchDetour@P6IX_K@ZPAX@hadesmem@@@std@@@std@@ABVProcess@hadesmem@@W4Offsets@@P6AXPAVPatchDetourBase@4@_K@Z@Z 1001a0e0 f i main.cpp.obj
 0001:000198f0       ??$createHook@P6IX_N0W4SpellCastResult@game@@@ZP6AXPAVPatchDetourBase@hadesmem@@001@Z@Nampower@@YA?AV?$unique_ptr@V?$PatchDetour@P6IX_N0W4SpellCastResult@game@@@ZPAX@hadesmem@@U?$default_delete@V?$PatchDetour@P6IX_N0W4SpellCastResult@game@@@ZPAX@hadesmem@@@std@@@std@@ABVProcess@hadesmem@@W4Offsets@@P6AXPAVPatchDetourBase@4@_N3W4SpellCastResult@game@@@Z@Z 1001a8f0 f i main.cpp.obj
 0001:0001a100       ??$createHook@P6I_KPBD@ZP6A_KPAVPatchDetourBase@hadesmem@@0@Z@Nampower@@YA?AV?$unique_ptr@V?$PatchDetour@P6I_KPBD@ZPAX@hadesmem@@U?$default_delete@V?$PatchDetour@P6I_KPBD@ZPAX@hadesmem@@@std@@@std@@ABVProcess@hadesmem@@W4Offsets@@P6A_KPAVPatchDetourBase@4@PBD@Z@Z 1001b100 f i main.cpp.obj
 0001:0001a910       ??$createHook@P6I_NPAI0IM@ZP6A_NPAVPatchDetourBase@hadesmem@@00IM@Z@Nampower@@YA?AV?$unique_ptr@V?$PatchDetour@P6I_NPAI0IM@ZPAX@hadesmem@@U?$default_delete@V?$PatchDetour@P6I_NPAI0IM@ZPAX@hadesmem@@@std@@@std@@ABVProcess@hadesmem@@W4Offsets@@P6A_NPAVPatchDetourBase@4@PAI3IM@Z@Z 1001b910 f i main.cpp.obj
 0001:0001b120       ??$createHook@P6I_NPAIIPAUCGItem_C@game@@_K@ZP6A_NPAVPatchDetourBase@hadesmem@@0I12@Z@Nampower@@YA?AV?$unique_ptr@V?$PatchDetour@P6I_NPAIIPAUCGItem_C@game@@_K@ZPAX@hadesmem@@U?$default_delete@V?$PatchDetour@P6I_NPAIIPAUCGItem_C@game@@_K@ZPAX@hadesmem@@@std@@@std@@ABVProcess@hadesmem@@W4Offsets@@P6A_NPAVPatchDetourBase@4@PAIIPAUCGItem_C@game@@_K@Z@Z 1001c120 f i main.cpp.obj
 0001:0001b930       ??$createHook@P6I_NPAUEVENT_DATA_KEY@@H@ZP6A_NPAVPatchDetourBase@hadesmem@@0H@Z@Nampower@@YA?AV?$unique_ptr@V?$PatchDetour@P6I_NPAUEVENT_DATA_KEY@@H@ZPAX@hadesmem@@U?$default_delete@V?$PatchDetour@P6I_NPAUEVENT_DATA_KEY@@H@ZPAX@hadesmem@@@std@@@std@@ABVProcess@hadesmem@@W4Offsets@@P6A_NPAVPatchDetourBase@4@PAUEVENT_DATA_KEY@@H@Z@Z 1001c930 f i main.cpp.obj
 0001:0001c140       ??$createHook@P6I_NPAUSpellRec@game@@PADHMMMMM@ZP6A_NPAVPatchDetourBase@hadesmem@@01HMMMMM@Z@Nampower@@YA?AV?$unique_ptr@V?$PatchDetour@P6I_NPAUSpellRec@game@@PADHMMMMM@ZPAX@hadesmem@@U?$default_delete@V?$PatchDetour@P6I_NPAUSpellRec@game@@PADHMMMMM@ZPAX@hadesmem@@@std@@@std@@ABVProcess@hadesmem@@W4Offsets@@P6A_NPAVPatchDetourBase@4@PAUSpellRec@game@@PADHMMMMM@Z@Z 1001d140 f i main.cpp.obj
 0001:0001c950       ??$current_exception_cast@$$CBVexception@boost@@@boost@@YAPBVexception@0@XZ 1001d950 f i main.cpp.obj
 0001:0001c9d0       ??$current_exception_cast@$$CBVexception@std@@@boost@@YAPBVexception@std@@XZ 1001d9d0 f i main.cpp.obj
 0001:0001ca50       ??$endl@DU?$char_traits@D@std@@@std@@YAAAV?$basic_ostream@DU?$char_traits@D@std@@@0@AAV10@@Z 1001da50 f i main.cpp.obj
 0001:0001cb00       ??$get_static_exception_object@Ubad_alloc_@exception_detail@boost@@@exception_detail@boost@@YA?AVexception_ptr@1@XZ 1001db00 f i main.cpp.obj
 0001:0001ced0       ??$get_static_exception_object@Ubad_exception_@exception_detail@boost@@@exception_detail@boost@@YA?AVexception_ptr@1@XZ 1001ded0 f i main.cpp.obj
 0001:0001d2a0       ??$make_unique@VAllocator@hadesmem@@AAVProcess@2@ABI$0A@@std@@YA?AV?$unique_ptr@VAllocator@hadesmem@@U?$default_delete@VAllocator@hadesmem@@@std@@@0@AAVProcess@hadesmem@@ABI@Z 1001e2a0 f i main.cpp.obj
 0001:0001d320       ??$set@VError@hadesmem@@@?$set_info_rv@V?$error_info@UTagErrorCodeWinLast@hadesmem@@K@boost@@@exception_detail@boost@@SAABVError@hadesmem@@ABV34@$$QAV?$error_info@UTagErrorCodeWinLast@hadesmem@@K@2@@Z 1001e320 f i main.cpp.obj
 0001:0001d480       ??$set@VError@hadesmem@@@?$set_info_rv@V?$error_info@UTagErrorString@hadesmem@@V?$basic_string@DU?$char_traits@D@std@@V?$allocator@D@2@@std@@@boost@@@exception_detail@boost@@SAABVError@hadesmem@@ABV34@$$QAV?$error_info@UTagErrorString@hadesmem@@V?$basic_string@DU?$char_traits@D@std@@V?$allocator@D@2@@std@@@2@@Z 1001e480 f i main.cpp.obj
 0001:0001d620       ??$throw_exception@VError@hadesmem@@@boost@@YAXABVError@hadesmem@@ABUsource_location@0@@Z 1001e620 f i main.cpp.obj
 0001:0001d650       ??$to_string@UTagErrorCodeWinLast@hadesmem@@K@boost@@YA?AV?$basic_string@DU?$char_traits@D@std@@V?$allocator@D@2@@std@@ABV?$error_info@UTagErrorCodeWinLast@hadesmem@@K@0@@Z 1001e650 f i main.cpp.obj
 0001:0001d8d0       ??$to_string@UTagErrorString@hadesmem@@V?$basic_string@DU?$char_traits@D@std@@V?$allocator@D@2@@std@@@boost@@YA?AV?$basic_string@DU?$char_traits@D@std@@V?$allocator@D@2@@std@@ABV?$error_info@UTagErrorString@hadesmem@@V?$basic_string@DU?$char_traits@D@std@@V?$allocator@D@2@@std@@@0@@Z 1001e8d0 f i main.cpp.obj
 0001:0001dc10       ??$to_string_stub@K@boost@@YA?AV?$basic_string@DU?$char_traits@D@std@@V?$allocator@D@2@@std@@ABK@Z 1001ec10 f i main.cpp.obj
 0001:0001dd10       ??$use_facet@V?$num_put@DV?$ostreambuf_iterator@DU?$char_traits@D@std@@@std@@@std@@@std@@YAABV?$num_put@DV?$ostreambuf_iterator@DU?$char_traits@D@std@@@std@@@0@ABVlocale@0@@Z 1001ed10 f i main.cpp.obj
 0001:0001de80       ??$use_facet@V?$numpunct@D@std@@@std@@YAABV?$numpunct@D@0@ABVlocale@0@@Z 1001ee80 f i main.cpp.obj
 0001:0001dfb0       ??$use_facet@V?$time_put@DV?$ostreambuf_iterator@DU?$char_traits@D@std@@@std@@@std@@@std@@YAABV?$time_put@DV?$ostreambuf_iterator@DU?$char_traits@D@std@@@std@@@0@ABVlocale@0@@Z 1001efb0 f i main.cpp.obj
 0001:0001e150       ??0?$PatchDetour@P6GHPAIPAVCDataStore@Nampower@@@ZPAX@hadesmem@@QAE@ABVProcess@1@P6GHPAIPAVCDataStore@Nampower@@@ZABV?$function@$$A6AHPAVPatchDetourBase@hadesmem@@PAIPAVCDataStore@Nampower@@@Z@std@@PAX@Z 1001f150 f i main.cpp.obj
 0001:0001e330       ??0?$PatchDetour@P6GXXZPAX@hadesmem@@QAE@ABVProcess@1@P6GXXZABV?$function@$$A6AXPAVPatchDetourBase@hadesmem@@@Z@std@@PAX@Z 1001f330 f i main.cpp.obj
 0001:0001e510       ??0?$PatchDetour@P6IHIIIPAVCDataStore@Nampower@@@ZPAX@hadesmem@@QAE@ABVProcess@1@P6IHIIIPAVCDataStore@Nampower@@@ZABV?$function@$$A6AHPAVPatchDetourBase@hadesmem@@IIIPAVCDataStore@Nampower@@@Z@std@@PAX@Z 1001f510 f i main.cpp.obj
 0001:0001e6f0       ??0?$PatchDetour@P6IHPAI@ZPAX@hadesmem@@QAE@ABVProcess@1@P6IHPAI@ZABV?$function@$$A6AHPAVPatchDetourBase@hadesmem@@PAI@Z@std@@PAX@Z 1001f6f0 f i main.cpp.obj
 0001:0001e8d0       ??0?$PatchDetour@P6IHPAX0IPAPAH1HHHHIPAPAPAPAH@ZPAX@hadesmem@@QAE@ABVProcess@1@P6IHPAX1IPAPAH2HHHHIPAPAPAPAH@ZABV?$function@$$A6AHPAVPatchDetourBase@hadesmem@@PAX1IPAPAH2HHHHIPAPAPAPAH@Z@std@@1@Z 1001f8d0 f i main.cpp.obj
 0001:0001eab0       ??0?$PatchDetour@P6IH_K@ZPAX@hadesmem@@QAE@ABVProcess@1@P6IH_K@ZABV?$function@$$A6AHPAVPatchDetourBase@hadesmem@@_K@Z@std@@PAX@Z 1001fab0 f i main.cpp.obj
 0001:0001ec90       ??0?$PatchDetour@P6IIPAI00@ZPAX@hadesmem@@QAE@ABVProcess@1@P6IIPAI11@ZABV?$function@$$A6AIPAVPatchDetourBase@hadesmem@@PAI11@Z@std@@PAX@Z 1001fc90 f i main.cpp.obj
 0001:0001ee70       ??0?$PatchDetour@P6IIPAI@ZPAX@hadesmem@@QAE@ABVProcess@1@P6IIPAI@ZABV?$function@$$A6AIPAVPatchDetourBase@hadesmem@@PAI@Z@std@@PAX@Z 1001fe70 f i main.cpp.obj
 0001:0001f050       ??0?$PatchDetour@P6IIPAUCTerrainClickEvent@game@@@ZPAX@hadesmem@@QAE@ABVProcess@1@P6IIPAUCTerrainClickEvent@game@@@ZABV?$function@$$A6AIPAVPatchDetourBase@hadesmem@@PAUCTerrainClickEvent@game@@@Z@std@@PAX@Z 10020050 f i main.cpp.obj
 0001:0001f230       ??0?$PatchDetour@P6IPAHPAI@ZPAX@hadesmem@@QAE@ABVProcess@1@P6IPAHPAI@ZABV?$function@$$A6APAHPAVPatchDetourBase@hadesmem@@PAI@Z@std@@PAX@Z 10020230 f i main.cpp.obj
 0001:0001f410       ??0?$PatchDetour@P6IXEH@ZPAX@hadesmem@@QAE@ABVProcess@1@P6IXEH@ZABV?$function@$$A6AXPAVPatchDetourBase@hadesmem@@EH@Z@std@@PAX@Z 10020410 f i main.cpp.obj
 0001:0001f5f0       ??0?$PatchDetour@P6IXHI@ZPAX@hadesmem@@QAE@ABVProcess@1@P6IXHI@ZABV?$function@$$A6AXPAVPatchDetourBase@hadesmem@@HI@Z@std@@PAX@Z 100205f0 f i main.cpp.obj
 0001:0001f7d0       ??0?$PatchDetour@P6IXI@ZPAX@hadesmem@@QAE@ABVProcess@1@P6IXI@ZABV?$function@$$A6AXPAVPatchDetourBase@hadesmem@@I@Z@std@@PAX@Z 100207d0 f i main.cpp.obj
 0001:0001f9b0       ??0?$PatchDetour@P6IXIHH@ZPAX@hadesmem@@QAE@ABVProcess@1@P6IXIHH@ZABV?$function@$$A6AXPAVPatchDetourBase@hadesmem@@IHH@Z@std@@PAX@Z 100209b0 f i main.cpp.obj
 0001:0001fb90       ??0?$PatchDetour@P6IXIH_K@ZPAX@hadesmem@@QAE@ABVProcess@1@P6IXIH_K@ZABV?$function@$$A6AXPAVPatchDetourBase@hadesmem@@IH_K@Z@std@@PAX@Z 10020b90 f i main.cpp.obj
 0001:0001fd70       ??0?$PatchDetour@P6IXIW4SpellCastResult@game@@HH_N@ZPAX@hadesmem@@QAE@ABVProcess@1@P6IXIW4SpellCastResult@game@@HH_N@ZABV?$function@$$A6AXPAVPatchDetourBase@hadesmem@@IW4SpellCastResult@game@@HH_N@Z@std@@PAX@Z 10020d70 f i main.cpp.obj
 0001:0001ff50       ??0?$PatchDetour@P6IXPAI@ZPAX@hadesmem@@QAE@ABVProcess@1@P6IXPAI@ZABV?$function@$$A6AXPAVPatchDetourBase@hadesmem@@PAI@Z@std@@PAX@Z 10020f50 f i main.cpp.obj
 0001:00020130       ??0?$PatchDetour@P6IXPAIPAXHE@ZPAX@hadesmem@@QAE@ABVProcess@1@P6IXPAIPAXHE@ZABV?$function@$$A6AXPAVPatchDetourBase@hadesmem@@PAIPAXHE@Z@std@@2@Z 10021130 f i main.cpp.obj
 0001:00020310       ??0?$PatchDetour@P6IXPAIPAXHHHH@ZPAX@hadesmem@@QAE@ABVProcess@1@P6IXPAIPAXHHHH@ZABV?$function@$$A6AXPAVPatchDetourBase@hadesmem@@PAIPAXHHHH@Z@std@@2@Z 10021310 f i main.cpp.obj
 0001:000204f0       ??0?$PatchDetour@P6IXPAIPAXII@ZPAX@hadesmem@@QAE@ABVProcess@1@P6IXPAIPAXII@ZABV?$function@$$A6AXPAVPatchDetourBase@hadesmem@@PAIPAXII@Z@std@@2@Z 100214f0 f i main.cpp.obj
 0001:000206d0       ??0?$PatchDetour@P6IXPAIPAXW4CHAT_COMMAND_ID@game@@PAD@ZPAX@hadesmem@@QAE@ABVProcess@1@P6IXPAIPAXW4CHAT_COMMAND_ID@game@@PAD@ZABV?$function@$$A6AXPAVPatchDetourBase@hadesmem@@PAIPAXW4CHAT_COMMAND_ID@game@@PAD@Z@std@@2@Z 100216d0 f i main.cpp.obj
 0001:000208b0       ??0?$PatchDetour@P6IXPAIPA_K@ZPAX@hadesmem@@QAE@ABVProcess@1@P6IXPAIPA_K@ZABV?$function@$$A6AXPAVPatchDetourBase@hadesmem@@PAIPA_K@Z@std@@PAX@Z 100218b0 f i main.cpp.obj
 0001:00020a90       ??0?$PatchDetour@P6IXPAUSpellCast@game@@D@ZPAX@hadesmem@@QAE@ABVProcess@1@P6IXPAUSpellCast@game@@D@ZABV?$function@$$A6AXPAVPatchDetourBase@hadesmem@@PAUSpellCast@game@@D@Z@std@@PAX@Z 10021a90 f i main.cpp.obj
 0001:00020c70       ??0?$PatchDetour@P6IXPAX0I@ZPAX@hadesmem@@QAE@ABVProcess@1@P6IXPAX1I@ZABV?$function@$$A6AXPAVPatchDetourBase@hadesmem@@PAX1I@Z@std@@1@Z 10021c70 f i main.cpp.obj
 0001:00020e60       ??0?$PatchDetour@P6IXPAX0II@ZPAX@hadesmem@@QAE@ABVProcess@1@P6IXPAX1II@ZABV?$function@$$A6AXPAVPatchDetourBase@hadesmem@@PAX1II@Z@std@@1@Z 10021e60 f i main.cpp.obj
 0001:00021040       ??0?$PatchDetour@P6IXPAX0PAVCDataStore@Nampower@@@ZPAX@hadesmem@@QAE@ABVProcess@1@P6IXPAX1PAVCDataStore@Nampower@@@ZABV?$function@$$A6AXPAVPatchDetourBase@hadesmem@@PAX1PAVCDataStore@Nampower@@@Z@std@@1@Z 10022040 f i main.cpp.obj
 0001:00021220       ??0?$PatchDetour@P6IXPAXHH@ZPAX@hadesmem@@QAE@ABVProcess@1@P6IXPAXHH@ZABV?$function@$$A6AXPAVPatchDetourBase@hadesmem@@PAXHH@Z@std@@1@Z 10022220 f i main.cpp.obj
 0001:00021400       ??0?$PatchDetour@P6IXPA_K0I@ZPAX@hadesmem@@QAE@ABVProcess@1@P6IXPA_K1I@ZABV?$function@$$A6AXPAVPatchDetourBase@hadesmem@@PA_K1I@Z@std@@PAX@Z 10022400 f i main.cpp.obj
 0001:000215e0       ??0?$PatchDetour@P6IXPA_K0II@ZPAX@hadesmem@@QAE@ABVProcess@1@P6IXPA_K1II@ZABV?$function@$$A6AXPAVPatchDetourBase@hadesmem@@PA_K1II@Z@std@@PAX@Z 100225e0 f i main.cpp.obj
 0001:000217c0       ??0?$PatchDetour@P6IXPA_K0IPAVCDataStore@Nampower@@@ZPAX@hadesmem@@QAE@ABVProcess@1@P6IXPA_K1IPAVCDataStore@Nampower@@@ZABV?$function@$$A6AXPAVPatchDetourBase@hadesmem@@PA_K1IPAVCDataStore@Nampower@@@Z@std@@PAX@Z 100227c0 f i main.cpp.obj
 0001:000219a0       ??0?$PatchDetour@P6IXPA_KI@ZPAX@hadesmem@@QAE@ABVProcess@1@P6IXPA_KI@ZABV?$function@$$A6AXPAVPatchDetourBase@hadesmem@@PA_KI@Z@std@@PAX@Z 100229a0 f i main.cpp.obj
 0001:00021b80       ??0?$PatchDetour@P6IXPA_KPBDHHH@ZPAX@hadesmem@@QAE@ABVProcess@1@P6IXPA_KPBDHHH@ZABV?$function@$$A6AXPAVPatchDetourBase@hadesmem@@PA_KPBDHHH@Z@std@@PAX@Z 10022b80 f i main.cpp.obj
 0001:00021d60       ??0?$PatchDetour@P6IXXZPAX@hadesmem@@QAE@ABVProcess@1@P6IXXZABV?$function@$$A6AXPAVPatchDetourBase@hadesmem@@@Z@std@@PAX@Z 10022d60 f i main.cpp.obj
 0001:00021f40       ??0?$PatchDetour@P6IX_K@ZPAX@hadesmem@@QAE@ABVProcess@1@P6IX_K@ZABV?$function@$$A6AXPAVPatchDetourBase@hadesmem@@_K@Z@std@@PAX@Z 10022f40 f i main.cpp.obj
 0001:00022120       ??0?$PatchDetour@P6IX_N0W4SpellCastResult@game@@@ZPAX@hadesmem@@QAE@ABVProcess@1@P6IX_N1W4SpellCastResult@game@@@ZABV?$function@$$A6AXPAVPatchDetourBase@hadesmem@@_N1W4SpellCastResult@game@@@Z@std@@PAX@Z 10023120 f i main.cpp.obj
 0001:00022300       ??0?$PatchDetour@P6I_KPBD@ZPAX@hadesmem@@QAE@ABVProcess@1@P6I_KPBD@ZABV?$function@$$A6A_KPAVPatchDetourBase@hadesmem@@PBD@Z@std@@PAX@Z 10023300 f i main.cpp.obj
 0001:000224e0       ??0?$PatchDetour@P6I_NPAI0IM@ZPAX@hadesmem@@QAE@ABVProcess@1@P6I_NPAI1IM@ZABV?$function@$$A6A_NPAVPatchDetourBase@hadesmem@@PAI1IM@Z@std@@PAX@Z 100234e0 f i main.cpp.obj
 0001:000226c0       ??0?$PatchDetour@P6I_NPAIIPAUCGItem_C@game@@_K@ZPAX@hadesmem@@QAE@ABVProcess@1@P6I_NPAIIPAUCGItem_C@game@@_K@ZABV?$function@$$A6A_NPAVPatchDetourBase@hadesmem@@PAIIPAUCGItem_C@game@@_K@Z@std@@PAX@Z 100236c0 f i main.cpp.obj
 0001:000228a0       ??0?$PatchDetour@P6I_NPAUEVENT_DATA_KEY@@H@ZPAX@hadesmem@@QAE@ABVProcess@1@P6I_NPAUEVENT_DATA_KEY@@H@ZABV?$function@$$A6A_NPAVPatchDetourBase@hadesmem@@PAUEVENT_DATA_KEY@@H@Z@std@@PAX@Z 100238a0 f i main.cpp.obj
 0001:00022a80       ??0?$PatchDetour@P6I_NPAUSpellRec@game@@PADHMMMMM@ZPAX@hadesmem@@QAE@ABVProcess@1@P6I_NPAUSpellRec@game@@PADHMMMMM@ZABV?$function@$$A6A_NPAVPatchDetourBase@hadesmem@@PAUSpellRec@game@@PADHMMMMM@Z@std@@PAX@Z 10023a80 f i main.cpp.obj
 0001:00022c60       ??0?$basic_iostream@DU?$char_traits@D@std@@@std@@QAE@PAV?$basic_streambuf@DU?$char_traits@D@std@@@1@@Z 10023c60 f i main.cpp.obj
 0001:00022d40       ??0?$basic_ostringstream@DU?$char_traits@D@std@@V?$allocator@D@2@@std@@QAE@XZ 10023d40 f i main.cpp.obj
 0001:00022e20       ??0?$basic_string@DU?$char_traits@D@std@@V?$allocator@D@2@@std@@QAE@ID@Z 10023e20 f i main.cpp.obj
 0001:00022ed0       ??0?$basic_string@DU?$char_traits@D@std@@V?$allocator@D@2@@std@@QAE@U_String_constructor_concat_tag@1@AAV01@1@Z 10023ed0 f i main.cpp.obj
 0001:00023070       ??0?$clone_impl@Ubad_alloc_@exception_detail@boost@@@exception_detail@boost@@QAE@ABV012@@Z 10024070 f i main.cpp.obj
 0001:00023110       ??0?$clone_impl@Ubad_exception_@exception_detail@boost@@@exception_detail@boost@@QAE@ABV012@@Z 10024110 f i main.cpp.obj
 0001:000231b0       ??0?$error_info@UTagErrorCodeWinLast@hadesmem@@K@boost@@QAE@ABK@Z 100241b0 f i main.cpp.obj
 0001:000231d0       ??0?$error_info@UTagErrorString@hadesmem@@V?$basic_string@DU?$char_traits@D@std@@V?$allocator@D@2@@std@@@boost@@QAE@$$QAV?$basic_string@DU?$char_traits@D@std@@V?$allocator@D@2@@std@@@Z 100241d0 f i main.cpp.obj
 0001:00023220       ??0?$wrapexcept@VError@hadesmem@@@boost@@QAE@ABU01@@Z 10024220 f i main.cpp.obj
 0001:00023330       ??0?$wrapexcept@VError@hadesmem@@@boost@@QAE@ABVError@hadesmem@@ABUsource_location@1@@Z 10024330 f i main.cpp.obj
 0001:000234b0       ??0Allocator@hadesmem@@QAE@ABVProcess@1@KPAX_N@Z 100244b0 f i main.cpp.obj
 0001:000235c0       ??0CastQueue@Nampower@@QAE@H@Z 100245c0 f i main.cpp.obj
 0001:00023690       ??0Error@hadesmem@@QAE@ABV01@@Z 10024690 f i main.cpp.obj
 0001:00023770       ??0Error@hadesmem@@QAE@XZ  10024770 f i main.cpp.obj
 0001:000237e0       ??0Process@hadesmem@@QAE@K@Z 100247e0 f i main.cpp.obj
 0001:000239c0       ??0ProtectGuard@detail@hadesmem@@QAE@ABVProcess@2@ABU_MEMORY_BASIC_INFORMATION@@W4ProtectGuardType@12@@Z 100249c0 f i main.cpp.obj
 0001:00023b30       ??0SuspendedProcess@hadesmem@@QAE@KK@Z 10024b30 f i main.cpp.obj
 0001:00024250       ??0Thread@hadesmem@@QAE@K@Z 10025250 f i main.cpp.obj
 0001:00024390       ??0bad_alloc@std@@QAE@XZ   10025390 f i main.cpp.obj
 0001:000243b0       ??0bad_alloc_@exception_detail@boost@@QAE@ABU012@@Z 100253b0 f i main.cpp.obj
 0001:00024430       ??0bad_exception@std@@QAE@ABV01@@Z 10025430 f i main.cpp.obj
 0001:00024460       ??0bad_exception@std@@QAE@XZ 10025460 f i main.cpp.obj
 0001:00024480       ??0bad_exception_@exception_detail@boost@@QAE@ABU012@@Z 10025480 f i main.cpp.obj
 0001:00024500       ??0clone_base@exception_detail@boost@@QAE@ABV012@@Z 10025500 f i main.cpp.obj
 0001:00024510       ??0error_info_container_impl@exception_detail@boost@@QAE@XZ 10025510 f i main.cpp.obj
 0001:000245b0       ??0exception@boost@@QAE@ABV01@@Z 100255b0 f i main.cpp.obj
 0001:00024600       ??0sentry@?$basic_ostream@DU?$char_traits@D@std@@@std@@QAE@AAV12@@Z 10025600 f i main.cpp.obj
 0001:000246a0       ??0source_location@boost@@QAE@PBDI0I@Z 100256a0 f i main.cpp.obj
 0001:000246c0       ??1?$DetourRefCounter@I@detail@hadesmem@@QAE@XZ 100256c0 f i main.cpp.obj
 0001:000246d0       ??1?$SmartHandleImpl@UHandlePolicy@detail@hadesmem@@@detail@hadesmem@@QAE@XZ 100256d0 f i main.cpp.obj
 0001:000246e0       ??1?$SmartHandleImpl@USnapPolicy@detail@hadesmem@@@detail@hadesmem@@QAE@XZ 100256e0 f i main.cpp.obj
 0001:000246f0       ??1?$ThreadIterator@$$CBVThreadEntry@hadesmem@@@hadesmem@@QAE@XZ 100256f0 f i main.cpp.obj
 0001:000246f0       ??1?$ThreadIterator@VThreadEntry@hadesmem@@@hadesmem@@QAE@XZ 100256f0 f i main.cpp.obj
 0001:00024720       ??1?$_Alloc_construct_ptr@V?$allocator@U?$_Tree_node@IPAX@std@@@std@@@std@@QAE@XZ 10025720 f i spell_scripts.cpp.obj
 0001:00024720       ??1?$_Alloc_construct_ptr@V?$allocator@U?$_Tree_node@KPAX@std@@@std@@@std@@QAE@XZ 10025720 f i main.cpp.obj
 0001:00024740       ??1?$_Alloc_construct_ptr@V?$allocator@U?$_Tree_node@U?$pair@$$CBUtype_info_@exception_detail@boost@@V?$shared_ptr@Verror_info_base@exception_detail@boost@@@3@@std@@PAX@std@@@std@@@std@@QAE@XZ 10025740 f i main.cpp.obj
 0001:00024760       ??1?$_Func_class@HPAVPatchDetourBase@hadesmem@@IIIPAVCDataStore@Nampower@@@std@@QAE@XZ 10025760 f i main.cpp.obj
 0001:00024760       ??1?$_Func_class@HPAVPatchDetourBase@hadesmem@@PAI@std@@QAE@XZ 10025760 f i main.cpp.obj
 0001:00024760       ??1?$_Func_class@HPAVPatchDetourBase@hadesmem@@PAIPAVCDataStore@Nampower@@@std@@QAE@XZ 10025760 f i main.cpp.obj
 0001:00024760       ??1?$_Func_class@HPAVPatchDetourBase@hadesmem@@PAXPAXIPAPAHPAPAHHHHHIPAPAPAPAH@std@@QAE@XZ 10025760 f i main.cpp.obj
 0001:00024760       ??1?$_Func_class@HPAVPatchDetourBase@hadesmem@@_K@std@@QAE@XZ 10025760 f i main.cpp.obj
 0001:00024760       ??1?$_Func_class@IPAVPatchDetourBase@hadesmem@@PAI@std@@QAE@XZ 10025760 f i main.cpp.obj
 0001:00024760       ??1?$_Func_class@IPAVPatchDetourBase@hadesmem@@PAIPAIPAI@std@@QAE@XZ 10025760 f i main.cpp.obj
 0001:00024760       ??1?$_Func_class@IPAVPatchDetourBase@hadesmem@@PAUCTerrainClickEvent@game@@@std@@QAE@XZ 10025760 f i main.cpp.obj
 0001:00024760       ??1?$_Func_class@PAHPAVPatchDetourBase@hadesmem@@PAI@std@@QAE@XZ 10025760 f i main.cpp.obj
 0001:00024760       ??1?$_Func_class@XPAVPatchDetourBase@hadesmem@@@std@@QAE@XZ 10025760 f i main.cpp.obj
 0001:00024760       ??1?$_Func_class@XPAVPatchDetourBase@hadesmem@@EH@std@@QAE@XZ 10025760 f i main.cpp.obj
 0001:00024760       ??1?$_Func_class@XPAVPatchDetourBase@hadesmem@@HI@std@@QAE@XZ 10025760 f i main.cpp.obj
 0001:00024760       ??1?$_Func_class@XPAVPatchDetourBase@hadesmem@@I@std@@QAE@XZ 10025760 f i main.cpp.obj
 0001:00024760       ??1?$_Func_class@XPAVPatchDetourBase@hadesmem@@IHH@std@@QAE@XZ 10025760 f i main.cpp.obj
 0001:00024760       ??1?$_Func_class@XPAVPatchDetourBase@hadesmem@@IH_K@std@@QAE@XZ 10025760 f i main.cpp.obj
 0001:00024760       ??1?$_Func_class@XPAVPatchDetourBase@hadesmem@@IW4SpellCastResult@game@@HH_N@std@@QAE@XZ 10025760 f i main.cpp.obj
 0001:00024760       ??1?$_Func_class@XPAVPatchDetourBase@hadesmem@@PAI@std@@QAE@XZ 10025760 f i main.cpp.obj
 0001:00024760       ??1?$_Func_class@XPAVPatchDetourBase@hadesmem@@PAIPAXHE@std@@QAE@XZ 10025760 f i main.cpp.obj
 0001:00024760       ??1?$_Func_class@XPAVPatchDetourBase@hadesmem@@PAIPAXHHHH@std@@QAE@XZ 10025760 f i main.cpp.obj
 0001:00024760       ??1?$_Func_class@XPAVPatchDetourBase@hadesmem@@PAIPAXII@std@@QAE@XZ 10025760 f i main.cpp.obj
 0001:00024760       ??1?$_Func_class@XPAVPatchDetourBase@hadesmem@@PAIPAXW4CHAT_COMMAND_ID@game@@PAD@std@@QAE@XZ 10025760 f i main.cpp.obj
 0001:00024760       ??1?$_Func_class@XPAVPatchDetourBase@hadesmem@@PAIPA_K@std@@QAE@XZ 10025760 f i main.cpp.obj
 0001:00024760       ??1?$_Func_class@XPAVPatchDetourBase@hadesmem@@PAUSpellCast@game@@D@std@@QAE@XZ 10025760 f i main.cpp.obj
 0001:00024760       ??1?$_Func_class@XPAVPatchDetourBase@hadesmem@@PAXHH@std@@QAE@XZ 10025760 f i main.cpp.obj
 0001:00024760       ??1?$_Func_class@XPAVPatchDetourBase@hadesmem@@PAXPAXI@std@@QAE@XZ 10025760 f i main.cpp.obj
 0001:00024760       ??1?$_Func_class@XPAVPatchDetourBase@hadesmem@@PAXPAXII@std@@QAE@XZ 10025760 f i main.cpp.obj
 0001:00024760       ??1?$_Func_class@XPAVPatchDetourBase@hadesmem@@PAXPAXPAVCDataStore@Nampower@@@std@@QAE@XZ 10025760 f i main.cpp.obj
 0001:00024760       ??1?$_Func_class@XPAVPatchDetourBase@hadesmem@@PA_KI@std@@QAE@XZ 10025760 f i main.cpp.obj
 0001:00024760       ??1?$_Func_class@XPAVPatchDetourBase@hadesmem@@PA_KPA_KI@std@@QAE@XZ 10025760 f i main.cpp.obj
 0001:00024760       ??1?$_Func_class@XPAVPatchDetourBase@hadesmem@@PA_KPA_KII@std@@QAE@XZ 10025760 f i main.cpp.obj
 0001:00024760       ??1?$_Func_class@XPAVPatchDetourBase@hadesmem@@PA_KPA_KIPAVCDataStore@Nampower@@@std@@QAE@XZ 10025760 f i main.cpp.obj
 0001:00024760       ??1?$_Func_class@XPAVPatchDetourBase@hadesmem@@PA_KPBDHHH@std@@QAE@XZ 10025760 f i main.cpp.obj
 0001:00024760       ??1?$_Func_class@XPAVPatchDetourBase@hadesmem@@_K@std@@QAE@XZ 10025760 f i main.cpp.obj
 0001:00024760       ??1?$_Func_class@XPAVPatchDetourBase@hadesmem@@_N_NW4SpellCastResult@game@@@std@@QAE@XZ 10025760 f i main.cpp.obj
 0001:00024760       ??1?$_Func_class@_KPAVPatchDetourBase@hadesmem@@PBD@std@@QAE@XZ 10025760 f i main.cpp.obj
 0001:00024760       ??1?$_Func_class@_NPAVPatchDetourBase@hadesmem@@PAIIPAUCGItem_C@game@@_K@std@@QAE@XZ 10025760 f i main.cpp.obj
 0001:00024760       ??1?$_Func_class@_NPAVPatchDetourBase@hadesmem@@PAIPAIIM@std@@QAE@XZ 10025760 f i main.cpp.obj
 0001:00024760       ??1?$_Func_class@_NPAVPatchDetourBase@hadesmem@@PAUEVENT_DATA_KEY@@H@std@@QAE@XZ 10025760 f i main.cpp.obj
 0001:00024760       ??1?$_Func_class@_NPAVPatchDetourBase@hadesmem@@PAUSpellRec@game@@PADHMMMMM@std@@QAE@XZ 10025760 f i main.cpp.obj
 0001:00024760       ??1?$function@$$A6AHPAVPatchDetourBase@hadesmem@@IIIPAVCDataStore@Nampower@@@Z@std@@QAE@XZ 10025760 f i main.cpp.obj
 0001:00024760       ??1?$function@$$A6AHPAVPatchDetourBase@hadesmem@@PAI@Z@std@@QAE@XZ 10025760 f i main.cpp.obj
 0001:00024760       ??1?$function@$$A6AHPAVPatchDetourBase@hadesmem@@PAIPAVCDataStore@Nampower@@@Z@std@@QAE@XZ 10025760 f i main.cpp.obj
 0001:00024760       ??1?$function@$$A6AHPAVPatchDetourBase@hadesmem@@PAX1IPAPAH2HHHHIPAPAPAPAH@Z@std@@QAE@XZ 10025760 f i main.cpp.obj
 0001:00024760       ??1?$function@$$A6AHPAVPatchDetourBase@hadesmem@@_K@Z@std@@QAE@XZ 10025760 f i main.cpp.obj
 0001:00024760       ??1?$function@$$A6AIPAVPatchDetourBase@hadesmem@@PAI11@Z@std@@QAE@XZ 10025760 f i main.cpp.obj
 0001:00024760       ??1?$function@$$A6AIPAVPatchDetourBase@hadesmem@@PAI@Z@std@@QAE@XZ 10025760 f i main.cpp.obj
 0001:00024760       ??1?$function@$$A6AIPAVPatchDetourBase@hadesmem@@PAUCTerrainClickEvent@game@@@Z@std@@QAE@XZ 10025760 f i main.cpp.obj
 0001:00024760       ??1?$function@$$A6APAHPAVPatchDetourBase@hadesmem@@PAI@Z@std@@QAE@XZ 10025760 f i main.cpp.obj
 0001:00024760       ??1?$function@$$A6AXPAVPatchDetourBase@hadesmem@@@Z@std@@QAE@XZ 10025760 f i main.cpp.obj
 0001:00024760       ??1?$function@$$A6AXPAVPatchDetourBase@hadesmem@@EH@Z@std@@QAE@XZ 10025760 f i main.cpp.obj
 0001:00024760       ??1?$function@$$A6AXPAVPatchDetourBase@hadesmem@@HI@Z@std@@QAE@XZ 10025760 f i main.cpp.obj
 0001:00024760       ??1?$function@$$A6AXPAVPatchDetourBase@hadesmem@@I@Z@std@@QAE@XZ 10025760 f i main.cpp.obj
 0001:00024760       ??1?$function@$$A6AXPAVPatchDetourBase@hadesmem@@IHH@Z@std@@QAE@XZ 10025760 f i main.cpp.obj
 0001:00024760       ??1?$function@$$A6AXPAVPatchDetourBase@hadesmem@@IH_K@Z@std@@QAE@XZ 10025760 f i main.cpp.obj
 0001:00024760       ??1?$function@$$A6AXPAVPatchDetourBase@hadesmem@@IW4SpellCastResult@game@@HH_N@Z@std@@QAE@XZ 10025760 f i main.cpp.obj
 0001:00024760       ??1?$function@$$A6AXPAVPatchDetourBase@hadesmem@@PAI@Z@std@@QAE@XZ 10025760 f i main.cpp.obj
 0001:00024760       ??1?$function@$$A6AXPAVPatchDetourBase@hadesmem@@PAIPAXHE@Z@std@@QAE@XZ 10025760 f i main.cpp.obj
 0001:00024760       ??1?$function@$$A6AXPAVPatchDetourBase@hadesmem@@PAIPAXHHHH@Z@std@@QAE@XZ 10025760 f i main.cpp.obj
 0001:00024760       ??1?$function@$$A6AXPAVPatchDetourBase@hadesmem@@PAIPAXII@Z@std@@QAE@XZ 10025760 f i main.cpp.obj
 0001:00024760       ??1?$function@$$A6AXPAVPatchDetourBase@hadesmem@@PAIPAXW4CHAT_COMMAND_ID@game@@PAD@Z@std@@QAE@XZ 10025760 f i main.cpp.obj
 0001:00024760       ??1?$function@$$A6AXPAVPatchDetourBase@hadesmem@@PAIPA_K@Z@std@@QAE@XZ 10025760 f i main.cpp.obj
 0001:00024760       ??1?$function@$$A6AXPAVPatchDetourBase@hadesmem@@PAUSpellCast@game@@D@Z@std@@QAE@XZ 10025760 f i main.cpp.obj
 0001:00024760       ??1?$function@$$A6AXPAVPatchDetourBase@hadesmem@@PAX1I@Z@std@@QAE@XZ 10025760 f i main.cpp.obj
 0001:00024760       ??1?$function@$$A6AXPAVPatchDetourBase@hadesmem@@PAX1II@Z@std@@QAE@XZ 10025760 f i main.cpp.obj
 0001:00024760       ??1?$function@$$A6AXPAVPatchDetourBase@hadesmem@@PAX1PAVCDataStore@Nampower@@@Z@std@@QAE@XZ 10025760 f i main.cpp.obj
 0001:00024760       ??1?$function@$$A6AXPAVPatchDetourBase@hadesmem@@PAXHH@Z@std@@QAE@XZ 10025760 f i main.cpp.obj
 0001:00024760       ??1?$function@$$A6AXPAVPatchDetourBase@hadesmem@@PA_K1I@Z@std@@QAE@XZ 10025760 f i main.cpp.obj
 0001:00024760       ??1?$function@$$A6AXPAVPatchDetourBase@hadesmem@@PA_K1II@Z@std@@QAE@XZ 10025760 f i main.cpp.obj
 0001:00024760       ??1?$function@$$A6AXPAVPatchDetourBase@hadesmem@@PA_K1IPAVCDataStore@Nampower@@@Z@std@@QAE@XZ 10025760 f i main.cpp.obj
 0001:00024760       ??1?$function@$$A6AXPAVPatchDetourBase@hadesmem@@PA_KI@Z@std@@QAE@XZ 10025760 f i main.cpp.obj
 0001:00024760       ??1?$function@$$A6AXPAVPatchDetourBase@hadesmem@@PA_KPBDHHH@Z@std@@QAE@XZ 10025760 f i main.cpp.obj
 0001:00024760       ??1?$function@$$A6AXPAVPatchDetourBase@hadesmem@@_K@Z@std@@QAE@XZ 10025760 f i main.cpp.obj
 0001:00024760       ??1?$function@$$A6AXPAVPatchDetourBase@hadesmem@@_N1W4SpellCastResult@game@@@Z@std@@QAE@XZ 10025760 f i main.cpp.obj
 0001:00024760       ??1?$function@$$A6A_KPAVPatchDetourBase@hadesmem@@PBD@Z@std@@QAE@XZ 10025760 f i main.cpp.obj
 0001:00024760       ??1?$function@$$A6A_NPAVPatchDetourBase@hadesmem@@PAI1IM@Z@std@@QAE@XZ 10025760 f i main.cpp.obj
 0001:00024760       ??1?$function@$$A6A_NPAVPatchDetourBase@hadesmem@@PAIIPAUCGItem_C@game@@_K@Z@std@@QAE@XZ 10025760 f i main.cpp.obj
 0001:00024760       ??1?$function@$$A6A_NPAVPatchDetourBase@hadesmem@@PAUEVENT_DATA_KEY@@H@Z@std@@QAE@XZ 10025760 f i main.cpp.obj
 0001:00024760       ??1?$function@$$A6A_NPAVPatchDetourBase@hadesmem@@PAUSpellRec@game@@PADHMMMMM@Z@std@@QAE@XZ 10025760 f i main.cpp.obj
 0001:00024790       ??1?$_Tidy_guard@V?$numpunct@D@std@@@std@@QAE@XZ 10025790 f i main.cpp.obj
 0001:000247c0       ??1?$_Tree@V?$_Tset_traits@IU?$less@I@std@@V?$allocator@I@2@$0A@@std@@@std@@QAE@XZ 100257c0 f i spell_scripts.cpp.obj
 0001:000247c0       ??1?$_Tree@V?$_Tset_traits@KU?$less@K@std@@V?$allocator@K@2@$0A@@std@@@std@@QAE@XZ 100257c0 f i main.cpp.obj
 0001:00024800       ??1?$basic_iostream@DU?$char_traits@D@std@@@std@@UAE@XZ 10025800 f i main.cpp.obj
 0001:00024860       ??1?$basic_istream@DU?$char_traits@D@std@@@std@@UAE@XZ 10025860 f i main.cpp.obj
 0001:00024880       ??1?$basic_stringbuf@DU?$char_traits@D@std@@V?$allocator@D@2@@std@@UAE@XZ 10025880 f i main.cpp.obj
 0001:00024990       ??1?$error_info@UTagErrorCodeWinLast@hadesmem@@K@boost@@UAE@XZ 10025990 f i main.cpp.obj
 0001:00024990       ??1error_info_base@exception_detail@boost@@UAE@XZ 10025990 f i main.cpp.obj
 0001:000249a0       ??1?$error_info@UTagErrorString@hadesmem@@V?$basic_string@DU?$char_traits@D@std@@V?$allocator@D@2@@std@@@boost@@UAE@XZ 100259a0 f i main.cpp.obj
 0001:00024a00       ??1?$pair@Utype_info_@exception_detail@boost@@V?$shared_ptr@Verror_info_base@exception_detail@boost@@@3@@std@@QAE@XZ 10025a00 f i main.cpp.obj
 0001:00024a40       ??1?$refcount_ptr@Uerror_info_container@exception_detail@boost@@@exception_detail@boost@@QAE@XZ 10025a40 f i main.cpp.obj
 0001:00024aa0       ??1?$set@IU?$less@I@std@@V?$allocator@I@2@@std@@QAE@XZ 10025aa0 f i spell_scripts.cpp.obj
 0001:00024aa0       ??1?$set@KU?$less@K@std@@V?$allocator@K@2@@std@@QAE@XZ 10025aa0 f i main.cpp.obj
 0001:00024ab0       ??1?$shared_ptr@V?$error_info@UTagErrorCodeWinLast@hadesmem@@K@boost@@@boost@@QAE@XZ 10025ab0 f i main.cpp.obj
 0001:00024ab0       ??1?$shared_ptr@V?$error_info@UTagErrorString@hadesmem@@V?$basic_string@DU?$char_traits@D@std@@V?$allocator@D@2@@std@@@boost@@@boost@@QAE@XZ 10025ab0 f i main.cpp.obj
 0001:00024ab0       ??1?$shared_ptr@Verror_info_base@exception_detail@boost@@@boost@@QAE@XZ 10025ab0 f i main.cpp.obj
 0001:00024af0       ??1?$unique_ptr@V?$PatchDetour@P6GHPAIPAVCDataStore@Nampower@@@ZPAX@hadesmem@@U?$default_delete@V?$PatchDetour@P6GHPAIPAVCDataStore@Nampower@@@ZPAX@hadesmem@@@std@@@std@@QAE@XZ 10025af0 f i main.cpp.obj
 0001:00024af0       ??1?$unique_ptr@V?$PatchDetour@P6GXXZPAX@hadesmem@@U?$default_delete@V?$PatchDetour@P6GXXZPAX@hadesmem@@@std@@@std@@QAE@XZ 10025af0 f i main.cpp.obj
 0001:00024af0       ??1?$unique_ptr@V?$PatchDetour@P6IHIIIPAVCDataStore@Nampower@@@ZPAX@hadesmem@@U?$default_delete@V?$PatchDetour@P6IHIIIPAVCDataStore@Nampower@@@ZPAX@hadesmem@@@std@@@std@@QAE@XZ 10025af0 f i main.cpp.obj
 0001:00024af0       ??1?$unique_ptr@V?$PatchDetour@P6IHPAI@ZPAX@hadesmem@@U?$default_delete@V?$PatchDetour@P6IHPAI@ZPAX@hadesmem@@@std@@@std@@QAE@XZ 10025af0 f i main.cpp.obj
 0001:00024af0       ??1?$unique_ptr@V?$PatchDetour@P6IHPAX0IPAPAH1HHHHIPAPAPAPAH@ZPAX@hadesmem@@U?$default_delete@V?$PatchDetour@P6IHPAX0IPAPAH1HHHHIPAPAPAPAH@ZPAX@hadesmem@@@std@@@std@@QAE@XZ 10025af0 f i main.cpp.obj
 0001:00024af0       ??1?$unique_ptr@V?$PatchDetour@P6IH_K@ZPAX@hadesmem@@U?$default_delete@V?$PatchDetour@P6IH_K@ZPAX@hadesmem@@@std@@@std@@QAE@XZ 10025af0 f i main.cpp.obj
 0001:00024af0       ??1?$unique_ptr@V?$PatchDetour@P6IIPAI00@ZPAX@hadesmem@@U?$default_delete@V?$PatchDetour@P6IIPAI00@ZPAX@hadesmem@@@std@@@std@@QAE@XZ 10025af0 f i main.cpp.obj
 0001:00024af0       ??1?$unique_ptr@V?$PatchDetour@P6IIPAI@ZPAX@hadesmem@@U?$default_delete@V?$PatchDetour@P6IIPAI@ZPAX@hadesmem@@@std@@@std@@QAE@XZ 10025af0 f i main.cpp.obj
 0001:00024af0       ??1?$unique_ptr@V?$PatchDetour@P6IIPAUCTerrainClickEvent@game@@@ZPAX@hadesmem@@U?$default_delete@V?$PatchDetour@P6IIPAUCTerrainClickEvent@game@@@ZPAX@hadesmem@@@std@@@std@@QAE@XZ 10025af0 f i main.cpp.obj
 0001:00024af0       ??1?$unique_ptr@V?$PatchDetour@P6IPAHPAI@ZPAX@hadesmem@@U?$default_delete@V?$PatchDetour@P6IPAHPAI@ZPAX@hadesmem@@@std@@@std@@QAE@XZ 10025af0 f i main.cpp.obj
 0001:00024af0       ??1?$unique_ptr@V?$PatchDetour@P6IXEH@ZPAX@hadesmem@@U?$default_delete@V?$PatchDetour@P6IXEH@ZPAX@hadesmem@@@std@@@std@@QAE@XZ 10025af0 f i main.cpp.obj
 0001:00024af0       ??1?$unique_ptr@V?$PatchDetour@P6IXHI@ZPAX@hadesmem@@U?$default_delete@V?$PatchDetour@P6IXHI@ZPAX@hadesmem@@@std@@@std@@QAE@XZ 10025af0 f i main.cpp.obj
 0001:00024af0       ??1?$unique_ptr@V?$PatchDetour@P6IXI@ZPAX@hadesmem@@U?$default_delete@V?$PatchDetour@P6IXI@ZPAX@hadesmem@@@std@@@std@@QAE@XZ 10025af0 f i main.cpp.obj
 0001:00024af0       ??1?$unique_ptr@V?$PatchDetour@P6IXIHH@ZPAX@hadesmem@@U?$default_delete@V?$PatchDetour@P6IXIHH@ZPAX@hadesmem@@@std@@@std@@QAE@XZ 10025af0 f i main.cpp.obj
 0001:00024af0       ??1?$unique_ptr@V?$PatchDetour@P6IXIH_K@ZPAX@hadesmem@@U?$default_delete@V?$PatchDetour@P6IXIH_K@ZPAX@hadesmem@@@std@@@std@@QAE@XZ 10025af0 f i main.cpp.obj
 0001:00024af0       ??1?$unique_ptr@V?$PatchDetour@P6IXIW4SpellCastResult@game@@HH_N@ZPAX@hadesmem@@U?$default_delete@V?$PatchDetour@P6IXIW4SpellCastResult@game@@HH_N@ZPAX@hadesmem@@@std@@@std@@QAE@XZ 10025af0 f i main.cpp.obj
 0001:00024af0       ??1?$unique_ptr@V?$PatchDetour@P6IXPAI@ZPAX@hadesmem@@U?$default_delete@V?$PatchDetour@P6IXPAI@ZPAX@hadesmem@@@std@@@std@@QAE@XZ 10025af0 f i main.cpp.obj
 0001:00024af0       ??1?$unique_ptr@V?$PatchDetour@P6IXPAIPAXHE@ZPAX@hadesmem@@U?$default_delete@V?$PatchDetour@P6IXPAIPAXHE@ZPAX@hadesmem@@@std@@@std@@QAE@XZ 10025af0 f i main.cpp.obj
 0001:00024af0       ??1?$unique_ptr@V?$PatchDetour@P6IXPAIPAXHHHH@ZPAX@hadesmem@@U?$default_delete@V?$PatchDetour@P6IXPAIPAXHHHH@ZPAX@hadesmem@@@std@@@std@@QAE@XZ 10025af0 f i main.cpp.obj
 0001:00024af0       ??1?$unique_ptr@V?$PatchDetour@P6IXPAIPAXII@ZPAX@hadesmem@@U?$default_delete@V?$PatchDetour@P6IXPAIPAXII@ZPAX@hadesmem@@@std@@@std@@QAE@XZ 10025af0 f i main.cpp.obj
 0001:00024af0       ??1?$unique_ptr@V?$PatchDetour@P6IXPAIPAXW4CHAT_COMMAND_ID@game@@PAD@ZPAX@hadesmem@@U?$default_delete@V?$PatchDetour@P6IXPAIPAXW4CHAT_COMMAND_ID@game@@PAD@ZPAX@hadesmem@@@std@@@std@@QAE@XZ 10025af0 f i main.cpp.obj
 0001:00024af0       ??1?$unique_ptr@V?$PatchDetour@P6IXPAIPA_K@ZPAX@hadesmem@@U?$default_delete@V?$PatchDetour@P6IXPAIPA_K@ZPAX@hadesmem@@@std@@@std@@QAE@XZ 10025af0 f i main.cpp.obj
 0001:00024af0       ??1?$unique_ptr@V?$PatchDetour@P6IXPAUSpellCast@game@@D@ZPAX@hadesmem@@U?$default_delete@V?$PatchDetour@P6IXPAUSpellCast@game@@D@ZPAX@hadesmem@@@std@@@std@@QAE@XZ 10025af0 f i main.cpp.obj
 0001:00024af0       ??1?$unique_ptr@V?$PatchDetour@P6IXPAX0I@ZPAX@hadesmem@@U?$default_delete@V?$PatchDetour@P6IXPAX0I@ZPAX@hadesmem@@@std@@@std@@QAE@XZ 10025af0 f i main.cpp.obj
 0001:00024af0       ??1?$unique_ptr@V?$PatchDetour@P6IXPAX0II@ZPAX@hadesmem@@U?$default_delete@V?$PatchDetour@P6IXPAX0II@ZPAX@hadesmem@@@std@@@std@@QAE@XZ 10025af0 f i main.cpp.obj
 0001:00024af0       ??1?$unique_ptr@V?$PatchDetour@P6IXPAX0PAVCDataStore@Nampower@@@ZPAX@hadesmem@@U?$default_delete@V?$PatchDetour@P6IXPAX0PAVCDataStore@Nampower@@@ZPAX@hadesmem@@@std@@@std@@QAE@XZ 10025af0 f i main.cpp.obj
 0001:00024af0       ??1?$unique_ptr@V?$PatchDetour@P6IXPAXHH@ZPAX@hadesmem@@U?$default_delete@V?$PatchDetour@P6IXPAXHH@ZPAX@hadesmem@@@std@@@std@@QAE@XZ 10025af0 f i main.cpp.obj
 0001:00024af0       ??1?$unique_ptr@V?$PatchDetour@P6IXPA_K0I@ZPAX@hadesmem@@U?$default_delete@V?$PatchDetour@P6IXPA_K0I@ZPAX@hadesmem@@@std@@@std@@QAE@XZ 10025af0 f i main.cpp.obj
 0001:00024af0       ??1?$unique_ptr@V?$PatchDetour@P6IXPA_K0II@ZPAX@hadesmem@@U?$default_delete@V?$PatchDetour@P6IXPA_K0II@ZPAX@hadesmem@@@std@@@std@@QAE@XZ 10025af0 f i main.cpp.obj
 0001:00024af0       ??1?$unique_ptr@V?$PatchDetour@P6IXPA_K0IPAVCDataStore@Nampower@@@ZPAX@hadesmem@@U?$default_delete@V?$PatchDetour@P6IXPA_K0IPAVCDataStore@Nampower@@@ZPAX@hadesmem@@@std@@@std@@QAE@XZ 10025af0 f i main.cpp.obj
 0001:00024af0       ??1?$unique_ptr@V?$PatchDetour@P6IXPA_KI@ZPAX@hadesmem@@U?$default_delete@V?$PatchDetour@P6IXPA_KI@ZPAX@hadesmem@@@std@@@std@@QAE@XZ 10025af0 f i main.cpp.obj
 0001:00024af0       ??1?$unique_ptr@V?$PatchDetour@P6IXPA_KPBDHHH@ZPAX@hadesmem@@U?$default_delete@V?$PatchDetour@P6IXPA_KPBDHHH@ZPAX@hadesmem@@@std@@@std@@QAE@XZ 10025af0 f i main.cpp.obj
 0001:00024af0       ??1?$unique_ptr@V?$PatchDetour@P6IX_K@ZPAX@hadesmem@@U?$default_delete@V?$PatchDetour@P6IX_K@ZPAX@hadesmem@@@std@@@std@@QAE@XZ 10025af0 f i main.cpp.obj
 0001:00024af0       ??1?$unique_ptr@V?$PatchDetour@P6IX_N0W4SpellCastResult@game@@@ZPAX@hadesmem@@U?$default_delete@V?$PatchDetour@P6IX_N0W4SpellCastResult@game@@@ZPAX@hadesmem@@@std@@@std@@QAE@XZ 10025af0 f i main.cpp.obj
 0001:00024af0       ??1?$unique_ptr@V?$PatchDetour@P6I_KPBD@ZPAX@hadesmem@@U?$default_delete@V?$PatchDetour@P6I_KPBD@ZPAX@hadesmem@@@std@@@std@@QAE@XZ 10025af0 f i main.cpp.obj
 0001:00024af0       ??1?$unique_ptr@V?$PatchDetour@P6I_NPAI0IM@ZPAX@hadesmem@@U?$default_delete@V?$PatchDetour@P6I_NPAI0IM@ZPAX@hadesmem@@@std@@@std@@QAE@XZ 10025af0 f i main.cpp.obj
 0001:00024af0       ??1?$unique_ptr@V?$PatchDetour@P6I_NPAIIPAUCGItem_C@game@@_K@ZPAX@hadesmem@@U?$default_delete@V?$PatchDetour@P6I_NPAIIPAUCGItem_C@game@@_K@ZPAX@hadesmem@@@std@@@std@@QAE@XZ 10025af0 f i main.cpp.obj
 0001:00024af0       ??1?$unique_ptr@V?$PatchDetour@P6I_NPAUEVENT_DATA_KEY@@H@ZPAX@hadesmem@@U?$default_delete@V?$PatchDetour@P6I_NPAUEVENT_DATA_KEY@@H@ZPAX@hadesmem@@@std@@@std@@QAE@XZ 10025af0 f i main.cpp.obj
 0001:00024af0       ??1?$unique_ptr@V?$PatchDetour@P6I_NPAUSpellRec@game@@PADHMMMMM@ZPAX@hadesmem@@U?$default_delete@V?$PatchDetour@P6I_NPAUSpellRec@game@@PADHMMMMM@ZPAX@hadesmem@@@std@@@std@@QAE@XZ 10025af0 f i main.cpp.obj
 0001:00024b00       ??1?$unique_ptr@V?$PatchDetourStub@P6GHPAIPAVCDataStore@Nampower@@@Z@detail@hadesmem@@U?$default_delete@V?$PatchDetourStub@P6GHPAIPAVCDataStore@Nampower@@@Z@detail@hadesmem@@@std@@@std@@QAE@XZ 10025b00 f i main.cpp.obj
 0001:00024b00       ??1?$unique_ptr@V?$PatchDetourStub@P6GXXZ@detail@hadesmem@@U?$default_delete@V?$PatchDetourStub@P6GXXZ@detail@hadesmem@@@std@@@std@@QAE@XZ 10025b00 f i main.cpp.obj
 0001:00024b00       ??1?$unique_ptr@V?$PatchDetourStub@P6IHIIIPAVCDataStore@Nampower@@@Z@detail@hadesmem@@U?$default_delete@V?$PatchDetourStub@P6IHIIIPAVCDataStore@Nampower@@@Z@detail@hadesmem@@@std@@@std@@QAE@XZ 10025b00 f i main.cpp.obj
 0001:00024b00       ??1?$unique_ptr@V?$PatchDetourStub@P6IHPAI@Z@detail@hadesmem@@U?$default_delete@V?$PatchDetourStub@P6IHPAI@Z@detail@hadesmem@@@std@@@std@@QAE@XZ 10025b00 f i main.cpp.obj
 0001:00024b00       ??1?$unique_ptr@V?$PatchDetourStub@P6IHPAX0IPAPAH1HHHHIPAPAPAPAH@Z@detail@hadesmem@@U?$default_delete@V?$PatchDetourStub@P6IHPAX0IPAPAH1HHHHIPAPAPAPAH@Z@detail@hadesmem@@@std@@@std@@QAE@XZ 10025b00 f i main.cpp.obj
 0001:00024b00       ??1?$unique_ptr@V?$PatchDetourStub@P6IH_K@Z@detail@hadesmem@@U?$default_delete@V?$PatchDetourStub@P6IH_K@Z@detail@hadesmem@@@std@@@std@@QAE@XZ 10025b00 f i main.cpp.obj
 0001:00024b00       ??1?$unique_ptr@V?$PatchDetourStub@P6IIPAI00@Z@detail@hadesmem@@U?$default_delete@V?$PatchDetourStub@P6IIPAI00@Z@detail@hadesmem@@@std@@@std@@QAE@XZ 10025b00 f i main.cpp.obj
 0001:00024b00       ??1?$unique_ptr@V?$PatchDetourStub@P6IIPAI@Z@detail@hadesmem@@U?$default_delete@V?$PatchDetourStub@P6IIPAI@Z@detail@hadesmem@@@std@@@std@@QAE@XZ 10025b00 f i main.cpp.obj
 0001:00024b00       ??1?$unique_ptr@V?$PatchDetourStub@P6IIPAUCTerrainClickEvent@game@@@Z@detail@hadesmem@@U?$default_delete@V?$PatchDetourStub@P6IIPAUCTerrainClickEvent@game@@@Z@detail@hadesmem@@@std@@@std@@QAE@XZ 10025b00 f i main.cpp.obj
 0001:00024b00       ??1?$unique_ptr@V?$PatchDetourStub@P6IPAHPAI@Z@detail@hadesmem@@U?$default_delete@V?$PatchDetourStub@P6IPAHPAI@Z@detail@hadesmem@@@std@@@std@@QAE@XZ 10025b00 f i main.cpp.obj
 0001:00024b00       ??1?$unique_ptr@V?$PatchDetourStub@P6IXEH@Z@detail@hadesmem@@U?$default_delete@V?$PatchDetourStub@P6IXEH@Z@detail@hadesmem@@@std@@@std@@QAE@XZ 10025b00 f i main.cpp.obj
 0001:00024b00       ??1?$unique_ptr@V?$PatchDetourStub@P6IXHI@Z@detail@hadesmem@@U?$default_delete@V?$PatchDetourStub@P6IXHI@Z@detail@hadesmem@@@std@@@std@@QAE@XZ 10025b00 f i main.cpp.obj
 0001:00024b00       ??1?$unique_ptr@V?$PatchDetourStub@P6IXI@Z@detail@hadesmem@@U?$default_delete@V?$PatchDetourStub@P6IXI@Z@detail@hadesmem@@@std@@@std@@QAE@XZ 10025b00 f i main.cpp.obj
 0001:00024b00       ??1?$unique_ptr@V?$PatchDetourStub@P6IXIHH@Z@detail@hadesmem@@U?$default_delete@V?$PatchDetourStub@P6IXIHH@Z@detail@hadesmem@@@std@@@std@@QAE@XZ 10025b00 f i main.cpp.obj
 0001:00024b00       ??1?$unique_ptr@V?$PatchDetourStub@P6IXIH_K@Z@detail@hadesmem@@U?$default_delete@V?$PatchDetourStub@P6IXIH_K@Z@detail@hadesmem@@@std@@@std@@QAE@XZ 10025b00 f i main.cpp.obj
 0001:00024b00       ??1?$unique_ptr@V?$PatchDetourStub@P6IXIW4SpellCastResult@game@@HH_N@Z@detail@hadesmem@@U?$default_delete@V?$PatchDetourStub@P6IXIW4SpellCastResult@game@@HH_N@Z@detail@hadesmem@@@std@@@std@@QAE@XZ 10025b00 f i main.cpp.obj
 0001:00024b00       ??1?$unique_ptr@V?$PatchDetourStub@P6IXPAI@Z@detail@hadesmem@@U?$default_delete@V?$PatchDetourStub@P6IXPAI@Z@detail@hadesmem@@@std@@@std@@QAE@XZ 10025b00 f i main.cpp.obj
 0001:00024b00       ??1?$unique_ptr@V?$PatchDetourStub@P6IXPAIPAXHE@Z@detail@hadesmem@@U?$default_delete@V?$PatchDetourStub@P6IXPAIPAXHE@Z@detail@hadesmem@@@std@@@std@@QAE@XZ 10025b00 f i main.cpp.obj
 0001:00024b00       ??1?$unique_ptr@V?$PatchDetourStub@P6IXPAIPAXHHHH@Z@detail@hadesmem@@U?$default_delete@V?$PatchDetourStub@P6IXPAIPAXHHHH@Z@detail@hadesmem@@@std@@@std@@QAE@XZ 10025b00 f i main.cpp.obj
 0001:00024b00       ??1?$unique_ptr@V?$PatchDetourStub@P6IXPAIPAXII@Z@detail@hadesmem@@U?$default_delete@V?$PatchDetourStub@P6IXPAIPAXII@Z@detail@hadesmem@@@std@@@std@@QAE@XZ 10025b00 f i main.cpp.obj
 0001:00024b00       ??1?$unique_ptr@V?$PatchDetourStub@P6IXPAIPAXW4CHAT_COMMAND_ID@game@@PAD@Z@detail@hadesmem@@U?$default_delete@V?$PatchDetourStub@P6IXPAIPAXW4CHAT_COMMAND_ID@game@@PAD@Z@detail@hadesmem@@@std@@@std@@QAE@XZ 10025b00 f i main.cpp.obj
 0001:00024b00       ??1?$unique_ptr@V?$PatchDetourStub@P6IXPAIPA_K@Z@detail@hadesmem@@U?$default_delete@V?$PatchDetourStub@P6IXPAIPA_K@Z@detail@hadesmem@@@std@@@std@@QAE@XZ 10025b00 f i main.cpp.obj
 0001:00024b00       ??1?$unique_ptr@V?$PatchDetourStub@P6IXPAUSpellCast@game@@D@Z@detail@hadesmem@@U?$default_delete@V?$PatchDetourStub@P6IXPAUSpellCast@game@@D@Z@detail@hadesmem@@@std@@@std@@QAE@XZ 10025b00 f i main.cpp.obj
 0001:00024b00       ??1?$unique_ptr@V?$PatchDetourStub@P6IXPAX0I@Z@detail@hadesmem@@U?$default_delete@V?$PatchDetourStub@P6IXPAX0I@Z@detail@hadesmem@@@std@@@std@@QAE@XZ 10025b00 f i main.cpp.obj
 0001:00024b00       ??1?$unique_ptr@V?$PatchDetourStub@P6IXPAX0II@Z@detail@hadesmem@@U?$default_delete@V?$PatchDetourStub@P6IXPAX0II@Z@detail@hadesmem@@@std@@@std@@QAE@XZ 10025b00 f i main.cpp.obj
 0001:00024b00       ??1?$unique_ptr@V?$PatchDetourStub@P6IXPAX0PAVCDataStore@Nampower@@@Z@detail@hadesmem@@U?$default_delete@V?$PatchDetourStub@P6IXPAX0PAVCDataStore@Nampower@@@Z@detail@hadesmem@@@std@@@std@@QAE@XZ 10025b00 f i main.cpp.obj
 0001:00024b00       ??1?$unique_ptr@V?$PatchDetourStub@P6IXPAXHH@Z@detail@hadesmem@@U?$default_delete@V?$PatchDetourStub@P6IXPAXHH@Z@detail@hadesmem@@@std@@@std@@QAE@XZ 10025b00 f i main.cpp.obj
 0001:00024b00       ??1?$unique_ptr@V?$PatchDetourStub@P6IXPA_K0I@Z@detail@hadesmem@@U?$default_delete@V?$PatchDetourStub@P6IXPA_K0I@Z@detail@hadesmem@@@std@@@std@@QAE@XZ 10025b00 f i main.cpp.obj
 0001:00024b00       ??1?$unique_ptr@V?$PatchDetourStub@P6IXPA_K0II@Z@detail@hadesmem@@U?$default_delete@V?$PatchDetourStub@P6IXPA_K0II@Z@detail@hadesmem@@@std@@@std@@QAE@XZ 10025b00 f i main.cpp.obj
 0001:00024b00       ??1?$unique_ptr@V?$PatchDetourStub@P6IXPA_K0IPAVCDataStore@Nampower@@@Z@detail@hadesmem@@U?$default_delete@V?$PatchDetourStub@P6IXPA_K0IPAVCDataStore@Nampower@@@Z@detail@hadesmem@@@std@@@std@@QAE@XZ 10025b00 f i main.cpp.obj
 0001:00024b00       ??1?$unique_ptr@V?$PatchDetourStub@P6IXPA_KI@Z@detail@hadesmem@@U?$default_delete@V?$PatchDetourStub@P6IXPA_KI@Z@detail@hadesmem@@@std@@@std@@QAE@XZ 10025b00 f i main.cpp.obj
 0001:00024b00       ??1?$unique_ptr@V?$PatchDetourStub@P6IXPA_KPBDHHH@Z@detail@hadesmem@@U?$default_delete@V?$PatchDetourStub@P6IXPA_KPBDHHH@Z@detail@hadesmem@@@std@@@std@@QAE@XZ 10025b00 f i main.cpp.obj
 0001:00024b00       ??1?$unique_ptr@V?$PatchDetourStub@P6IXXZ@detail@hadesmem@@U?$default_delete@V?$PatchDetourStub@P6IXXZ@detail@hadesmem@@@std@@@std@@QAE@XZ 10025b00 f i main.cpp.obj
 0001:00024b00       ??1?$unique_ptr@V?$PatchDetourStub@P6IX_K@Z@detail@hadesmem@@U?$default_delete@V?$PatchDetourStub@P6IX_K@Z@detail@hadesmem@@@std@@@std@@QAE@XZ 10025b00 f i main.cpp.obj
 0001:00024b00       ??1?$unique_ptr@V?$PatchDetourStub@P6IX_N0W4SpellCastResult@game@@@Z@detail@hadesmem@@U?$default_delete@V?$PatchDetourStub@P6IX_N0W4SpellCastResult@game@@@Z@detail@hadesmem@@@std@@@std@@QAE@XZ 10025b00 f i main.cpp.obj
 0001:00024b00       ??1?$unique_ptr@V?$PatchDetourStub@P6I_KPBD@Z@detail@hadesmem@@U?$default_delete@V?$PatchDetourStub@P6I_KPBD@Z@detail@hadesmem@@@std@@@std@@QAE@XZ 10025b00 f i main.cpp.obj
 0001:00024b00       ??1?$unique_ptr@V?$PatchDetourStub@P6I_NPAI0IM@Z@detail@hadesmem@@U?$default_delete@V?$PatchDetourStub@P6I_NPAI0IM@Z@detail@hadesmem@@@std@@@std@@QAE@XZ 10025b00 f i main.cpp.obj
 0001:00024b00       ??1?$unique_ptr@V?$PatchDetourStub@P6I_NPAIIPAUCGItem_C@game@@_K@Z@detail@hadesmem@@U?$default_delete@V?$PatchDetourStub@P6I_NPAIIPAUCGItem_C@game@@_K@Z@detail@hadesmem@@@std@@@std@@QAE@XZ 10025b00 f i main.cpp.obj
 0001:00024b00       ??1?$unique_ptr@V?$PatchDetourStub@P6I_NPAUEVENT_DATA_KEY@@H@Z@detail@hadesmem@@U?$default_delete@V?$PatchDetourStub@P6I_NPAUEVENT_DATA_KEY@@H@Z@detail@hadesmem@@@std@@@std@@QAE@XZ 10025b00 f i main.cpp.obj
 0001:00024b00       ??1?$unique_ptr@V?$PatchDetourStub@P6I_NPAUSpellRec@game@@PADHMMMMM@Z@detail@hadesmem@@U?$default_delete@V?$PatchDetourStub@P6I_NPAUSpellRec@game@@PADHMMMMM@Z@detail@hadesmem@@@std@@@std@@QAE@XZ 10025b00 f i main.cpp.obj
 0001:00024b20       ??1?$unique_ptr@VAllocator@hadesmem@@U?$default_delete@VAllocator@hadesmem@@@std@@@std@@QAE@XZ 10025b20 f i main.cpp.obj
 0001:00024b40       ??1?$vector@DV?$allocator@D@std@@@std@@QAE@XZ 10025b40 f i main.cpp.obj
 0001:00024b40       ??1?$vector@EV?$allocator@E@std@@@std@@QAE@XZ 10025b40 f i main.cpp.obj
 0001:00024b40       ?_Tidy@?$vector@EV?$allocator@E@std@@@std@@AAEXXZ 10025b40 f i main.cpp.obj
 0001:00024b90       ??1?$vector@V?$unique_ptr@VAllocator@hadesmem@@U?$default_delete@VAllocator@hadesmem@@@std@@@std@@V?$allocator@V?$unique_ptr@VAllocator@hadesmem@@U?$default_delete@VAllocator@hadesmem@@@std@@@std@@@2@@std@@QAE@XZ 10025b90 f i main.cpp.obj
 0001:00024bf0       ??1?$vector@VSuspendedThread@hadesmem@@V?$allocator@VSuspendedThread@hadesmem@@@std@@@std@@QAE@XZ 10025bf0 f i main.cpp.obj
 0001:00024bf0       ??1SuspendedProcess@hadesmem@@QAE@XZ 10025bf0 f i main.cpp.obj
 0001:00024c00       ??1CDataStore@Nampower@@UAE@XZ 10025c00 f i main.cpp.obj
 0001:00024c50       ??1Process@hadesmem@@QAE@XZ 10025c50 f i main.cpp.obj
 0001:00024c60       ??1ProtectGuard@detail@hadesmem@@QAE@XZ 10025c60 f i main.cpp.obj
 0001:00024c70       ??1Thread@hadesmem@@QAE@XZ 10025c70 f i main.cpp.obj
 0001:00024c80       ??1_Init_once_completer@std@@QAE@XZ 10025c80 f i main.cpp.obj
 0001:00024ca0       ??1_Sentry_base@?$basic_ostream@DU?$char_traits@D@std@@@std@@QAE@XZ 10025ca0 f i main.cpp.obj
 0001:00024cf0       ??1bad_alloc_@exception_detail@boost@@UAE@XZ 10025cf0 f i main.cpp.obj
 0001:00024d70       ??1bad_exception_@exception_detail@boost@@UAE@XZ 10025d70 f i main.cpp.obj
 0001:00024df0       ??1clone_base@exception_detail@boost@@UAE@XZ 10025df0 f i main.cpp.obj
 0001:00024e00       ??1deleter@?$wrapexcept@VError@hadesmem@@@boost@@QAE@XZ 10025e00 f i main.cpp.obj
 0001:00024e10       ??1error_info_container@exception_detail@boost@@IAE@XZ 10025e10 f i main.cpp.obj
 0001:00024e20       ??1exception@boost@@MAE@XZ 10025e20 f i main.cpp.obj
 0001:00024e80       ??1sentry@?$basic_ostream@DU?$char_traits@D@std@@@std@@QAE@XZ 10025e80 f i main.cpp.obj
 0001:00024ef0       ??1shared_count@detail@boost@@QAE@XZ 10025ef0 f i main.cpp.obj
 0001:00024f30       ??4?$basic_string@DU?$char_traits@D@std@@V?$allocator@D@2@@std@@QAEAAV01@QBD@Z 10025f30 f i main.cpp.obj
 0001:00024f60       ??4?$function@$$A6AHPAVPatchDetourBase@hadesmem@@IIIPAVCDataStore@Nampower@@@Z@std@@QAEAAV01@$$T@Z 10025f60 f i main.cpp.obj
 0001:00024f60       ??4?$function@$$A6AHPAVPatchDetourBase@hadesmem@@PAI@Z@std@@QAEAAV01@$$T@Z 10025f60 f i main.cpp.obj
 0001:00024f60       ??4?$function@$$A6AHPAVPatchDetourBase@hadesmem@@PAIPAVCDataStore@Nampower@@@Z@std@@QAEAAV01@$$T@Z 10025f60 f i main.cpp.obj
 0001:00024f60       ??4?$function@$$A6AHPAVPatchDetourBase@hadesmem@@PAX1IPAPAH2HHHHIPAPAPAPAH@Z@std@@QAEAAV01@$$T@Z 10025f60 f i main.cpp.obj
 0001:00024f60       ??4?$function@$$A6AHPAVPatchDetourBase@hadesmem@@_K@Z@std@@QAEAAV01@$$T@Z 10025f60 f i main.cpp.obj
 0001:00024f60       ??4?$function@$$A6AIPAVPatchDetourBase@hadesmem@@PAI11@Z@std@@QAEAAV01@$$T@Z 10025f60 f i main.cpp.obj
 0001:00024f60       ??4?$function@$$A6AIPAVPatchDetourBase@hadesmem@@PAI@Z@std@@QAEAAV01@$$T@Z 10025f60 f i main.cpp.obj
 0001:00024f60       ??4?$function@$$A6AIPAVPatchDetourBase@hadesmem@@PAUCTerrainClickEvent@game@@@Z@std@@QAEAAV01@$$T@Z 10025f60 f i main.cpp.obj
 0001:00024f60       ??4?$function@$$A6APAHPAVPatchDetourBase@hadesmem@@PAI@Z@std@@QAEAAV01@$$T@Z 10025f60 f i main.cpp.obj
 0001:00024f60       ??4?$function@$$A6AXPAVPatchDetourBase@hadesmem@@@Z@std@@QAEAAV01@$$T@Z 10025f60 f i main.cpp.obj
 0001:00024f60       ??4?$function@$$A6AXPAVPatchDetourBase@hadesmem@@EH@Z@std@@QAEAAV01@$$T@Z 10025f60 f i main.cpp.obj
 0001:00024f60       ??4?$function@$$A6AXPAVPatchDetourBase@hadesmem@@HI@Z@std@@QAEAAV01@$$T@Z 10025f60 f i main.cpp.obj
 0001:00024f60       ??4?$function@$$A6AXPAVPatchDetourBase@hadesmem@@I@Z@std@@QAEAAV01@$$T@Z 10025f60 f i main.cpp.obj
 0001:00024f60       ??4?$function@$$A6AXPAVPatchDetourBase@hadesmem@@IHH@Z@std@@QAEAAV01@$$T@Z 10025f60 f i main.cpp.obj
 0001:00024f60       ??4?$function@$$A6AXPAVPatchDetourBase@hadesmem@@IH_K@Z@std@@QAEAAV01@$$T@Z 10025f60 f i main.cpp.obj
 0001:00024f60       ??4?$function@$$A6AXPAVPatchDetourBase@hadesmem@@IW4SpellCastResult@game@@HH_N@Z@std@@QAEAAV01@$$T@Z 10025f60 f i main.cpp.obj
 0001:00024f60       ??4?$function@$$A6AXPAVPatchDetourBase@hadesmem@@PAI@Z@std@@QAEAAV01@$$T@Z 10025f60 f i main.cpp.obj
 0001:00024f60       ??4?$function@$$A6AXPAVPatchDetourBase@hadesmem@@PAIPAXHE@Z@std@@QAEAAV01@$$T@Z 10025f60 f i main.cpp.obj
 0001:00024f60       ??4?$function@$$A6AXPAVPatchDetourBase@hadesmem@@PAIPAXHHHH@Z@std@@QAEAAV01@$$T@Z 10025f60 f i main.cpp.obj
 0001:00024f60       ??4?$function@$$A6AXPAVPatchDetourBase@hadesmem@@PAIPAXII@Z@std@@QAEAAV01@$$T@Z 10025f60 f i main.cpp.obj
 0001:00024f60       ??4?$function@$$A6AXPAVPatchDetourBase@hadesmem@@PAIPAXW4CHAT_COMMAND_ID@game@@PAD@Z@std@@QAEAAV01@$$T@Z 10025f60 f i main.cpp.obj
 0001:00024f60       ??4?$function@$$A6AXPAVPatchDetourBase@hadesmem@@PAIPA_K@Z@std@@QAEAAV01@$$T@Z 10025f60 f i main.cpp.obj
 0001:00024f60       ??4?$function@$$A6AXPAVPatchDetourBase@hadesmem@@PAUSpellCast@game@@D@Z@std@@QAEAAV01@$$T@Z 10025f60 f i main.cpp.obj
 0001:00024f60       ??4?$function@$$A6AXPAVPatchDetourBase@hadesmem@@PAX1I@Z@std@@QAEAAV01@$$T@Z 10025f60 f i main.cpp.obj
 0001:00024f60       ??4?$function@$$A6AXPAVPatchDetourBase@hadesmem@@PAX1II@Z@std@@QAEAAV01@$$T@Z 10025f60 f i main.cpp.obj
 0001:00024f60       ??4?$function@$$A6AXPAVPatchDetourBase@hadesmem@@PAX1PAVCDataStore@Nampower@@@Z@std@@QAEAAV01@$$T@Z 10025f60 f i main.cpp.obj
 0001:00024f60       ??4?$function@$$A6AXPAVPatchDetourBase@hadesmem@@PAXHH@Z@std@@QAEAAV01@$$T@Z 10025f60 f i main.cpp.obj
 0001:00024f60       ??4?$function@$$A6AXPAVPatchDetourBase@hadesmem@@PA_K1I@Z@std@@QAEAAV01@$$T@Z 10025f60 f i main.cpp.obj
 0001:00024f60       ??4?$function@$$A6AXPAVPatchDetourBase@hadesmem@@PA_K1II@Z@std@@QAEAAV01@$$T@Z 10025f60 f i main.cpp.obj
 0001:00024f60       ??4?$function@$$A6AXPAVPatchDetourBase@hadesmem@@PA_K1IPAVCDataStore@Nampower@@@Z@std@@QAEAAV01@$$T@Z 10025f60 f i main.cpp.obj
 0001:00024f60       ??4?$function@$$A6AXPAVPatchDetourBase@hadesmem@@PA_KI@Z@std@@QAEAAV01@$$T@Z 10025f60 f i main.cpp.obj
 0001:00024f60       ??4?$function@$$A6AXPAVPatchDetourBase@hadesmem@@PA_KPBDHHH@Z@std@@QAEAAV01@$$T@Z 10025f60 f i main.cpp.obj
 0001:00024f60       ??4?$function@$$A6AXPAVPatchDetourBase@hadesmem@@_K@Z@std@@QAEAAV01@$$T@Z 10025f60 f i main.cpp.obj
 0001:00024f60       ??4?$function@$$A6AXPAVPatchDetourBase@hadesmem@@_N1W4SpellCastResult@game@@@Z@std@@QAEAAV01@$$T@Z 10025f60 f i main.cpp.obj
 0001:00024f60       ??4?$function@$$A6A_KPAVPatchDetourBase@hadesmem@@PBD@Z@std@@QAEAAV01@$$T@Z 10025f60 f i main.cpp.obj
 0001:00024f60       ??4?$function@$$A6A_NPAVPatchDetourBase@hadesmem@@PAI1IM@Z@std@@QAEAAV01@$$T@Z 10025f60 f i main.cpp.obj
 0001:00024f60       ??4?$function@$$A6A_NPAVPatchDetourBase@hadesmem@@PAIIPAUCGItem_C@game@@_K@Z@std@@QAEAAV01@$$T@Z 10025f60 f i main.cpp.obj
 0001:00024f60       ??4?$function@$$A6A_NPAVPatchDetourBase@hadesmem@@PAUEVENT_DATA_KEY@@H@Z@std@@QAEAAV01@$$T@Z 10025f60 f i main.cpp.obj
 0001:00024f60       ??4?$function@$$A6A_NPAVPatchDetourBase@hadesmem@@PAUSpellRec@game@@PADHMMMMM@Z@std@@QAEAAV01@$$T@Z 10025f60 f i main.cpp.obj
 0001:00024f90       ??4?$vector@EV?$allocator@E@std@@@std@@QAEAAV01@$$QAV01@@Z 10025f90 f i main.cpp.obj
 0001:00024fd0       ??6?$basic_ostream@DU?$char_traits@D@std@@@std@@QAEAAV01@H@Z 10025fd0 f i main.cpp.obj
 0001:00025180       ??6?$basic_ostream@DU?$char_traits@D@std@@@std@@QAEAAV01@I@Z 10026180 f i main.cpp.obj
 0001:00025180       ??6?$basic_ostream@DU?$char_traits@D@std@@@std@@QAEAAV01@K@Z 10026180 f i main.cpp.obj
 0001:00025330       ??6?$basic_ostream@DU?$char_traits@D@std@@@std@@QAEAAV01@M@Z 10026330 f i main.cpp.obj
 0001:000254e0       ??6?$basic_ostream@DU?$char_traits@D@std@@@std@@QAEAAV01@P6AAAV01@AAV01@@Z@Z 100264e0 f i main.cpp.obj
 0001:000254f0       ??6?$basic_ostream@DU?$char_traits@D@std@@@std@@QAEAAV01@P6AAAVios_base@1@AAV21@@Z@Z 100264f0 f i main.cpp.obj
 0001:00025510       ??6?$basic_ostream@DU?$char_traits@D@std@@@std@@QAEAAV01@PBX@Z 10026510 f i main.cpp.obj
 0001:000256c0       ??6?$basic_ostream@DU?$char_traits@D@std@@@std@@QAEAAV01@_J@Z 100266c0 f i main.cpp.obj
 0001:00025870       ??6?$basic_ostream@DU?$char_traits@D@std@@@std@@QAEAAV01@_N@Z 10026870 f i main.cpp.obj
 0001:00025a20       ??8type_info@@QBE_NABV0@@Z 10026a20 f i main.cpp.obj
 0001:00025a40       ??E?$_Tree_unchecked_const_iterator@V?$_Tree_val@U?$_Tree_simple_types@K@std@@@std@@U_Iterator_base0@2@@std@@QAEAAV01@XZ 10026a40 f i main.cpp.obj
 0001:00025a40       ??E?$_Tree_unchecked_const_iterator@V?$_Tree_val@U?$_Tree_simple_types@U?$pair@$$CBII@std@@@std@@@std@@U_Iterator_base0@2@@std@@QAEAAV01@XZ 10026a40 f i pet.cpp.obj
 0001:00025ba0       ??R?$less@Utype_info_@exception_detail@boost@@@std@@QBE_NABUtype_info_@exception_detail@boost@@0@Z 10026ba0 f i main.cpp.obj
 0001:00025c10       ??Y?$basic_string@DU?$char_traits@D@std@@V?$allocator@D@2@@std@@QAEAAV01@QBD@Z 10026c10 f i main.cpp.obj
 0001:00025c40       ??_D?$basic_ostringstream@DU?$char_traits@D@std@@V?$allocator@D@2@@std@@QAEXXZ 10026c40 f i main.cpp.obj
 0001:00025cd0       ??_D?$basic_stringstream@DU?$char_traits@D@std@@V?$allocator@D@2@@std@@QAEXXZ 10026cd0 f i main.cpp.obj
 0001:00025da0       ??_D?$clone_impl@Ubad_alloc_@exception_detail@boost@@@exception_detail@boost@@QAEXXZ 10026da0 f i main.cpp.obj
 0001:00025e50       ??_D?$clone_impl@Ubad_exception_@exception_detail@boost@@@exception_detail@boost@@QAEXXZ 10026e50 f i main.cpp.obj
 0001:00025f00       ??_D?$wrapexcept@VError@hadesmem@@@boost@@QAEXXZ 10026f00 f i main.cpp.obj
 0001:00025f80       ??_DError@hadesmem@@QAEXXZ 10026f80 f i main.cpp.obj
 0001:00025ff4       ??_E?$basic_iostream@DU?$char_traits@D@std@@@std@@$4PPPPPPPM@A@AEPAXI@Z 10026ff4 f i main.cpp.obj
 0001:00025ffc       ??_E?$basic_istream@DU?$char_traits@D@std@@@std@@$4PPPPPPPM@A@AEPAXI@Z 10026ffc f i main.cpp.obj
 0001:00026004       ??_E?$basic_ostringstream@DU?$char_traits@D@std@@V?$allocator@D@2@@std@@$4PPPPPPPM@A@AEPAXI@Z 10027004 f i main.cpp.obj
 0001:0002600c       ??_E?$basic_stringstream@DU?$char_traits@D@std@@V?$allocator@D@2@@std@@$4PPPPPPPM@A@AEPAXI@Z 1002700c f i main.cpp.obj
 0001:00026014       ??_E?$clone_impl@Ubad_alloc_@exception_detail@boost@@@exception_detail@boost@@$4PPPPPPPM@CM@AEPAXI@Z 10027014 f i main.cpp.obj
 0001:0002601f       ??_E?$clone_impl@Ubad_alloc_@exception_detail@boost@@@exception_detail@boost@@WBI@AEPAXI@Z 1002701f f i main.cpp.obj
 0001:00026027       ??_E?$clone_impl@Ubad_exception_@exception_detail@boost@@@exception_detail@boost@@$4PPPPPPPM@CM@AEPAXI@Z 10027027 f i main.cpp.obj
 0001:00026032       ??_E?$clone_impl@Ubad_exception_@exception_detail@boost@@@exception_detail@boost@@WBI@AEPAXI@Z 10027032 f i main.cpp.obj
 0001:0002603a       ??_E?$wrapexcept@VError@hadesmem@@@boost@@W7AEPAXI@Z 1002703a f i main.cpp.obj
 0001:00026042       ??_E?$wrapexcept@VError@hadesmem@@@boost@@WBE@AEPAXI@Z 10027042 f i main.cpp.obj
 0001:0002604a       ??_EError@hadesmem@@WM@AEPAXI@Z 1002704a f i main.cpp.obj
 0001:00026052       ??_Ebad_alloc_@exception_detail@boost@@WBI@AEPAXI@Z 10027052 f i main.cpp.obj
 0001:0002605a       ??_Ebad_exception_@exception_detail@boost@@WBI@AEPAXI@Z 1002705a f i main.cpp.obj
 0001:00026070       ??_E?$PatchDetour@P6GHPAIPAVCDataStore@Nampower@@@ZPAX@hadesmem@@UAEPAXI@Z 10027070 f i main.cpp.obj
 0001:00026070       ??_G?$PatchDetour@P6GHPAIPAVCDataStore@Nampower@@@ZPAX@hadesmem@@UAEPAXI@Z 10027070 f i main.cpp.obj
 0001:00026170       ??_E?$PatchDetour@P6GXXZPAX@hadesmem@@UAEPAXI@Z 10027170 f i main.cpp.obj
 0001:00026170       ??_G?$PatchDetour@P6GXXZPAX@hadesmem@@UAEPAXI@Z 10027170 f i main.cpp.obj
 0001:00026270       ??_E?$PatchDetour@P6IHIIIPAVCDataStore@Nampower@@@ZPAX@hadesmem@@UAEPAXI@Z 10027270 f i main.cpp.obj
 0001:00026270       ??_G?$PatchDetour@P6IHIIIPAVCDataStore@Nampower@@@ZPAX@hadesmem@@UAEPAXI@Z 10027270 f i main.cpp.obj
 0001:00026370       ??_E?$PatchDetour@P6IHPAI@ZPAX@hadesmem@@UAEPAXI@Z 10027370 f i main.cpp.obj
 0001:00026370       ??_G?$PatchDetour@P6IHPAI@ZPAX@hadesmem@@UAEPAXI@Z 10027370 f i main.cpp.obj
 0001:00026470       ??_E?$PatchDetour@P6IHPAX0IPAPAH1HHHHIPAPAPAPAH@ZPAX@hadesmem@@UAEPAXI@Z 10027470 f i main.cpp.obj
 0001:00026470       ??_G?$PatchDetour@P6IHPAX0IPAPAH1HHHHIPAPAPAPAH@ZPAX@hadesmem@@UAEPAXI@Z 10027470 f i main.cpp.obj
 0001:00026570       ??_E?$PatchDetour@P6IH_K@ZPAX@hadesmem@@UAEPAXI@Z 10027570 f i main.cpp.obj
 0001:00026570       ??_G?$PatchDetour@P6IH_K@ZPAX@hadesmem@@UAEPAXI@Z 10027570 f i main.cpp.obj
 0001:00026670       ??_E?$PatchDetour@P6IIPAI00@ZPAX@hadesmem@@UAEPAXI@Z 10027670 f i main.cpp.obj
 0001:00026670       ??_G?$PatchDetour@P6IIPAI00@ZPAX@hadesmem@@UAEPAXI@Z 10027670 f i main.cpp.obj
 0001:00026770       ??_E?$PatchDetour@P6IIPAI@ZPAX@hadesmem@@UAEPAXI@Z 10027770 f i main.cpp.obj
 0001:00026770       ??_G?$PatchDetour@P6IIPAI@ZPAX@hadesmem@@UAEPAXI@Z 10027770 f i main.cpp.obj
 0001:00026870       ??_E?$PatchDetour@P6IIPAUCTerrainClickEvent@game@@@ZPAX@hadesmem@@UAEPAXI@Z 10027870 f i main.cpp.obj
 0001:00026870       ??_G?$PatchDetour@P6IIPAUCTerrainClickEvent@game@@@ZPAX@hadesmem@@UAEPAXI@Z 10027870 f i main.cpp.obj
 0001:00026970       ??_E?$PatchDetour@P6IPAHPAI@ZPAX@hadesmem@@UAEPAXI@Z 10027970 f i main.cpp.obj
 0001:00026970       ??_G?$PatchDetour@P6IPAHPAI@ZPAX@hadesmem@@UAEPAXI@Z 10027970 f i main.cpp.obj
 0001:00026a70       ??_E?$PatchDetour@P6IXEH@ZPAX@hadesmem@@UAEPAXI@Z 10027a70 f i main.cpp.obj
 0001:00026a70       ??_G?$PatchDetour@P6IXEH@ZPAX@hadesmem@@UAEPAXI@Z 10027a70 f i main.cpp.obj
 0001:00026b70       ??_E?$PatchDetour@P6IXHI@ZPAX@hadesmem@@UAEPAXI@Z 10027b70 f i main.cpp.obj
 0001:00026b70       ??_G?$PatchDetour@P6IXHI@ZPAX@hadesmem@@UAEPAXI@Z 10027b70 f i main.cpp.obj
 0001:00026c70       ??_E?$PatchDetour@P6IXI@ZPAX@hadesmem@@UAEPAXI@Z 10027c70 f i main.cpp.obj
 0001:00026c70       ??_G?$PatchDetour@P6IXI@ZPAX@hadesmem@@UAEPAXI@Z 10027c70 f i main.cpp.obj
 0001:00026d70       ??_E?$PatchDetour@P6IXIHH@ZPAX@hadesmem@@UAEPAXI@Z 10027d70 f i main.cpp.obj
 0001:00026d70       ??_G?$PatchDetour@P6IXIHH@ZPAX@hadesmem@@UAEPAXI@Z 10027d70 f i main.cpp.obj
 0001:00026e70       ??_E?$PatchDetour@P6IXIH_K@ZPAX@hadesmem@@UAEPAXI@Z 10027e70 f i main.cpp.obj
 0001:00026e70       ??_G?$PatchDetour@P6IXIH_K@ZPAX@hadesmem@@UAEPAXI@Z 10027e70 f i main.cpp.obj
 0001:00026f70       ??_E?$PatchDetour@P6IXIW4SpellCastResult@game@@HH_N@ZPAX@hadesmem@@UAEPAXI@Z 10027f70 f i main.cpp.obj
 0001:00026f70       ??_G?$PatchDetour@P6IXIW4SpellCastResult@game@@HH_N@ZPAX@hadesmem@@UAEPAXI@Z 10027f70 f i main.cpp.obj
 0001:00027070       ??_E?$PatchDetour@P6IXPAI@ZPAX@hadesmem@@UAEPAXI@Z 10028070 f i main.cpp.obj
 0001:00027070       ??_G?$PatchDetour@P6IXPAI@ZPAX@hadesmem@@UAEPAXI@Z 10028070 f i main.cpp.obj
 0001:00027170       ??_E?$PatchDetour@P6IXPAIPAXHE@ZPAX@hadesmem@@UAEPAXI@Z 10028170 f i main.cpp.obj
 0001:00027170       ??_G?$PatchDetour@P6IXPAIPAXHE@ZPAX@hadesmem@@UAEPAXI@Z 10028170 f i main.cpp.obj
 0001:00027270       ??_E?$PatchDetour@P6IXPAIPAXHHHH@ZPAX@hadesmem@@UAEPAXI@Z 10028270 f i main.cpp.obj
 0001:00027270       ??_G?$PatchDetour@P6IXPAIPAXHHHH@ZPAX@hadesmem@@UAEPAXI@Z 10028270 f i main.cpp.obj
 0001:00027370       ??_E?$PatchDetour@P6IXPAIPAXII@ZPAX@hadesmem@@UAEPAXI@Z 10028370 f i main.cpp.obj
 0001:00027370       ??_G?$PatchDetour@P6IXPAIPAXII@ZPAX@hadesmem@@UAEPAXI@Z 10028370 f i main.cpp.obj
 0001:00027470       ??_E?$PatchDetour@P6IXPAIPAXW4CHAT_COMMAND_ID@game@@PAD@ZPAX@hadesmem@@UAEPAXI@Z 10028470 f i main.cpp.obj
 0001:00027470       ??_G?$PatchDetour@P6IXPAIPAXW4CHAT_COMMAND_ID@game@@PAD@ZPAX@hadesmem@@UAEPAXI@Z 10028470 f i main.cpp.obj
 0001:00027570       ??_E?$PatchDetour@P6IXPAIPA_K@ZPAX@hadesmem@@UAEPAXI@Z 10028570 f i main.cpp.obj
 0001:00027570       ??_G?$PatchDetour@P6IXPAIPA_K@ZPAX@hadesmem@@UAEPAXI@Z 10028570 f i main.cpp.obj
 0001:00027670       ??_E?$PatchDetour@P6IXPAUSpellCast@game@@D@ZPAX@hadesmem@@UAEPAXI@Z 10028670 f i main.cpp.obj
 0001:00027670       ??_G?$PatchDetour@P6IXPAUSpellCast@game@@D@ZPAX@hadesmem@@UAEPAXI@Z 10028670 f i main.cpp.obj
 0001:00027770       ??_E?$PatchDetour@P6IXPAX0I@ZPAX@hadesmem@@UAEPAXI@Z 10028770 f i main.cpp.obj
 0001:00027770       ??_G?$PatchDetour@P6IXPAX0I@ZPAX@hadesmem@@UAEPAXI@Z 10028770 f i main.cpp.obj
 0001:00027870       ??_E?$PatchDetour@P6IXPAX0II@ZPAX@hadesmem@@UAEPAXI@Z 10028870 f i main.cpp.obj
 0001:00027870       ??_G?$PatchDetour@P6IXPAX0II@ZPAX@hadesmem@@UAEPAXI@Z 10028870 f i main.cpp.obj
 0001:00027970       ??_E?$PatchDetour@P6IXPAX0PAVCDataStore@Nampower@@@ZPAX@hadesmem@@UAEPAXI@Z 10028970 f i main.cpp.obj
 0001:00027970       ??_G?$PatchDetour@P6IXPAX0PAVCDataStore@Nampower@@@ZPAX@hadesmem@@UAEPAXI@Z 10028970 f i main.cpp.obj
 0001:00027a70       ??_E?$PatchDetour@P6IXPAXHH@ZPAX@hadesmem@@UAEPAXI@Z 10028a70 f i main.cpp.obj
 0001:00027a70       ??_G?$PatchDetour@P6IXPAXHH@ZPAX@hadesmem@@UAEPAXI@Z 10028a70 f i main.cpp.obj
 0001:00027b70       ??_E?$PatchDetour@P6IXPA_K0I@ZPAX@hadesmem@@UAEPAXI@Z 10028b70 f i main.cpp.obj
 0001:00027b70       ??_G?$PatchDetour@P6IXPA_K0I@ZPAX@hadesmem@@UAEPAXI@Z 10028b70 f i main.cpp.obj
 0001:00027c70       ??_E?$PatchDetour@P6IXPA_K0II@ZPAX@hadesmem@@UAEPAXI@Z 10028c70 f i main.cpp.obj
 0001:00027c70       ??_G?$PatchDetour@P6IXPA_K0II@ZPAX@hadesmem@@UAEPAXI@Z 10028c70 f i main.cpp.obj
 0001:00027d70       ??_E?$PatchDetour@P6IXPA_K0IPAVCDataStore@Nampower@@@ZPAX@hadesmem@@UAEPAXI@Z 10028d70 f i main.cpp.obj
 0001:00027d70       ??_G?$PatchDetour@P6IXPA_K0IPAVCDataStore@Nampower@@@ZPAX@hadesmem@@UAEPAXI@Z 10028d70 f i main.cpp.obj
 0001:00027e70       ??_E?$PatchDetour@P6IXPA_KI@ZPAX@hadesmem@@UAEPAXI@Z 10028e70 f i main.cpp.obj
 0001:00027e70       ??_G?$PatchDetour@P6IXPA_KI@ZPAX@hadesmem@@UAEPAXI@Z 10028e70 f i main.cpp.obj
 0001:00027f70       ??_E?$PatchDetour@P6IXPA_KPBDHHH@ZPAX@hadesmem@@UAEPAXI@Z 10028f70 f i main.cpp.obj
 0001:00027f70       ??_G?$PatchDetour@P6IXPA_KPBDHHH@ZPAX@hadesmem@@UAEPAXI@Z 10028f70 f i main.cpp.obj
 0001:00028070       ??_E?$PatchDetour@P6IXXZPAX@hadesmem@@UAEPAXI@Z 10029070 f i main.cpp.obj
 0001:00028070       ??_G?$PatchDetour@P6IXXZPAX@hadesmem@@UAEPAXI@Z 10029070 f i main.cpp.obj
 0001:00028170       ??_E?$PatchDetour@P6IX_K@ZPAX@hadesmem@@UAEPAXI@Z 10029170 f i main.cpp.obj
 0001:00028170       ??_G?$PatchDetour@P6IX_K@ZPAX@hadesmem@@UAEPAXI@Z 10029170 f i main.cpp.obj
 0001:00028270       ??_E?$PatchDetour@P6IX_N0W4SpellCastResult@game@@@ZPAX@hadesmem@@UAEPAXI@Z 10029270 f i main.cpp.obj
 0001:00028270       ??_G?$PatchDetour@P6IX_N0W4SpellCastResult@game@@@ZPAX@hadesmem@@UAEPAXI@Z 10029270 f i main.cpp.obj
 0001:00028370       ??_E?$PatchDetour@P6I_KPBD@ZPAX@hadesmem@@UAEPAXI@Z 10029370 f i main.cpp.obj
 0001:00028370       ??_G?$PatchDetour@P6I_KPBD@ZPAX@hadesmem@@UAEPAXI@Z 10029370 f i main.cpp.obj
 0001:00028470       ??_E?$PatchDetour@P6I_NPAI0IM@ZPAX@hadesmem@@UAEPAXI@Z 10029470 f i main.cpp.obj
 0001:00028470       ??_G?$PatchDetour@P6I_NPAI0IM@ZPAX@hadesmem@@UAEPAXI@Z 10029470 f i main.cpp.obj
 0001:00028570       ??_E?$PatchDetour@P6I_NPAIIPAUCGItem_C@game@@_K@ZPAX@hadesmem@@UAEPAXI@Z 10029570 f i main.cpp.obj
 0001:00028570       ??_G?$PatchDetour@P6I_NPAIIPAUCGItem_C@game@@_K@ZPAX@hadesmem@@UAEPAXI@Z 10029570 f i main.cpp.obj
 0001:00028670       ??_E?$PatchDetour@P6I_NPAUEVENT_DATA_KEY@@H@ZPAX@hadesmem@@UAEPAXI@Z 10029670 f i main.cpp.obj
 0001:00028670       ??_G?$PatchDetour@P6I_NPAUEVENT_DATA_KEY@@H@ZPAX@hadesmem@@UAEPAXI@Z 10029670 f i main.cpp.obj
 0001:00028770       ??_E?$PatchDetour@P6I_NPAUSpellRec@game@@PADHMMMMM@ZPAX@hadesmem@@UAEPAXI@Z 10029770 f i main.cpp.obj
 0001:00028770       ??_G?$PatchDetour@P6I_NPAUSpellRec@game@@PADHMMMMM@ZPAX@hadesmem@@UAEPAXI@Z 10029770 f i main.cpp.obj
 0001:00028870       ??_E?$_Ref_count_obj2@UImpl@?$ThreadIterator@$$CBVThreadEntry@hadesmem@@@hadesmem@@@std@@UAEPAXI@Z 10029870 f i main.cpp.obj
 0001:00028870       ??_G?$_Ref_count_obj2@UImpl@?$ThreadIterator@$$CBVThreadEntry@hadesmem@@@hadesmem@@@std@@UAEPAXI@Z 10029870 f i main.cpp.obj
 0001:000288a0       ??_E?$_Ref_count_obj2@UImpl@?$ThreadIterator@VThreadEntry@hadesmem@@@hadesmem@@@std@@UAEPAXI@Z 100298a0 f i main.cpp.obj
 0001:000288a0       ??_G?$_Ref_count_obj2@UImpl@?$ThreadIterator@VThreadEntry@hadesmem@@@hadesmem@@@std@@UAEPAXI@Z 100298a0 f i main.cpp.obj
 0001:000288d0       ??_E?$basic_iostream@DU?$char_traits@D@std@@@std@@UAEPAXI@Z 100298d0 f i main.cpp.obj
 0001:000288d0       ??_G?$basic_iostream@DU?$char_traits@D@std@@@std@@UAEPAXI@Z 100298d0 f i main.cpp.obj
 0001:00028990       ??_E?$basic_istream@DU?$char_traits@D@std@@@std@@UAEPAXI@Z 10029990 f i main.cpp.obj
 0001:00028990       ??_G?$basic_istream@DU?$char_traits@D@std@@@std@@UAEPAXI@Z 10029990 f i main.cpp.obj
 0001:00028a20       ??_E?$basic_ostringstream@DU?$char_traits@D@std@@V?$allocator@D@2@@std@@UAEPAXI@Z 10029a20 f i main.cpp.obj
 0001:00028a20       ??_G?$basic_ostringstream@DU?$char_traits@D@std@@V?$allocator@D@2@@std@@UAEPAXI@Z 10029a20 f i main.cpp.obj
 0001:00028a50       ??_E?$basic_stringbuf@DU?$char_traits@D@std@@V?$allocator@D@2@@std@@UAEPAXI@Z 10029a50 f i main.cpp.obj
 0001:00028a50       ??_G?$basic_stringbuf@DU?$char_traits@D@std@@V?$allocator@D@2@@std@@UAEPAXI@Z 10029a50 f i main.cpp.obj
 0001:00028a70       ??_E?$basic_stringstream@DU?$char_traits@D@std@@V?$allocator@D@2@@std@@UAEPAXI@Z 10029a70 f i main.cpp.obj
 0001:00028a70       ??_G?$basic_stringstream@DU?$char_traits@D@std@@V?$allocator@D@2@@std@@UAEPAXI@Z 10029a70 f i main.cpp.obj
 0001:00028aa0       ??_E?$clone_impl@Ubad_alloc_@exception_detail@boost@@@exception_detail@boost@@UAEPAXI@Z 10029aa0 f i main.cpp.obj
 0001:00028aa0       ??_G?$clone_impl@Ubad_alloc_@exception_detail@boost@@@exception_detail@boost@@UAEPAXI@Z 10029aa0 f i main.cpp.obj
 0001:00028ac0       ??_E?$clone_impl@Ubad_exception_@exception_detail@boost@@@exception_detail@boost@@UAEPAXI@Z 10029ac0 f i main.cpp.obj
 0001:00028ac0       ??_G?$clone_impl@Ubad_exception_@exception_detail@boost@@@exception_detail@boost@@UAEPAXI@Z 10029ac0 f i main.cpp.obj
 0001:00028ae0       ??_E?$error_info@UTagErrorCodeWinLast@hadesmem@@K@boost@@UAEPAXI@Z 10029ae0 f i main.cpp.obj
 0001:00028ae0       ??_G?$error_info@UTagErrorCodeWinLast@hadesmem@@K@boost@@UAEPAXI@Z 10029ae0 f i main.cpp.obj
 0001:00028b10       ??_E?$error_info@UTagErrorString@hadesmem@@V?$basic_string@DU?$char_traits@D@std@@V?$allocator@D@2@@std@@@boost@@UAEPAXI@Z 10029b10 f i main.cpp.obj
 0001:00028b10       ??_G?$error_info@UTagErrorString@hadesmem@@V?$basic_string@DU?$char_traits@D@std@@V?$allocator@D@2@@std@@@boost@@UAEPAXI@Z 10029b10 f i main.cpp.obj
 0001:00028b30       ??_E?$numpunct@D@std@@MAEPAXI@Z 10029b30 f i main.cpp.obj
 0001:00028b30       ??_G?$numpunct@D@std@@MAEPAXI@Z 10029b30 f i main.cpp.obj
 0001:00028b80       ??_E?$sp_counted_impl_p@V?$clone_impl@Ubad_alloc_@exception_detail@boost@@@exception_detail@boost@@@detail@boost@@UAEPAXI@Z 10029b80 f i main.cpp.obj
 0001:00028b80       ??_E?$sp_counted_impl_p@V?$clone_impl@Ubad_exception_@exception_detail@boost@@@exception_detail@boost@@@detail@boost@@UAEPAXI@Z 10029b80 f i main.cpp.obj
 0001:00028b80       ??_E?$sp_counted_impl_p@V?$error_info@UTagErrorCodeWinLast@hadesmem@@K@boost@@@detail@boost@@UAEPAXI@Z 10029b80 f i main.cpp.obj
 0001:00028b80       ??_E?$sp_counted_impl_p@V?$error_info@UTagErrorString@hadesmem@@V?$basic_string@DU?$char_traits@D@std@@V?$allocator@D@2@@std@@@boost@@@detail@boost@@UAEPAXI@Z 10029b80 f i main.cpp.obj
 0001:00028b80       ??_E?$sp_counted_impl_p@Verror_info_base@exception_detail@boost@@@detail@boost@@UAEPAXI@Z 10029b80 f i main.cpp.obj
 0001:00028b80       ??_G?$sp_counted_impl_p@V?$clone_impl@Ubad_alloc_@exception_detail@boost@@@exception_detail@boost@@@detail@boost@@UAEPAXI@Z 10029b80 f i main.cpp.obj
 0001:00028b80       ??_G?$sp_counted_impl_p@V?$clone_impl@Ubad_exception_@exception_detail@boost@@@exception_detail@boost@@@detail@boost@@UAEPAXI@Z 10029b80 f i main.cpp.obj
 0001:00028b80       ??_G?$sp_counted_impl_p@V?$error_info@UTagErrorCodeWinLast@hadesmem@@K@boost@@@detail@boost@@UAEPAXI@Z 10029b80 f i main.cpp.obj
 0001:00028b80       ??_G?$sp_counted_impl_p@V?$error_info@UTagErrorString@hadesmem@@V?$basic_string@DU?$char_traits@D@std@@V?$allocator@D@2@@std@@@boost@@@detail@boost@@UAEPAXI@Z 10029b80 f i main.cpp.obj
 0001:00028b80       ??_G?$sp_counted_impl_p@Verror_info_base@exception_detail@boost@@@detail@boost@@UAEPAXI@Z 10029b80 f i main.cpp.obj
 0001:00028bb0       ??_E?$time_put@DV?$ostreambuf_iterator@DU?$char_traits@D@std@@@std@@@std@@MAEPAXI@Z 10029bb0 f i main.cpp.obj
 0001:00028bb0       ??_G?$time_put@DV?$ostreambuf_iterator@DU?$char_traits@D@std@@@std@@@std@@MAEPAXI@Z 10029bb0 f i main.cpp.obj
 0001:00028bf0       ??_E?$wrapexcept@VError@hadesmem@@@boost@@UAEPAXI@Z 10029bf0 f i main.cpp.obj
 0001:00028bf0       ??_G?$wrapexcept@VError@hadesmem@@@boost@@UAEPAXI@Z 10029bf0 f i main.cpp.obj
 0001:00028c80       ??_ECDataStore@Nampower@@UAEPAXI@Z 10029c80 f i main.cpp.obj
 0001:00028c80       ??_GCDataStore@Nampower@@UAEPAXI@Z 10029c80 f i main.cpp.obj
 0001:00028cf0       ??_EError@hadesmem@@UAEPAXI@Z 10029cf0 f i main.cpp.obj
 0001:00028cf0       ??_GError@hadesmem@@UAEPAXI@Z 10029cf0 f i main.cpp.obj
 0001:00028d80       ??_Ebad_alloc_@exception_detail@boost@@UAEPAXI@Z 10029d80 f i main.cpp.obj
 0001:00028d80       ??_Gbad_alloc_@exception_detail@boost@@UAEPAXI@Z 10029d80 f i main.cpp.obj
 0001:00028e10       ??_Ebad_exception_@exception_detail@boost@@UAEPAXI@Z 10029e10 f i main.cpp.obj
 0001:00028e10       ??_Gbad_exception_@exception_detail@boost@@UAEPAXI@Z 10029e10 f i main.cpp.obj
 0001:00028ea0       ??_Eclone_base@exception_detail@boost@@UAEPAXI@Z 10029ea0 f i main.cpp.obj
 0001:00028ea0       ??_Gclone_base@exception_detail@boost@@UAEPAXI@Z 10029ea0 f i main.cpp.obj
 0001:00028ed0       ??_Eerror_info_base@exception_detail@boost@@UAEPAXI@Z 10029ed0 f i main.cpp.obj
 0001:00028ed0       ??_Gerror_info_base@exception_detail@boost@@UAEPAXI@Z 10029ed0 f i main.cpp.obj
 0001:00028f00       ??_Esp_counted_base@detail@boost@@UAEPAXI@Z 10029f00 f i main.cpp.obj
 0001:00028f00       ??_Gsp_counted_base@detail@boost@@UAEPAXI@Z 10029f00 f i main.cpp.obj
 0001:00028f30       ?Advance@?$ThreadIterator@$$CBVThreadEntry@hadesmem@@@hadesmem@@AAEXXZ 10029f30 f i main.cpp.obj
 0001:00028f30       ?Advance@?$ThreadIterator@VThreadEntry@hadesmem@@@hadesmem@@AAEXXZ 10029f30 f i main.cpp.obj
 0001:000290c0       ?AllocatePageNear@detail@hadesmem@@YA?AV?$unique_ptr@VAllocator@hadesmem@@U?$default_delete@VAllocator@hadesmem@@@std@@@std@@ABVProcess@2@PAX@Z 1002a0c0 f i main.cpp.obj
 0001:00029160       ?Apply@?$PatchDetour@P6GHPAIPAVCDataStore@Nampower@@@ZPAX@hadesmem@@UAEXXZ 1002a160 f i main.cpp.obj
 0001:000299d0       ?Apply@?$PatchDetour@P6GXXZPAX@hadesmem@@UAEXXZ 1002a9d0 f i main.cpp.obj
 0001:0002a240       ?Apply@?$PatchDetour@P6IHIIIPAVCDataStore@Nampower@@@ZPAX@hadesmem@@UAEXXZ 1002b240 f i main.cpp.obj
 0001:0002aad0       ?Apply@?$PatchDetour@P6IHPAI@ZPAX@hadesmem@@UAEXXZ 1002bad0 f i main.cpp.obj
 0001:0002b340       ?Apply@?$PatchDetour@P6IHPAX0IPAPAH1HHHHIPAPAPAPAH@ZPAX@hadesmem@@UAEXXZ 1002c340 f i main.cpp.obj
 0001:0002bbb0       ?Apply@?$PatchDetour@P6IH_K@ZPAX@hadesmem@@UAEXXZ 1002cbb0 f i main.cpp.obj
 0001:0002c420       ?Apply@?$PatchDetour@P6IIPAI00@ZPAX@hadesmem@@UAEXXZ 1002d420 f i main.cpp.obj
 0001:0002cc90       ?Apply@?$PatchDetour@P6IIPAI@ZPAX@hadesmem@@UAEXXZ 1002dc90 f i main.cpp.obj
 0001:0002d500       ?Apply@?$PatchDetour@P6IIPAUCTerrainClickEvent@game@@@ZPAX@hadesmem@@UAEXXZ 1002e500 f i main.cpp.obj
 0001:0002dd70       ?Apply@?$PatchDetour@P6IPAHPAI@ZPAX@hadesmem@@UAEXXZ 1002ed70 f i main.cpp.obj
 0001:0002e5e0       ?Apply@?$PatchDetour@P6IXEH@ZPAX@hadesmem@@UAEXXZ 1002f5e0 f i main.cpp.obj
 0001:0002ee50       ?Apply@?$PatchDetour@P6IXHI@ZPAX@hadesmem@@UAEXXZ 1002fe50 f i main.cpp.obj
 0001:0002f6c0       ?Apply@?$PatchDetour@P6IXI@ZPAX@hadesmem@@UAEXXZ 100306c0 f i main.cpp.obj
 0001:0002ff30       ?Apply@?$PatchDetour@P6IXIHH@ZPAX@hadesmem@@UAEXXZ 10030f30 f i main.cpp.obj
 0001:000307a0       ?Apply@?$PatchDetour@P6IXIH_K@ZPAX@hadesmem@@UAEXXZ 100317a0 f i main.cpp.obj
 0001:00031010       ?Apply@?$PatchDetour@P6IXIW4SpellCastResult@game@@HH_N@ZPAX@hadesmem@@UAEXXZ 10032010 f i main.cpp.obj
 0001:00031880       ?Apply@?$PatchDetour@P6IXPAI@ZPAX@hadesmem@@UAEXXZ 10032880 f i main.cpp.obj
 0001:000320f0       ?Apply@?$PatchDetour@P6IXPAIPAXHE@ZPAX@hadesmem@@UAEXXZ 100330f0 f i main.cpp.obj
 0001:00032960       ?Apply@?$PatchDetour@P6IXPAIPAXHHHH@ZPAX@hadesmem@@UAEXXZ 10033960 f i main.cpp.obj
 0001:000331d0       ?Apply@?$PatchDetour@P6IXPAIPAXII@ZPAX@hadesmem@@UAEXXZ 100341d0 f i main.cpp.obj
 0001:00033a40       ?Apply@?$PatchDetour@P6IXPAIPAXW4CHAT_COMMAND_ID@game@@PAD@ZPAX@hadesmem@@UAEXXZ 10034a40 f i main.cpp.obj
 0001:000342b0       ?Apply@?$PatchDetour@P6IXPAIPA_K@ZPAX@hadesmem@@UAEXXZ 100352b0 f i main.cpp.obj
 0001:00034b20       ?Apply@?$PatchDetour@P6IXPAUSpellCast@game@@D@ZPAX@hadesmem@@UAEXXZ 10035b20 f i main.cpp.obj
 0001:00035390       ?Apply@?$PatchDetour@P6IXPAX0I@ZPAX@hadesmem@@UAEXXZ 10036390 f i main.cpp.obj
 0001:00035c10       ?Apply@?$PatchDetour@P6IXPAX0II@ZPAX@hadesmem@@UAEXXZ 10036c10 f i main.cpp.obj
 0001:00036480       ?Apply@?$PatchDetour@P6IXPAX0PAVCDataStore@Nampower@@@ZPAX@hadesmem@@UAEXXZ 10037480 f i main.cpp.obj
 0001:00036cf0       ?Apply@?$PatchDetour@P6IXPAXHH@ZPAX@hadesmem@@UAEXXZ 10037cf0 f i main.cpp.obj
 0001:00037560       ?Apply@?$PatchDetour@P6IXPA_K0I@ZPAX@hadesmem@@UAEXXZ 10038560 f i main.cpp.obj
 0001:00037dd0       ?Apply@?$PatchDetour@P6IXPA_K0II@ZPAX@hadesmem@@UAEXXZ 10038dd0 f i main.cpp.obj
 0001:00038640       ?Apply@?$PatchDetour@P6IXPA_K0IPAVCDataStore@Nampower@@@ZPAX@hadesmem@@UAEXXZ 10039640 f i main.cpp.obj
 0001:00038eb0       ?Apply@?$PatchDetour@P6IXPA_KI@ZPAX@hadesmem@@UAEXXZ 10039eb0 f i main.cpp.obj
 0001:00039720       ?Apply@?$PatchDetour@P6IXPA_KPBDHHH@ZPAX@hadesmem@@UAEXXZ 1003a720 f i main.cpp.obj
 0001:00039f90       ?Apply@?$PatchDetour@P6IXXZPAX@hadesmem@@UAEXXZ 1003af90 f i main.cpp.obj
 0001:0003a800       ?Apply@?$PatchDetour@P6IX_K@ZPAX@hadesmem@@UAEXXZ 1003b800 f i main.cpp.obj
 0001:0003b070       ?Apply@?$PatchDetour@P6IX_N0W4SpellCastResult@game@@@ZPAX@hadesmem@@UAEXXZ 1003c070 f i main.cpp.obj
 0001:0003b8e0       ?Apply@?$PatchDetour@P6I_KPBD@ZPAX@hadesmem@@UAEXXZ 1003c8e0 f i main.cpp.obj
 0001:0003c150       ?Apply@?$PatchDetour@P6I_NPAI0IM@ZPAX@hadesmem@@UAEXXZ 1003d150 f i main.cpp.obj
 0001:0003c9c0       ?Apply@?$PatchDetour@P6I_NPAIIPAUCGItem_C@game@@_K@ZPAX@hadesmem@@UAEXXZ 1003d9c0 f i main.cpp.obj
 0001:0003d230       ?Apply@?$PatchDetour@P6I_NPAUEVENT_DATA_KEY@@H@ZPAX@hadesmem@@UAEXXZ 1003e230 f i main.cpp.obj
 0001:0003daa0       ?Apply@?$PatchDetour@P6I_NPAUSpellRec@game@@PADHMMMMM@ZPAX@hadesmem@@UAEXXZ 1003eaa0 f i main.cpp.obj
 0001:0003e310       ?CanHookChain@?$PatchDetour@P6GHPAIPAVCDataStore@Nampower@@@ZPAX@hadesmem@@UBE_NXZ 1003f310 f i main.cpp.obj
 0001:0003e310       ?CanHookChain@?$PatchDetour@P6GXXZPAX@hadesmem@@UBE_NXZ 1003f310 f i main.cpp.obj
 0001:0003e310       ?CanHookChain@?$PatchDetour@P6IHIIIPAVCDataStore@Nampower@@@ZPAX@hadesmem@@UBE_NXZ 1003f310 f i main.cpp.obj
 0001:0003e310       ?CanHookChain@?$PatchDetour@P6IHPAI@ZPAX@hadesmem@@UBE_NXZ 1003f310 f i main.cpp.obj
 0001:0003e310       ?CanHookChain@?$PatchDetour@P6IHPAX0IPAPAH1HHHHIPAPAPAPAH@ZPAX@hadesmem@@UBE_NXZ 1003f310 f i main.cpp.obj
 0001:0003e310       ?CanHookChain@?$PatchDetour@P6IH_K@ZPAX@hadesmem@@UBE_NXZ 1003f310 f i main.cpp.obj
 0001:0003e310       ?CanHookChain@?$PatchDetour@P6IIPAI00@ZPAX@hadesmem@@UBE_NXZ 1003f310 f i main.cpp.obj
 0001:0003e310       ?CanHookChain@?$PatchDetour@P6IIPAI@ZPAX@hadesmem@@UBE_NXZ 1003f310 f i main.cpp.obj
 0001:0003e310       ?CanHookChain@?$PatchDetour@P6IIPAUCTerrainClickEvent@game@@@ZPAX@hadesmem@@UBE_NXZ 1003f310 f i main.cpp.obj
 0001:0003e310       ?CanHookChain@?$PatchDetour@P6IPAHPAI@ZPAX@hadesmem@@UBE_NXZ 1003f310 f i main.cpp.obj
 0001:0003e310       ?CanHookChain@?$PatchDetour@P6IXEH@ZPAX@hadesmem@@UBE_NXZ 1003f310 f i main.cpp.obj
 0001:0003e310       ?CanHookChain@?$PatchDetour@P6IXHI@ZPAX@hadesmem@@UBE_NXZ 1003f310 f i main.cpp.obj
 0001:0003e310       ?CanHookChain@?$PatchDetour@P6IXI@ZPAX@hadesmem@@UBE_NXZ 1003f310 f i main.cpp.obj
 0001:0003e310       ?CanHookChain@?$PatchDetour@P6IXIHH@ZPAX@hadesmem@@UBE_NXZ 1003f310 f i main.cpp.obj
 0001:0003e310       ?CanHookChain@?$PatchDetour@P6IXIH_K@ZPAX@hadesmem@@UBE_NXZ 1003f310 f i main.cpp.obj
 0001:0003e310       ?CanHookChain@?$PatchDetour@P6IXIW4SpellCastResult@game@@HH_N@ZPAX@hadesmem@@UBE_NXZ 1003f310 f i main.cpp.obj
 0001:0003e310       ?CanHookChain@?$PatchDetour@P6IXPAI@ZPAX@hadesmem@@UBE_NXZ 1003f310 f i main.cpp.obj
 0001:0003e310       ?CanHookChain@?$PatchDetour@P6IXPAIPAXHE@ZPAX@hadesmem@@UBE_NXZ 1003f310 f i main.cpp.obj
 0001:0003e310       ?CanHookChain@?$PatchDetour@P6IXPAIPAXHHHH@ZPAX@hadesmem@@UBE_NXZ 1003f310 f i main.cpp.obj
 0001:0003e310       ?CanHookChain@?$PatchDetour@P6IXPAIPAXII@ZPAX@hadesmem@@UBE_NXZ 1003f310 f i main.cpp.obj
 0001:0003e310       ?CanHookChain@?$PatchDetour@P6IXPAIPAXW4CHAT_COMMAND_ID@game@@PAD@ZPAX@hadesmem@@UBE_NXZ 1003f310 f i main.cpp.obj
 0001:0003e310       ?CanHookChain@?$PatchDetour@P6IXPAIPA_K@ZPAX@hadesmem@@UBE_NXZ 1003f310 f i main.cpp.obj
 0001:0003e310       ?CanHookChain@?$PatchDetour@P6IXPAUSpellCast@game@@D@ZPAX@hadesmem@@UBE_NXZ 1003f310 f i main.cpp.obj
 0001:0003e310       ?CanHookChain@?$PatchDetour@P6IXPAX0I@ZPAX@hadesmem@@UBE_NXZ 1003f310 f i main.cpp.obj
 0001:0003e310       ?CanHookChain@?$PatchDetour@P6IXPAX0II@ZPAX@hadesmem@@UBE_NXZ 1003f310 f i main.cpp.obj
 0001:0003e310       ?CanHookChain@?$PatchDetour@P6IXPAX0PAVCDataStore@Nampower@@@ZPAX@hadesmem@@UBE_NXZ 1003f310 f i main.cpp.obj
 0001:0003e310       ?CanHookChain@?$PatchDetour@P6IXPAXHH@ZPAX@hadesmem@@UBE_NXZ 1003f310 f i main.cpp.obj
 0001:0003e310       ?CanHookChain@?$PatchDetour@P6IXPA_K0I@ZPAX@hadesmem@@UBE_NXZ 1003f310 f i main.cpp.obj
 0001:0003e310       ?CanHookChain@?$PatchDetour@P6IXPA_K0II@ZPAX@hadesmem@@UBE_NXZ 1003f310 f i main.cpp.obj
 0001:0003e310       ?CanHookChain@?$PatchDetour@P6IXPA_K0IPAVCDataStore@Nampower@@@ZPAX@hadesmem@@UBE_NXZ 1003f310 f i main.cpp.obj
 0001:0003e310       ?CanHookChain@?$PatchDetour@P6IXPA_KI@ZPAX@hadesmem@@UBE_NXZ 1003f310 f i main.cpp.obj
 0001:0003e310       ?CanHookChain@?$PatchDetour@P6IXPA_KPBDHHH@ZPAX@hadesmem@@UBE_NXZ 1003f310 f i main.cpp.obj
 0001:0003e310       ?CanHookChain@?$PatchDetour@P6IXXZPAX@hadesmem@@UBE_NXZ 1003f310 f i main.cpp.obj
 0001:0003e310       ?CanHookChain@?$PatchDetour@P6IX_K@ZPAX@hadesmem@@UBE_NXZ 1003f310 f i main.cpp.obj
 0001:0003e310       ?CanHookChain@?$PatchDetour@P6IX_N0W4SpellCastResult@game@@@ZPAX@hadesmem@@UBE_NXZ 1003f310 f i main.cpp.obj
 0001:0003e310       ?CanHookChain@?$PatchDetour@P6I_KPBD@ZPAX@hadesmem@@UBE_NXZ 1003f310 f i main.cpp.obj
 0001:0003e310       ?CanHookChain@?$PatchDetour@P6I_NPAI0IM@ZPAX@hadesmem@@UBE_NXZ 1003f310 f i main.cpp.obj
 0001:0003e310       ?CanHookChain@?$PatchDetour@P6I_NPAIIPAUCGItem_C@game@@_K@ZPAX@hadesmem@@UBE_NXZ 1003f310 f i main.cpp.obj
 0001:0003e310       ?CanHookChain@?$PatchDetour@P6I_NPAUEVENT_DATA_KEY@@H@ZPAX@hadesmem@@UBE_NXZ 1003f310 f i main.cpp.obj
 0001:0003e310       ?CanHookChain@?$PatchDetour@P6I_NPAUSpellRec@game@@PADHMMMMM@ZPAX@hadesmem@@UBE_NXZ 1003f310 f i main.cpp.obj
 0001:0003e320       ?Cleanup@?$SmartHandleImpl@UHandlePolicy@detail@hadesmem@@@detail@hadesmem@@QAEXXZ 1003f320 f i main.cpp.obj
 0001:0003e410       ?CleanupUnchecked@?$SmartHandleImpl@UHandlePolicy@detail@hadesmem@@@detail@hadesmem@@AAEXXZ 1003f410 f i main.cpp.obj
 0001:0003e4c0       ?CleanupUnchecked@?$SmartHandleImpl@USnapPolicy@detail@hadesmem@@@detail@hadesmem@@AAEXXZ 1003f4c0 f i main.cpp.obj
 0001:0003e620       ?CleanupUnchecked@Process@hadesmem@@AAEXXZ 1003f620 f i main.cpp.obj
 0001:0003e700       ?CleanupUnchecked@Thread@hadesmem@@AAEXXZ 1003f700 f i main.cpp.obj
 0001:0003e7e0       ?ClearQueuedSpells@Nampower@@YAXXZ 1003f7e0 f   main.cpp.obj
 0001:0003e8e0       ?CreateToolhelp32Snapshot@detail@hadesmem@@YA?AV?$SmartHandleImpl@USnapPolicy@detail@hadesmem@@@12@KK@Z 1003f8e0 f i main.cpp.obj
 0001:0003ea20       ?Detach@?$PatchDetour@P6GHPAIPAVCDataStore@Nampower@@@ZPAX@hadesmem@@UAEXXZ 1003fa20 f i main.cpp.obj
 0001:0003ea20       ?Detach@?$PatchDetour@P6GXXZPAX@hadesmem@@UAEXXZ 1003fa20 f i main.cpp.obj
 0001:0003ea20       ?Detach@?$PatchDetour@P6IHIIIPAVCDataStore@Nampower@@@ZPAX@hadesmem@@UAEXXZ 1003fa20 f i main.cpp.obj
 0001:0003ea20       ?Detach@?$PatchDetour@P6IHPAI@ZPAX@hadesmem@@UAEXXZ 1003fa20 f i main.cpp.obj
 0001:0003ea20       ?Detach@?$PatchDetour@P6IHPAX0IPAPAH1HHHHIPAPAPAPAH@ZPAX@hadesmem@@UAEXXZ 1003fa20 f i main.cpp.obj
 0001:0003ea20       ?Detach@?$PatchDetour@P6IH_K@ZPAX@hadesmem@@UAEXXZ 1003fa20 f i main.cpp.obj
 0001:0003ea20       ?Detach@?$PatchDetour@P6IIPAI00@ZPAX@hadesmem@@UAEXXZ 1003fa20 f i main.cpp.obj
 0001:0003ea20       ?Detach@?$PatchDetour@P6IIPAI@ZPAX@hadesmem@@UAEXXZ 1003fa20 f i main.cpp.obj
 0001:0003ea20       ?Detach@?$PatchDetour@P6IIPAUCTerrainClickEvent@game@@@ZPAX@hadesmem@@UAEXXZ 1003fa20 f i main.cpp.obj
 0001:0003ea20       ?Detach@?$PatchDetour@P6IPAHPAI@ZPAX@hadesmem@@UAEXXZ 1003fa20 f i main.cpp.obj
 0001:0003ea20       ?Detach@?$PatchDetour@P6IXEH@ZPAX@hadesmem@@UAEXXZ 1003fa20 f i main.cpp.obj
 0001:0003ea20       ?Detach@?$PatchDetour@P6IXHI@ZPAX@hadesmem@@UAEXXZ 1003fa20 f i main.cpp.obj
 0001:0003ea20       ?Detach@?$PatchDetour@P6IXI@ZPAX@hadesmem@@UAEXXZ 1003fa20 f i main.cpp.obj
 0001:0003ea20       ?Detach@?$PatchDetour@P6IXIHH@ZPAX@hadesmem@@UAEXXZ 1003fa20 f i main.cpp.obj
 0001:0003ea20       ?Detach@?$PatchDetour@P6IXIH_K@ZPAX@hadesmem@@UAEXXZ 1003fa20 f i main.cpp.obj
 0001:0003ea20       ?Detach@?$PatchDetour@P6IXIW4SpellCastResult@game@@HH_N@ZPAX@hadesmem@@UAEXXZ 1003fa20 f i main.cpp.obj
 0001:0003ea20       ?Detach@?$PatchDetour@P6IXPAI@ZPAX@hadesmem@@UAEXXZ 1003fa20 f i main.cpp.obj
 0001:0003ea20       ?Detach@?$PatchDetour@P6IXPAIPAXHE@ZPAX@hadesmem@@UAEXXZ 1003fa20 f i main.cpp.obj
 0001:0003ea20       ?Detach@?$PatchDetour@P6IXPAIPAXHHHH@ZPAX@hadesmem@@UAEXXZ 1003fa20 f i main.cpp.obj
 0001:0003ea20       ?Detach@?$PatchDetour@P6IXPAIPAXII@ZPAX@hadesmem@@UAEXXZ 1003fa20 f i main.cpp.obj
 0001:0003ea20       ?Detach@?$PatchDetour@P6IXPAIPAXW4CHAT_COMMAND_ID@game@@PAD@ZPAX@hadesmem@@UAEXXZ 1003fa20 f i main.cpp.obj
 0001:0003ea20       ?Detach@?$PatchDetour@P6IXPAIPA_K@ZPAX@hadesmem@@UAEXXZ 1003fa20 f i main.cpp.obj
 0001:0003ea20       ?Detach@?$PatchDetour@P6IXPAUSpellCast@game@@D@ZPAX@hadesmem@@UAEXXZ 1003fa20 f i main.cpp.obj
 0001:0003ea20       ?Detach@?$PatchDetour@P6IXPAX0I@ZPAX@hadesmem@@UAEXXZ 1003fa20 f i main.cpp.obj
 0001:0003ea20       ?Detach@?$PatchDetour@P6IXPAX0II@ZPAX@hadesmem@@UAEXXZ 1003fa20 f i main.cpp.obj
 0001:0003ea20       ?Detach@?$PatchDetour@P6IXPAX0PAVCDataStore@Nampower@@@ZPAX@hadesmem@@UAEXXZ 1003fa20 f i main.cpp.obj
 0001:0003ea20       ?Detach@?$PatchDetour@P6IXPAXHH@ZPAX@hadesmem@@UAEXXZ 1003fa20 f i main.cpp.obj
 0001:0003ea20       ?Detach@?$PatchDetour@P6IXPA_K0I@ZPAX@hadesmem@@UAEXXZ 1003fa20 f i main.cpp.obj
 0001:0003ea20       ?Detach@?$PatchDetour@P6IXPA_K0II@ZPAX@hadesmem@@UAEXXZ 1003fa20 f i main.cpp.obj
 0001:0003ea20       ?Detach@?$PatchDetour@P6IXPA_K0IPAVCDataStore@Nampower@@@ZPAX@hadesmem@@UAEXXZ 1003fa20 f i main.cpp.obj
 0001:0003ea20       ?Detach@?$PatchDetour@P6IXPA_KI@ZPAX@hadesmem@@UAEXXZ 1003fa20 f i main.cpp.obj
 0001:0003ea20       ?Detach@?$PatchDetour@P6IXPA_KPBDHHH@ZPAX@hadesmem@@UAEXXZ 1003fa20 f i main.cpp.obj
 0001:0003ea20       ?Detach@?$PatchDetour@P6IXXZPAX@hadesmem@@UAEXXZ 1003fa20 f i main.cpp.obj
 0001:0003ea20       ?Detach@?$PatchDetour@P6IX_K@ZPAX@hadesmem@@UAEXXZ 1003fa20 f i main.cpp.obj
 0001:0003ea20       ?Detach@?$PatchDetour@P6IX_N0W4SpellCastResult@game@@@ZPAX@hadesmem@@UAEXXZ 1003fa20 f i main.cpp.obj
 0001:0003ea20       ?Detach@?$PatchDetour@P6I_KPBD@ZPAX@hadesmem@@UAEXXZ 1003fa20 f i main.cpp.obj
 0001:0003ea20       ?Detach@?$PatchDetour@P6I_NPAI0IM@ZPAX@hadesmem@@UAEXXZ 1003fa20 f i main.cpp.obj
 0001:0003ea20       ?Detach@?$PatchDetour@P6I_NPAIIPAUCGItem_C@game@@_K@ZPAX@hadesmem@@UAEXXZ 1003fa20 f i main.cpp.obj
 0001:0003ea20       ?Detach@?$PatchDetour@P6I_NPAUEVENT_DATA_KEY@@H@ZPAX@hadesmem@@UAEXXZ 1003fa20 f i main.cpp.obj
 0001:0003ea20       ?Detach@?$PatchDetour@P6I_NPAUSpellRec@game@@PADHMMMMM@ZPAX@hadesmem@@UAEXXZ 1003fa20 f i main.cpp.obj
 0001:0003ea30       ?DuplicateHandle@detail@hadesmem@@YA?AV?$SmartHandleImpl@UHandlePolicy@detail@hadesmem@@@12@PAX@Z 1003fa30 f i main.cpp.obj
 0001:0003eb50       ?EffectiveCastEndMs@Nampower@@YAIXZ 1003fb50 f   main.cpp.obj
 0001:0003ebd0       ?FlushInstructionCache@hadesmem@@YAXABVProcess@1@PBXK@Z 1003fbd0 f i main.cpp.obj
 0001:0003ecc0       ?FrameScript_CreateEventsHook@Nampower@@YAXPAVPatchDetourBase@hadesmem@@HI@Z 1003fcc0 f   main.cpp.obj
 0001:0003ecf0       ?Framescript_SetEventCountHook@Nampower@@YAXPAVPatchDetourBase@hadesmem@@PAX1I@Z 1003fcf0 f   main.cpp.obj
 0001:0003ee30       ?FreeUnchecked@Allocator@hadesmem@@AAEXXZ 1003fe30 f i main.cpp.obj
 0001:0003efb0       ?GenStubGate32@detail@hadesmem@@YA?AV?$vector@EV?$allocator@E@std@@@std@@PAX00@Z 1003ffb0 f i main.cpp.obj
 0001:0003f0b0       ?GetContext@?$PatchDetour@P6GHPAIPAVCDataStore@Nampower@@@ZPAX@hadesmem@@UAEPAXXZ 100400b0 f i main.cpp.obj
 0001:0003f0b0       ?GetContext@?$PatchDetour@P6GHPAIPAVCDataStore@Nampower@@@ZPAX@hadesmem@@UBEPBXXZ 100400b0 f i main.cpp.obj
 0001:0003f0b0       ?GetContext@?$PatchDetour@P6GXXZPAX@hadesmem@@UAEPAXXZ 100400b0 f i main.cpp.obj
 0001:0003f0b0       ?GetContext@?$PatchDetour@P6GXXZPAX@hadesmem@@UBEPBXXZ 100400b0 f i main.cpp.obj
 0001:0003f0b0       ?GetContext@?$PatchDetour@P6IHIIIPAVCDataStore@Nampower@@@ZPAX@hadesmem@@UAEPAXXZ 100400b0 f i main.cpp.obj
 0001:0003f0b0       ?GetContext@?$PatchDetour@P6IHIIIPAVCDataStore@Nampower@@@ZPAX@hadesmem@@UBEPBXXZ 100400b0 f i main.cpp.obj
 0001:0003f0b0       ?GetContext@?$PatchDetour@P6IHPAI@ZPAX@hadesmem@@UAEPAXXZ 100400b0 f i main.cpp.obj
 0001:0003f0b0       ?GetContext@?$PatchDetour@P6IHPAI@ZPAX@hadesmem@@UBEPBXXZ 100400b0 f i main.cpp.obj
 0001:0003f0b0       ?GetContext@?$PatchDetour@P6IHPAX0IPAPAH1HHHHIPAPAPAPAH@ZPAX@hadesmem@@UAEPAXXZ 100400b0 f i main.cpp.obj
 0001:0003f0b0       ?GetContext@?$PatchDetour@P6IHPAX0IPAPAH1HHHHIPAPAPAPAH@ZPAX@hadesmem@@UBEPBXXZ 100400b0 f i main.cpp.obj
 0001:0003f0b0       ?GetContext@?$PatchDetour@P6IH_K@ZPAX@hadesmem@@UAEPAXXZ 100400b0 f i main.cpp.obj
 0001:0003f0b0       ?GetContext@?$PatchDetour@P6IH_K@ZPAX@hadesmem@@UBEPBXXZ 100400b0 f i main.cpp.obj
 0001:0003f0b0       ?GetContext@?$PatchDetour@P6IIPAI00@ZPAX@hadesmem@@UAEPAXXZ 100400b0 f i main.cpp.obj
 0001:0003f0b0       ?GetContext@?$PatchDetour@P6IIPAI00@ZPAX@hadesmem@@UBEPBXXZ 100400b0 f i main.cpp.obj
 0001:0003f0b0       ?GetContext@?$PatchDetour@P6IIPAI@ZPAX@hadesmem@@UAEPAXXZ 100400b0 f i main.cpp.obj
 0001:0003f0b0       ?GetContext@?$PatchDetour@P6IIPAI@ZPAX@hadesmem@@UBEPBXXZ 100400b0 f i main.cpp.obj
 0001:0003f0b0       ?GetContext@?$PatchDetour@P6IIPAUCTerrainClickEvent@game@@@ZPAX@hadesmem@@UAEPAXXZ 100400b0 f i main.cpp.obj
 0001:0003f0b0       ?GetContext@?$PatchDetour@P6IIPAUCTerrainClickEvent@game@@@ZPAX@hadesmem@@UBEPBXXZ 100400b0 f i main.cpp.obj
 0001:0003f0b0       ?GetContext@?$PatchDetour@P6IPAHPAI@ZPAX@hadesmem@@UAEPAXXZ 100400b0 f i main.cpp.obj
 0001:0003f0b0       ?GetContext@?$PatchDetour@P6IPAHPAI@ZPAX@hadesmem@@UBEPBXXZ 100400b0 f i main.cpp.obj
 0001:0003f0b0       ?GetContext@?$PatchDetour@P6IXEH@ZPAX@hadesmem@@UAEPAXXZ 100400b0 f i main.cpp.obj
 0001:0003f0b0       ?GetContext@?$PatchDetour@P6IXEH@ZPAX@hadesmem@@UBEPBXXZ 100400b0 f i main.cpp.obj
 0001:0003f0b0       ?GetContext@?$PatchDetour@P6IXHI@ZPAX@hadesmem@@UAEPAXXZ 100400b0 f i main.cpp.obj
 0001:0003f0b0       ?GetContext@?$PatchDetour@P6IXHI@ZPAX@hadesmem@@UBEPBXXZ 100400b0 f i main.cpp.obj
 0001:0003f0b0       ?GetContext@?$PatchDetour@P6IXI@ZPAX@hadesmem@@UAEPAXXZ 100400b0 f i main.cpp.obj
 0001:0003f0b0       ?GetContext@?$PatchDetour@P6IXI@ZPAX@hadesmem@@UBEPBXXZ 100400b0 f i main.cpp.obj
 0001:0003f0b0       ?GetContext@?$PatchDetour@P6IXIHH@ZPAX@hadesmem@@UAEPAXXZ 100400b0 f i main.cpp.obj
 0001:0003f0b0       ?GetContext@?$PatchDetour@P6IXIHH@ZPAX@hadesmem@@UBEPBXXZ 100400b0 f i main.cpp.obj
 0001:0003f0b0       ?GetContext@?$PatchDetour@P6IXIH_K@ZPAX@hadesmem@@UAEPAXXZ 100400b0 f i main.cpp.obj
 0001:0003f0b0       ?GetContext@?$PatchDetour@P6IXIH_K@ZPAX@hadesmem@@UBEPBXXZ 100400b0 f i main.cpp.obj
 0001:0003f0b0       ?GetContext@?$PatchDetour@P6IXIW4SpellCastResult@game@@HH_N@ZPAX@hadesmem@@UAEPAXXZ 100400b0 f i main.cpp.obj
 0001:0003f0b0       ?GetContext@?$PatchDetour@P6IXIW4SpellCastResult@game@@HH_N@ZPAX@hadesmem@@UBEPBXXZ 100400b0 f i main.cpp.obj
 0001:0003f0b0       ?GetContext@?$PatchDetour@P6IXPAI@ZPAX@hadesmem@@UAEPAXXZ 100400b0 f i main.cpp.obj
 0001:0003f0b0       ?GetContext@?$PatchDetour@P6IXPAI@ZPAX@hadesmem@@UBEPBXXZ 100400b0 f i main.cpp.obj
 0001:0003f0b0       ?GetContext@?$PatchDetour@P6IXPAIPAXHE@ZPAX@hadesmem@@UAEPAXXZ 100400b0 f i main.cpp.obj
 0001:0003f0b0       ?GetContext@?$PatchDetour@P6IXPAIPAXHE@ZPAX@hadesmem@@UBEPBXXZ 100400b0 f i main.cpp.obj
 0001:0003f0b0       ?GetContext@?$PatchDetour@P6IXPAIPAXHHHH@ZPAX@hadesmem@@UAEPAXXZ 100400b0 f i main.cpp.obj
 0001:0003f0b0       ?GetContext@?$PatchDetour@P6IXPAIPAXHHHH@ZPAX@hadesmem@@UBEPBXXZ 100400b0 f i main.cpp.obj
 0001:0003f0b0       ?GetContext@?$PatchDetour@P6IXPAIPAXII@ZPAX@hadesmem@@UAEPAXXZ 100400b0 f i main.cpp.obj
 0001:0003f0b0       ?GetContext@?$PatchDetour@P6IXPAIPAXII@ZPAX@hadesmem@@UBEPBXXZ 100400b0 f i main.cpp.obj
 0001:0003f0b0       ?GetContext@?$PatchDetour@P6IXPAIPAXW4CHAT_COMMAND_ID@game@@PAD@ZPAX@hadesmem@@UAEPAXXZ 100400b0 f i main.cpp.obj
 0001:0003f0b0       ?GetContext@?$PatchDetour@P6IXPAIPAXW4CHAT_COMMAND_ID@game@@PAD@ZPAX@hadesmem@@UBEPBXXZ 100400b0 f i main.cpp.obj
 0001:0003f0b0       ?GetContext@?$PatchDetour@P6IXPAIPA_K@ZPAX@hadesmem@@UAEPAXXZ 100400b0 f i main.cpp.obj
 0001:0003f0b0       ?GetContext@?$PatchDetour@P6IXPAIPA_K@ZPAX@hadesmem@@UBEPBXXZ 100400b0 f i main.cpp.obj
 0001:0003f0b0       ?GetContext@?$PatchDetour@P6IXPAUSpellCast@game@@D@ZPAX@hadesmem@@UAEPAXXZ 100400b0 f i main.cpp.obj
 0001:0003f0b0       ?GetContext@?$PatchDetour@P6IXPAUSpellCast@game@@D@ZPAX@hadesmem@@UBEPBXXZ 100400b0 f i main.cpp.obj
 0001:0003f0b0       ?GetContext@?$PatchDetour@P6IXPAX0I@ZPAX@hadesmem@@UAEPAXXZ 100400b0 f i main.cpp.obj
 0001:0003f0b0       ?GetContext@?$PatchDetour@P6IXPAX0I@ZPAX@hadesmem@@UBEPBXXZ 100400b0 f i main.cpp.obj
 0001:0003f0b0       ?GetContext@?$PatchDetour@P6IXPAX0II@ZPAX@hadesmem@@UAEPAXXZ 100400b0 f i main.cpp.obj
 0001:0003f0b0       ?GetContext@?$PatchDetour@P6IXPAX0II@ZPAX@hadesmem@@UBEPBXXZ 100400b0 f i main.cpp.obj
 0001:0003f0b0       ?GetContext@?$PatchDetour@P6IXPAX0PAVCDataStore@Nampower@@@ZPAX@hadesmem@@UAEPAXXZ 100400b0 f i main.cpp.obj
 0001:0003f0b0       ?GetContext@?$PatchDetour@P6IXPAX0PAVCDataStore@Nampower@@@ZPAX@hadesmem@@UBEPBXXZ 100400b0 f i main.cpp.obj
 0001:0003f0b0       ?GetContext@?$PatchDetour@P6IXPAXHH@ZPAX@hadesmem@@UAEPAXXZ 100400b0 f i main.cpp.obj
 0001:0003f0b0       ?GetContext@?$PatchDetour@P6IXPAXHH@ZPAX@hadesmem@@UBEPBXXZ 100400b0 f i main.cpp.obj
 0001:0003f0b0       ?GetContext@?$PatchDetour@P6IXPA_K0I@ZPAX@hadesmem@@UAEPAXXZ 100400b0 f i main.cpp.obj
 0001:0003f0b0       ?GetContext@?$PatchDetour@P6IXPA_K0I@ZPAX@hadesmem@@UBEPBXXZ 100400b0 f i main.cpp.obj
 0001:0003f0b0       ?GetContext@?$PatchDetour@P6IXPA_K0II@ZPAX@hadesmem@@UAEPAXXZ 100400b0 f i main.cpp.obj
 0001:0003f0b0       ?GetContext@?$PatchDetour@P6IXPA_K0II@ZPAX@hadesmem@@UBEPBXXZ 100400b0 f i main.cpp.obj
 0001:0003f0b0       ?GetContext@?$PatchDetour@P6IXPA_K0IPAVCDataStore@Nampower@@@ZPAX@hadesmem@@UAEPAXXZ 100400b0 f i main.cpp.obj
 0001:0003f0b0       ?GetContext@?$PatchDetour@P6IXPA_K0IPAVCDataStore@Nampower@@@ZPAX@hadesmem@@UBEPBXXZ 100400b0 f i main.cpp.obj
 0001:0003f0b0       ?GetContext@?$PatchDetour@P6IXPA_KI@ZPAX@hadesmem@@UAEPAXXZ 100400b0 f i main.cpp.obj
 0001:0003f0b0       ?GetContext@?$PatchDetour@P6IXPA_KI@ZPAX@hadesmem@@UBEPBXXZ 100400b0 f i main.cpp.obj
 0001:0003f0b0       ?GetContext@?$PatchDetour@P6IXPA_KPBDHHH@ZPAX@hadesmem@@UAEPAXXZ 100400b0 f i main.cpp.obj
 0001:0003f0b0       ?GetContext@?$PatchDetour@P6IXPA_KPBDHHH@ZPAX@hadesmem@@UBEPBXXZ 100400b0 f i main.cpp.obj
 0001:0003f0b0       ?GetContext@?$PatchDetour@P6IXXZPAX@hadesmem@@UAEPAXXZ 100400b0 f i main.cpp.obj
 0001:0003f0b0       ?GetContext@?$PatchDetour@P6IXXZPAX@hadesmem@@UBEPBXXZ 100400b0 f i main.cpp.obj
 0001:0003f0b0       ?GetContext@?$PatchDetour@P6IX_K@ZPAX@hadesmem@@UAEPAXXZ 100400b0 f i main.cpp.obj
 0001:0003f0b0       ?GetContext@?$PatchDetour@P6IX_K@ZPAX@hadesmem@@UBEPBXXZ 100400b0 f i main.cpp.obj
 0001:0003f0b0       ?GetContext@?$PatchDetour@P6IX_N0W4SpellCastResult@game@@@ZPAX@hadesmem@@UAEPAXXZ 100400b0 f i main.cpp.obj
 0001:0003f0b0       ?GetContext@?$PatchDetour@P6IX_N0W4SpellCastResult@game@@@ZPAX@hadesmem@@UBEPBXXZ 100400b0 f i main.cpp.obj
 0001:0003f0b0       ?GetContext@?$PatchDetour@P6I_KPBD@ZPAX@hadesmem@@UAEPAXXZ 100400b0 f i main.cpp.obj
 0001:0003f0b0       ?GetContext@?$PatchDetour@P6I_KPBD@ZPAX@hadesmem@@UBEPBXXZ 100400b0 f i main.cpp.obj
 0001:0003f0b0       ?GetContext@?$PatchDetour@P6I_NPAI0IM@ZPAX@hadesmem@@UAEPAXXZ 100400b0 f i main.cpp.obj
 0001:0003f0b0       ?GetContext@?$PatchDetour@P6I_NPAI0IM@ZPAX@hadesmem@@UBEPBXXZ 100400b0 f i main.cpp.obj
 0001:0003f0b0       ?GetContext@?$PatchDetour@P6I_NPAIIPAUCGItem_C@game@@_K@ZPAX@hadesmem@@UAEPAXXZ 100400b0 f i main.cpp.obj
 0001:0003f0b0       ?GetContext@?$PatchDetour@P6I_NPAIIPAUCGItem_C@game@@_K@ZPAX@hadesmem@@UBEPBXXZ 100400b0 f i main.cpp.obj
 0001:0003f0b0       ?GetContext@?$PatchDetour@P6I_NPAUEVENT_DATA_KEY@@H@ZPAX@hadesmem@@UAEPAXXZ 100400b0 f i main.cpp.obj
 0001:0003f0b0       ?GetContext@?$PatchDetour@P6I_NPAUEVENT_DATA_KEY@@H@ZPAX@hadesmem@@UBEPBXXZ 100400b0 f i main.cpp.obj
 0001:0003f0b0       ?GetContext@?$PatchDetour@P6I_NPAUSpellRec@game@@PADHMMMMM@ZPAX@hadesmem@@UAEPAXXZ 100400b0 f i main.cpp.obj
 0001:0003f0b0       ?GetContext@?$PatchDetour@P6I_NPAUSpellRec@game@@PADHMMMMM@ZPAX@hadesmem@@UBEPBXXZ 100400b0 f i main.cpp.obj
 0001:0003f0c0       ?GetDetour@?$PatchDetour@P6GHPAIPAVCDataStore@Nampower@@@ZPAX@hadesmem@@UBEPBXXZ 100400c0 f i main.cpp.obj
 0001:0003f0c0       ?GetDetour@?$PatchDetour@P6GXXZPAX@hadesmem@@UBEPBXXZ 100400c0 f i main.cpp.obj
 0001:0003f0c0       ?GetDetour@?$PatchDetour@P6IHIIIPAVCDataStore@Nampower@@@ZPAX@hadesmem@@UBEPBXXZ 100400c0 f i main.cpp.obj
 0001:0003f0c0       ?GetDetour@?$PatchDetour@P6IHPAI@ZPAX@hadesmem@@UBEPBXXZ 100400c0 f i main.cpp.obj
 0001:0003f0c0       ?GetDetour@?$PatchDetour@P6IHPAX0IPAPAH1HHHHIPAPAPAPAH@ZPAX@hadesmem@@UBEPBXXZ 100400c0 f i main.cpp.obj
 0001:0003f0c0       ?GetDetour@?$PatchDetour@P6IH_K@ZPAX@hadesmem@@UBEPBXXZ 100400c0 f i main.cpp.obj
 0001:0003f0c0       ?GetDetour@?$PatchDetour@P6IIPAI00@ZPAX@hadesmem@@UBEPBXXZ 100400c0 f i main.cpp.obj
 0001:0003f0c0       ?GetDetour@?$PatchDetour@P6IIPAI@ZPAX@hadesmem@@UBEPBXXZ 100400c0 f i main.cpp.obj
 0001:0003f0c0       ?GetDetour@?$PatchDetour@P6IIPAUCTerrainClickEvent@game@@@ZPAX@hadesmem@@UBEPBXXZ 100400c0 f i main.cpp.obj
 0001:0003f0c0       ?GetDetour@?$PatchDetour@P6IPAHPAI@ZPAX@hadesmem@@UBEPBXXZ 100400c0 f i main.cpp.obj
 0001:0003f0c0       ?GetDetour@?$PatchDetour@P6IXEH@ZPAX@hadesmem@@UBEPBXXZ 100400c0 f i main.cpp.obj
 0001:0003f0c0       ?GetDetour@?$PatchDetour@P6IXHI@ZPAX@hadesmem@@UBEPBXXZ 100400c0 f i main.cpp.obj
 0001:0003f0c0       ?GetDetour@?$PatchDetour@P6IXI@ZPAX@hadesmem@@UBEPBXXZ 100400c0 f i main.cpp.obj
 0001:0003f0c0       ?GetDetour@?$PatchDetour@P6IXIHH@ZPAX@hadesmem@@UBEPBXXZ 100400c0 f i main.cpp.obj
 0001:0003f0c0       ?GetDetour@?$PatchDetour@P6IXIH_K@ZPAX@hadesmem@@UBEPBXXZ 100400c0 f i main.cpp.obj
 0001:0003f0c0       ?GetDetour@?$PatchDetour@P6IXIW4SpellCastResult@game@@HH_N@ZPAX@hadesmem@@UBEPBXXZ 100400c0 f i main.cpp.obj
 0001:0003f0c0       ?GetDetour@?$PatchDetour@P6IXPAI@ZPAX@hadesmem@@UBEPBXXZ 100400c0 f i main.cpp.obj
 0001:0003f0c0       ?GetDetour@?$PatchDetour@P6IXPAIPAXHE@ZPAX@hadesmem@@UBEPBXXZ 100400c0 f i main.cpp.obj
 0001:0003f0c0       ?GetDetour@?$PatchDetour@P6IXPAIPAXHHHH@ZPAX@hadesmem@@UBEPBXXZ 100400c0 f i main.cpp.obj
 0001:0003f0c0       ?GetDetour@?$PatchDetour@P6IXPAIPAXII@ZPAX@hadesmem@@UBEPBXXZ 100400c0 f i main.cpp.obj
 0001:0003f0c0       ?GetDetour@?$PatchDetour@P6IXPAIPAXW4CHAT_COMMAND_ID@game@@PAD@ZPAX@hadesmem@@UBEPBXXZ 100400c0 f i main.cpp.obj
 0001:0003f0c0       ?GetDetour@?$PatchDetour@P6IXPAIPA_K@ZPAX@hadesmem@@UBEPBXXZ 100400c0 f i main.cpp.obj
 0001:0003f0c0       ?GetDetour@?$PatchDetour@P6IXPAUSpellCast@game@@D@ZPAX@hadesmem@@UBEPBXXZ 100400c0 f i main.cpp.obj
 0001:0003f0c0       ?GetDetour@?$PatchDetour@P6IXPAX0I@ZPAX@hadesmem@@UBEPBXXZ 100400c0 f i main.cpp.obj
 0001:0003f0c0       ?GetDetour@?$PatchDetour@P6IXPAX0II@ZPAX@hadesmem@@UBEPBXXZ 100400c0 f i main.cpp.obj
 0001:0003f0c0       ?GetDetour@?$PatchDetour@P6IXPAX0PAVCDataStore@Nampower@@@ZPAX@hadesmem@@UBEPBXXZ 100400c0 f i main.cpp.obj
 0001:0003f0c0       ?GetDetour@?$PatchDetour@P6IXPAXHH@ZPAX@hadesmem@@UBEPBXXZ 100400c0 f i main.cpp.obj
 0001:0003f0c0       ?GetDetour@?$PatchDetour@P6IXPA_K0I@ZPAX@hadesmem@@UBEPBXXZ 100400c0 f i main.cpp.obj
 0001:0003f0c0       ?GetDetour@?$PatchDetour@P6IXPA_K0II@ZPAX@hadesmem@@UBEPBXXZ 100400c0 f i main.cpp.obj
 0001:0003f0c0       ?GetDetour@?$PatchDetour@P6IXPA_K0IPAVCDataStore@Nampower@@@ZPAX@hadesmem@@UBEPBXXZ 100400c0 f i main.cpp.obj
 0001:0003f0c0       ?GetDetour@?$PatchDetour@P6IXPA_KI@ZPAX@hadesmem@@UBEPBXXZ 100400c0 f i main.cpp.obj
 0001:0003f0c0       ?GetDetour@?$PatchDetour@P6IXPA_KPBDHHH@ZPAX@hadesmem@@UBEPBXXZ 100400c0 f i main.cpp.obj
 0001:0003f0c0       ?GetDetour@?$PatchDetour@P6IXXZPAX@hadesmem@@UBEPBXXZ 100400c0 f i main.cpp.obj
 0001:0003f0c0       ?GetDetour@?$PatchDetour@P6IX_K@ZPAX@hadesmem@@UBEPBXXZ 100400c0 f i main.cpp.obj
 0001:0003f0c0       ?GetDetour@?$PatchDetour@P6IX_N0W4SpellCastResult@game@@@ZPAX@hadesmem@@UBEPBXXZ 100400c0 f i main.cpp.obj
 0001:0003f0c0       ?GetDetour@?$PatchDetour@P6I_KPBD@ZPAX@hadesmem@@UBEPBXXZ 100400c0 f i main.cpp.obj
 0001:0003f0c0       ?GetDetour@?$PatchDetour@P6I_NPAI0IM@ZPAX@hadesmem@@UBEPBXXZ 100400c0 f i main.cpp.obj
 0001:0003f0c0       ?GetDetour@?$PatchDetour@P6I_NPAIIPAUCGItem_C@game@@_K@ZPAX@hadesmem@@UBEPBXXZ 100400c0 f i main.cpp.obj
 0001:0003f0c0       ?GetDetour@?$PatchDetour@P6I_NPAUEVENT_DATA_KEY@@H@ZPAX@hadesmem@@UBEPBXXZ 100400c0 f i main.cpp.obj
 0001:0003f0c0       ?GetDetour@?$PatchDetour@P6I_NPAUSpellRec@game@@PADHMMMMM@ZPAX@hadesmem@@UBEPBXXZ 100400c0 f i main.cpp.obj
 0001:0003f0d0       ?GetHumanReadableTime@Nampower@@YA?AV?$basic_string@DU?$char_traits@D@std@@V?$allocator@D@2@@std@@XZ 100400d0 f   main.cpp.obj
 0001:0003f2c0       ?GetLatencyMs@Nampower@@YAIXZ 100402c0 f   main.cpp.obj
 0001:0003f330       ?GetLuaStatePtr@Nampower@@YAPAIXZ 10040330 f   main.cpp.obj
 0001:0003f340       ?GetOriginalArbitraryUserPtr@PatchDetourBase@hadesmem@@UBEPAXXZ 10040340 f i main.cpp.obj
 0001:0003f360       ?GetOriginalArbitraryUserPtrPtr@PatchDetourBase@hadesmem@@KAPAPAXXZ 10040360 f i main.cpp.obj
 0001:0003f380       ?GetPatchSize@?$PatchDetour@P6GHPAIPAVCDataStore@Nampower@@@ZPAX@hadesmem@@MBEIXZ 10040380 f i main.cpp.obj
 0001:0003f5e0       ?GetPatchSize@?$PatchDetour@P6GXXZPAX@hadesmem@@MBEIXZ 100405e0 f i main.cpp.obj
 0001:0003f840       ?GetPatchSize@?$PatchDetour@P6IHIIIPAVCDataStore@Nampower@@@ZPAX@hadesmem@@MBEIXZ 10040840 f i main.cpp.obj
 0001:0003faa0       ?GetPatchSize@?$PatchDetour@P6IHPAI@ZPAX@hadesmem@@MBEIXZ 10040aa0 f i main.cpp.obj
 0001:0003fd00       ?GetPatchSize@?$PatchDetour@P6IHPAX0IPAPAH1HHHHIPAPAPAPAH@ZPAX@hadesmem@@MBEIXZ 10040d00 f i main.cpp.obj
 0001:0003ff60       ?GetPatchSize@?$PatchDetour@P6IH_K@ZPAX@hadesmem@@MBEIXZ 10040f60 f i main.cpp.obj
 0001:000401c0       ?GetPatchSize@?$PatchDetour@P6IIPAI00@ZPAX@hadesmem@@MBEIXZ 100411c0 f i main.cpp.obj
 0001:00040420       ?GetPatchSize@?$PatchDetour@P6IIPAI@ZPAX@hadesmem@@MBEIXZ 10041420 f i main.cpp.obj
 0001:00040680       ?GetPatchSize@?$PatchDetour@P6IIPAUCTerrainClickEvent@game@@@ZPAX@hadesmem@@MBEIXZ 10041680 f i main.cpp.obj
 0001:000408e0       ?GetPatchSize@?$PatchDetour@P6IPAHPAI@ZPAX@hadesmem@@MBEIXZ 100418e0 f i main.cpp.obj
 0001:00040b40       ?GetPatchSize@?$PatchDetour@P6IXEH@ZPAX@hadesmem@@MBEIXZ 10041b40 f i main.cpp.obj
 0001:00040da0       ?GetPatchSize@?$PatchDetour@P6IXHI@ZPAX@hadesmem@@MBEIXZ 10041da0 f i main.cpp.obj
 0001:00041000       ?GetPatchSize@?$PatchDetour@P6IXI@ZPAX@hadesmem@@MBEIXZ 10042000 f i main.cpp.obj
 0001:00041260       ?GetPatchSize@?$PatchDetour@P6IXIHH@ZPAX@hadesmem@@MBEIXZ 10042260 f i main.cpp.obj
 0001:000414c0       ?GetPatchSize@?$PatchDetour@P6IXIH_K@ZPAX@hadesmem@@MBEIXZ 100424c0 f i main.cpp.obj
 0001:00041720       ?GetPatchSize@?$PatchDetour@P6IXIW4SpellCastResult@game@@HH_N@ZPAX@hadesmem@@MBEIXZ 10042720 f i main.cpp.obj
 0001:00041980       ?GetPatchSize@?$PatchDetour@P6IXPAI@ZPAX@hadesmem@@MBEIXZ 10042980 f i main.cpp.obj
 0001:00041be0       ?GetPatchSize@?$PatchDetour@P6IXPAIPAXHE@ZPAX@hadesmem@@MBEIXZ 10042be0 f i main.cpp.obj
 0001:00041e40       ?GetPatchSize@?$PatchDetour@P6IXPAIPAXHHHH@ZPAX@hadesmem@@MBEIXZ 10042e40 f i main.cpp.obj
 0001:000420a0       ?GetPatchSize@?$PatchDetour@P6IXPAIPAXII@ZPAX@hadesmem@@MBEIXZ 100430a0 f i main.cpp.obj
 0001:00042300       ?GetPatchSize@?$PatchDetour@P6IXPAIPAXW4CHAT_COMMAND_ID@game@@PAD@ZPAX@hadesmem@@MBEIXZ 10043300 f i main.cpp.obj
 0001:00042560       ?GetPatchSize@?$PatchDetour@P6IXPAIPA_K@ZPAX@hadesmem@@MBEIXZ 10043560 f i main.cpp.obj
 0001:000427c0       ?GetPatchSize@?$PatchDetour@P6IXPAUSpellCast@game@@D@ZPAX@hadesmem@@MBEIXZ 100437c0 f i main.cpp.obj
 0001:00042a20       ?GetPatchSize@?$PatchDetour@P6IXPAX0I@ZPAX@hadesmem@@MBEIXZ 10043a20 f i main.cpp.obj
 0001:00042c80       ?GetPatchSize@?$PatchDetour@P6IXPAX0II@ZPAX@hadesmem@@MBEIXZ 10043c80 f i main.cpp.obj
 0001:00042ee0       ?GetPatchSize@?$PatchDetour@P6IXPAX0PAVCDataStore@Nampower@@@ZPAX@hadesmem@@MBEIXZ 10043ee0 f i main.cpp.obj
 0001:00043140       ?GetPatchSize@?$PatchDetour@P6IXPAXHH@ZPAX@hadesmem@@MBEIXZ 10044140 f i main.cpp.obj
 0001:000433a0       ?GetPatchSize@?$PatchDetour@P6IXPA_K0I@ZPAX@hadesmem@@MBEIXZ 100443a0 f i main.cpp.obj
 0001:00043600       ?GetPatchSize@?$PatchDetour@P6IXPA_K0II@ZPAX@hadesmem@@MBEIXZ 10044600 f i main.cpp.obj
 0001:00043860       ?GetPatchSize@?$PatchDetour@P6IXPA_K0IPAVCDataStore@Nampower@@@ZPAX@hadesmem@@MBEIXZ 10044860 f i main.cpp.obj
 0001:00043ac0       ?GetPatchSize@?$PatchDetour@P6IXPA_KI@ZPAX@hadesmem@@MBEIXZ 10044ac0 f i main.cpp.obj
 0001:00043d20       ?GetPatchSize@?$PatchDetour@P6IXPA_KPBDHHH@ZPAX@hadesmem@@MBEIXZ 10044d20 f i main.cpp.obj
 0001:00043f80       ?GetPatchSize@?$PatchDetour@P6IXXZPAX@hadesmem@@MBEIXZ 10044f80 f i main.cpp.obj
 0001:000441e0       ?GetPatchSize@?$PatchDetour@P6IX_K@ZPAX@hadesmem@@MBEIXZ 100451e0 f i main.cpp.obj
 0001:00044440       ?GetPatchSize@?$PatchDetour@P6IX_N0W4SpellCastResult@game@@@ZPAX@hadesmem@@MBEIXZ 10045440 f i main.cpp.obj
 0001:000446a0       ?GetPatchSize@?$PatchDetour@P6I_KPBD@ZPAX@hadesmem@@MBEIXZ 100456a0 f i main.cpp.obj
 0001:00044900       ?GetPatchSize@?$PatchDetour@P6I_NPAI0IM@ZPAX@hadesmem@@MBEIXZ 10045900 f i main.cpp.obj
 0001:00044b60       ?GetPatchSize@?$PatchDetour@P6I_NPAIIPAUCGItem_C@game@@_K@ZPAX@hadesmem@@MBEIXZ 10045b60 f i main.cpp.obj
 0001:00044dc0       ?GetPatchSize@?$PatchDetour@P6I_NPAUEVENT_DATA_KEY@@H@ZPAX@hadesmem@@MBEIXZ 10045dc0 f i main.cpp.obj
 0001:00045020       ?GetPatchSize@?$PatchDetour@P6I_NPAUSpellRec@game@@PADHMMMMM@ZPAX@hadesmem@@MBEIXZ 10046020 f i main.cpp.obj
 0001:00045280       ?GetRefCount@?$PatchDetour@P6GHPAIPAVCDataStore@Nampower@@@ZPAX@hadesmem@@UAEAAU?$atomic@I@std@@XZ 10046280 f i main.cpp.obj
 0001:00045280       ?GetRefCount@?$PatchDetour@P6GHPAIPAVCDataStore@Nampower@@@ZPAX@hadesmem@@UBEABU?$atomic@I@std@@XZ 10046280 f i main.cpp.obj
 0001:00045280       ?GetRefCount@?$PatchDetour@P6GXXZPAX@hadesmem@@UAEAAU?$atomic@I@std@@XZ 10046280 f i main.cpp.obj
 0001:00045280       ?GetRefCount@?$PatchDetour@P6GXXZPAX@hadesmem@@UBEABU?$atomic@I@std@@XZ 10046280 f i main.cpp.obj
 0001:00045280       ?GetRefCount@?$PatchDetour@P6IHIIIPAVCDataStore@Nampower@@@ZPAX@hadesmem@@UAEAAU?$atomic@I@std@@XZ 10046280 f i main.cpp.obj
 0001:00045280       ?GetRefCount@?$PatchDetour@P6IHIIIPAVCDataStore@Nampower@@@ZPAX@hadesmem@@UBEABU?$atomic@I@std@@XZ 10046280 f i main.cpp.obj
 0001:00045280       ?GetRefCount@?$PatchDetour@P6IHPAI@ZPAX@hadesmem@@UAEAAU?$atomic@I@std@@XZ 10046280 f i main.cpp.obj
 0001:00045280       ?GetRefCount@?$PatchDetour@P6IHPAI@ZPAX@hadesmem@@UBEABU?$atomic@I@std@@XZ 10046280 f i main.cpp.obj
 0001:00045280       ?GetRefCount@?$PatchDetour@P6IHPAX0IPAPAH1HHHHIPAPAPAPAH@ZPAX@hadesmem@@UAEAAU?$atomic@I@std@@XZ 10046280 f i main.cpp.obj
 0001:00045280       ?GetRefCount@?$PatchDetour@P6IHPAX0IPAPAH1HHHHIPAPAPAPAH@ZPAX@hadesmem@@UBEABU?$atomic@I@std@@XZ 10046280 f i main.cpp.obj
 0001:00045280       ?GetRefCount@?$PatchDetour@P6IH_K@ZPAX@hadesmem@@UAEAAU?$atomic@I@std@@XZ 10046280 f i main.cpp.obj
 0001:00045280       ?GetRefCount@?$PatchDetour@P6IH_K@ZPAX@hadesmem@@UBEABU?$atomic@I@std@@XZ 10046280 f i main.cpp.obj
 0001:00045280       ?GetRefCount@?$PatchDetour@P6IIPAI00@ZPAX@hadesmem@@UAEAAU?$atomic@I@std@@XZ 10046280 f i main.cpp.obj
 0001:00045280       ?GetRefCount@?$PatchDetour@P6IIPAI00@ZPAX@hadesmem@@UBEABU?$atomic@I@std@@XZ 10046280 f i main.cpp.obj
 0001:00045280       ?GetRefCount@?$PatchDetour@P6IIPAI@ZPAX@hadesmem@@UAEAAU?$atomic@I@std@@XZ 10046280 f i main.cpp.obj
 0001:00045280       ?GetRefCount@?$PatchDetour@P6IIPAI@ZPAX@hadesmem@@UBEABU?$atomic@I@std@@XZ 10046280 f i main.cpp.obj
 0001:00045280       ?GetRefCount@?$PatchDetour@P6IIPAUCTerrainClickEvent@game@@@ZPAX@hadesmem@@UAEAAU?$atomic@I@std@@XZ 10046280 f i main.cpp.obj
 0001:00045280       ?GetRefCount@?$PatchDetour@P6IIPAUCTerrainClickEvent@game@@@ZPAX@hadesmem@@UBEABU?$atomic@I@std@@XZ 10046280 f i main.cpp.obj
 0001:00045280       ?GetRefCount@?$PatchDetour@P6IPAHPAI@ZPAX@hadesmem@@UAEAAU?$atomic@I@std@@XZ 10046280 f i main.cpp.obj
 0001:00045280       ?GetRefCount@?$PatchDetour@P6IPAHPAI@ZPAX@hadesmem@@UBEABU?$atomic@I@std@@XZ 10046280 f i main.cpp.obj
 0001:00045280       ?GetRefCount@?$PatchDetour@P6IXEH@ZPAX@hadesmem@@UAEAAU?$atomic@I@std@@XZ 10046280 f i main.cpp.obj
 0001:00045280       ?GetRefCount@?$PatchDetour@P6IXEH@ZPAX@hadesmem@@UBEABU?$atomic@I@std@@XZ 10046280 f i main.cpp.obj
 0001:00045280       ?GetRefCount@?$PatchDetour@P6IXHI@ZPAX@hadesmem@@UAEAAU?$atomic@I@std@@XZ 10046280 f i main.cpp.obj
 0001:00045280       ?GetRefCount@?$PatchDetour@P6IXHI@ZPAX@hadesmem@@UBEABU?$atomic@I@std@@XZ 10046280 f i main.cpp.obj
 0001:00045280       ?GetRefCount@?$PatchDetour@P6IXI@ZPAX@hadesmem@@UAEAAU?$atomic@I@std@@XZ 10046280 f i main.cpp.obj
 0001:00045280       ?GetRefCount@?$PatchDetour@P6IXI@ZPAX@hadesmem@@UBEABU?$atomic@I@std@@XZ 10046280 f i main.cpp.obj
 0001:00045280       ?GetRefCount@?$PatchDetour@P6IXIHH@ZPAX@hadesmem@@UAEAAU?$atomic@I@std@@XZ 10046280 f i main.cpp.obj
 0001:00045280       ?GetRefCount@?$PatchDetour@P6IXIHH@ZPAX@hadesmem@@UBEABU?$atomic@I@std@@XZ 10046280 f i main.cpp.obj
 0001:00045280       ?GetRefCount@?$PatchDetour@P6IXIH_K@ZPAX@hadesmem@@UAEAAU?$atomic@I@std@@XZ 10046280 f i main.cpp.obj
 0001:00045280       ?GetRefCount@?$PatchDetour@P6IXIH_K@ZPAX@hadesmem@@UBEABU?$atomic@I@std@@XZ 10046280 f i main.cpp.obj
 0001:00045280       ?GetRefCount@?$PatchDetour@P6IXIW4SpellCastResult@game@@HH_N@ZPAX@hadesmem@@UAEAAU?$atomic@I@std@@XZ 10046280 f i main.cpp.obj
 0001:00045280       ?GetRefCount@?$PatchDetour@P6IXIW4SpellCastResult@game@@HH_N@ZPAX@hadesmem@@UBEABU?$atomic@I@std@@XZ 10046280 f i main.cpp.obj
 0001:00045280       ?GetRefCount@?$PatchDetour@P6IXPAI@ZPAX@hadesmem@@UAEAAU?$atomic@I@std@@XZ 10046280 f i main.cpp.obj
 0001:00045280       ?GetRefCount@?$PatchDetour@P6IXPAI@ZPAX@hadesmem@@UBEABU?$atomic@I@std@@XZ 10046280 f i main.cpp.obj
 0001:00045280       ?GetRefCount@?$PatchDetour@P6IXPAIPAXHE@ZPAX@hadesmem@@UAEAAU?$atomic@I@std@@XZ 10046280 f i main.cpp.obj
 0001:00045280       ?GetRefCount@?$PatchDetour@P6IXPAIPAXHE@ZPAX@hadesmem@@UBEABU?$atomic@I@std@@XZ 10046280 f i main.cpp.obj
 0001:00045280       ?GetRefCount@?$PatchDetour@P6IXPAIPAXHHHH@ZPAX@hadesmem@@UAEAAU?$atomic@I@std@@XZ 10046280 f i main.cpp.obj
 0001:00045280       ?GetRefCount@?$PatchDetour@P6IXPAIPAXHHHH@ZPAX@hadesmem@@UBEABU?$atomic@I@std@@XZ 10046280 f i main.cpp.obj
 0001:00045280       ?GetRefCount@?$PatchDetour@P6IXPAIPAXII@ZPAX@hadesmem@@UAEAAU?$atomic@I@std@@XZ 10046280 f i main.cpp.obj
 0001:00045280       ?GetRefCount@?$PatchDetour@P6IXPAIPAXII@ZPAX@hadesmem@@UBEABU?$atomic@I@std@@XZ 10046280 f i main.cpp.obj
 0001:00045280       ?GetRefCount@?$PatchDetour@P6IXPAIPAXW4CHAT_COMMAND_ID@game@@PAD@ZPAX@hadesmem@@UAEAAU?$atomic@I@std@@XZ 10046280 f i main.cpp.obj
 0001:00045280       ?GetRefCount@?$PatchDetour@P6IXPAIPAXW4CHAT_COMMAND_ID@game@@PAD@ZPAX@hadesmem@@UBEABU?$atomic@I@std@@XZ 10046280 f i main.cpp.obj
 0001:00045280       ?GetRefCount@?$PatchDetour@P6IXPAIPA_K@ZPAX@hadesmem@@UAEAAU?$atomic@I@std@@XZ 10046280 f i main.cpp.obj
 0001:00045280       ?GetRefCount@?$PatchDetour@P6IXPAIPA_K@ZPAX@hadesmem@@UBEABU?$atomic@I@std@@XZ 10046280 f i main.cpp.obj
 0001:00045280       ?GetRefCount@?$PatchDetour@P6IXPAUSpellCast@game@@D@ZPAX@hadesmem@@UAEAAU?$atomic@I@std@@XZ 10046280 f i main.cpp.obj
 0001:00045280       ?GetRefCount@?$PatchDetour@P6IXPAUSpellCast@game@@D@ZPAX@hadesmem@@UBEABU?$atomic@I@std@@XZ 10046280 f i main.cpp.obj
 0001:00045280       ?GetRefCount@?$PatchDetour@P6IXPAX0I@ZPAX@hadesmem@@UAEAAU?$atomic@I@std@@XZ 10046280 f i main.cpp.obj
 0001:00045280       ?GetRefCount@?$PatchDetour@P6IXPAX0I@ZPAX@hadesmem@@UBEABU?$atomic@I@std@@XZ 10046280 f i main.cpp.obj
 0001:00045280       ?GetRefCount@?$PatchDetour@P6IXPAX0II@ZPAX@hadesmem@@UAEAAU?$atomic@I@std@@XZ 10046280 f i main.cpp.obj
 0001:00045280       ?GetRefCount@?$PatchDetour@P6IXPAX0II@ZPAX@hadesmem@@UBEABU?$atomic@I@std@@XZ 10046280 f i main.cpp.obj
 0001:00045280       ?GetRefCount@?$PatchDetour@P6IXPAX0PAVCDataStore@Nampower@@@ZPAX@hadesmem@@UAEAAU?$atomic@I@std@@XZ 10046280 f i main.cpp.obj
 0001:00045280       ?GetRefCount@?$PatchDetour@P6IXPAX0PAVCDataStore@Nampower@@@ZPAX@hadesmem@@UBEABU?$atomic@I@std@@XZ 10046280 f i main.cpp.obj
 0001:00045280       ?GetRefCount@?$PatchDetour@P6IXPAXHH@ZPAX@hadesmem@@UAEAAU?$atomic@I@std@@XZ 10046280 f i main.cpp.obj
 0001:00045280       ?GetRefCount@?$PatchDetour@P6IXPAXHH@ZPAX@hadesmem@@UBEABU?$atomic@I@std@@XZ 10046280 f i main.cpp.obj
 0001:00045280       ?GetRefCount@?$PatchDetour@P6IXPA_K0I@ZPAX@hadesmem@@UAEAAU?$atomic@I@std@@XZ 10046280 f i main.cpp.obj
 0001:00045280       ?GetRefCount@?$PatchDetour@P6IXPA_K0I@ZPAX@hadesmem@@UBEABU?$atomic@I@std@@XZ 10046280 f i main.cpp.obj
 0001:00045280       ?GetRefCount@?$PatchDetour@P6IXPA_K0II@ZPAX@hadesmem@@UAEAAU?$atomic@I@std@@XZ 10046280 f i main.cpp.obj
 0001:00045280       ?GetRefCount@?$PatchDetour@P6IXPA_K0II@ZPAX@hadesmem@@UBEABU?$atomic@I@std@@XZ 10046280 f i main.cpp.obj
 0001:00045280       ?GetRefCount@?$PatchDetour@P6IXPA_K0IPAVCDataStore@Nampower@@@ZPAX@hadesmem@@UAEAAU?$atomic@I@std@@XZ 10046280 f i main.cpp.obj
 0001:00045280       ?GetRefCount@?$PatchDetour@P6IXPA_K0IPAVCDataStore@Nampower@@@ZPAX@hadesmem@@UBEABU?$atomic@I@std@@XZ 10046280 f i main.cpp.obj
 0001:00045280       ?GetRefCount@?$PatchDetour@P6IXPA_KI@ZPAX@hadesmem@@UAEAAU?$atomic@I@std@@XZ 10046280 f i main.cpp.obj
 0001:00045280       ?GetRefCount@?$PatchDetour@P6IXPA_KI@ZPAX@hadesmem@@UBEABU?$atomic@I@std@@XZ 10046280 f i main.cpp.obj
 0001:00045280       ?GetRefCount@?$PatchDetour@P6IXPA_KPBDHHH@ZPAX@hadesmem@@UAEAAU?$atomic@I@std@@XZ 10046280 f i main.cpp.obj
 0001:00045280       ?GetRefCount@?$PatchDetour@P6IXPA_KPBDHHH@ZPAX@hadesmem@@UBEABU?$atomic@I@std@@XZ 10046280 f i main.cpp.obj
 0001:00045280       ?GetRefCount@?$PatchDetour@P6IXXZPAX@hadesmem@@UAEAAU?$atomic@I@std@@XZ 10046280 f i main.cpp.obj
 0001:00045280       ?GetRefCount@?$PatchDetour@P6IXXZPAX@hadesmem@@UBEABU?$atomic@I@std@@XZ 10046280 f i main.cpp.obj
 0001:00045280       ?GetRefCount@?$PatchDetour@P6IX_K@ZPAX@hadesmem@@UAEAAU?$atomic@I@std@@XZ 10046280 f i main.cpp.obj
 0001:00045280       ?GetRefCount@?$PatchDetour@P6IX_K@ZPAX@hadesmem@@UBEABU?$atomic@I@std@@XZ 10046280 f i main.cpp.obj
 0001:00045280       ?GetRefCount@?$PatchDetour@P6IX_N0W4SpellCastResult@game@@@ZPAX@hadesmem@@UAEAAU?$atomic@I@std@@XZ 10046280 f i main.cpp.obj
 0001:00045280       ?GetRefCount@?$PatchDetour@P6IX_N0W4SpellCastResult@game@@@ZPAX@hadesmem@@UBEABU?$atomic@I@std@@XZ 10046280 f i main.cpp.obj
 0001:00045280       ?GetRefCount@?$PatchDetour@P6I_KPBD@ZPAX@hadesmem@@UAEAAU?$atomic@I@std@@XZ 10046280 f i main.cpp.obj
 0001:00045280       ?GetRefCount@?$PatchDetour@P6I_KPBD@ZPAX@hadesmem@@UBEABU?$atomic@I@std@@XZ 10046280 f i main.cpp.obj
 0001:00045280       ?GetRefCount@?$PatchDetour@P6I_NPAI0IM@ZPAX@hadesmem@@UAEAAU?$atomic@I@std@@XZ 10046280 f i main.cpp.obj
 0001:00045280       ?GetRefCount@?$PatchDetour@P6I_NPAI0IM@ZPAX@hadesmem@@UBEABU?$atomic@I@std@@XZ 10046280 f i main.cpp.obj
 0001:00045280       ?GetRefCount@?$PatchDetour@P6I_NPAIIPAUCGItem_C@game@@_K@ZPAX@hadesmem@@UAEAAU?$atomic@I@std@@XZ 10046280 f i main.cpp.obj
 0001:00045280       ?GetRefCount@?$PatchDetour@P6I_NPAIIPAUCGItem_C@game@@_K@ZPAX@hadesmem@@UBEABU?$atomic@I@std@@XZ 10046280 f i main.cpp.obj
 0001:00045280       ?GetRefCount@?$PatchDetour@P6I_NPAUEVENT_DATA_KEY@@H@ZPAX@hadesmem@@UAEAAU?$atomic@I@std@@XZ 10046280 f i main.cpp.obj
 0001:00045280       ?GetRefCount@?$PatchDetour@P6I_NPAUEVENT_DATA_KEY@@H@ZPAX@hadesmem@@UBEABU?$atomic@I@std@@XZ 10046280 f i main.cpp.obj
 0001:00045280       ?GetRefCount@?$PatchDetour@P6I_NPAUSpellRec@game@@PADHMMMMM@ZPAX@hadesmem@@UAEAAU?$atomic@I@std@@XZ 10046280 f i main.cpp.obj
 0001:00045280       ?GetRefCount@?$PatchDetour@P6I_NPAUSpellRec@game@@PADHMMMMM@ZPAX@hadesmem@@UBEABU?$atomic@I@std@@XZ 10046280 f i main.cpp.obj
 0001:00045290       ?GetReturnAddressPtr@PatchDetourBase@hadesmem@@UBEPAXXZ 10046290 f i main.cpp.obj
 0001:000452b0       ?GetReturnAddressPtrPtr@PatchDetourBase@hadesmem@@KAPAPAXXZ 100462b0 f i main.cpp.obj
 0001:000452d0       ?GetServerDelayMs@Nampower@@YAIXZ 100462d0 f   main.cpp.obj
 0001:00045310       ?GetStringCvar@Nampower@@YAPBDPBD@Z 10046310 f   main.cpp.obj
 0001:00045330       ?GetTarget@?$PatchDetour@P6GHPAIPAVCDataStore@Nampower@@@ZPAX@hadesmem@@UBEPAXXZ 10046330 f i main.cpp.obj
 0001:00045330       ?GetTarget@?$PatchDetour@P6GXXZPAX@hadesmem@@UBEPAXXZ 10046330 f i main.cpp.obj
 0001:00045330       ?GetTarget@?$PatchDetour@P6IHIIIPAVCDataStore@Nampower@@@ZPAX@hadesmem@@UBEPAXXZ 10046330 f i main.cpp.obj
 0001:00045330       ?GetTarget@?$PatchDetour@P6IHPAI@ZPAX@hadesmem@@UBEPAXXZ 10046330 f i main.cpp.obj
 0001:00045330       ?GetTarget@?$PatchDetour@P6IHPAX0IPAPAH1HHHHIPAPAPAPAH@ZPAX@hadesmem@@UBEPAXXZ 10046330 f i main.cpp.obj
 0001:00045330       ?GetTarget@?$PatchDetour@P6IH_K@ZPAX@hadesmem@@UBEPAXXZ 10046330 f i main.cpp.obj
 0001:00045330       ?GetTarget@?$PatchDetour@P6IIPAI00@ZPAX@hadesmem@@UBEPAXXZ 10046330 f i main.cpp.obj
 0001:00045330       ?GetTarget@?$PatchDetour@P6IIPAI@ZPAX@hadesmem@@UBEPAXXZ 10046330 f i main.cpp.obj
 0001:00045330       ?GetTarget@?$PatchDetour@P6IIPAUCTerrainClickEvent@game@@@ZPAX@hadesmem@@UBEPAXXZ 10046330 f i main.cpp.obj
 0001:00045330       ?GetTarget@?$PatchDetour@P6IPAHPAI@ZPAX@hadesmem@@UBEPAXXZ 10046330 f i main.cpp.obj
 0001:00045330       ?GetTarget@?$PatchDetour@P6IXEH@ZPAX@hadesmem@@UBEPAXXZ 10046330 f i main.cpp.obj
 0001:00045330       ?GetTarget@?$PatchDetour@P6IXHI@ZPAX@hadesmem@@UBEPAXXZ 10046330 f i main.cpp.obj
 0001:00045330       ?GetTarget@?$PatchDetour@P6IXI@ZPAX@hadesmem@@UBEPAXXZ 10046330 f i main.cpp.obj
 0001:00045330       ?GetTarget@?$PatchDetour@P6IXIHH@ZPAX@hadesmem@@UBEPAXXZ 10046330 f i main.cpp.obj
 0001:00045330       ?GetTarget@?$PatchDetour@P6IXIH_K@ZPAX@hadesmem@@UBEPAXXZ 10046330 f i main.cpp.obj
 0001:00045330       ?GetTarget@?$PatchDetour@P6IXIW4SpellCastResult@game@@HH_N@ZPAX@hadesmem@@UBEPAXXZ 10046330 f i main.cpp.obj
 0001:00045330       ?GetTarget@?$PatchDetour@P6IXPAI@ZPAX@hadesmem@@UBEPAXXZ 10046330 f i main.cpp.obj
 0001:00045330       ?GetTarget@?$PatchDetour@P6IXPAIPAXHE@ZPAX@hadesmem@@UBEPAXXZ 10046330 f i main.cpp.obj
 0001:00045330       ?GetTarget@?$PatchDetour@P6IXPAIPAXHHHH@ZPAX@hadesmem@@UBEPAXXZ 10046330 f i main.cpp.obj
 0001:00045330       ?GetTarget@?$PatchDetour@P6IXPAIPAXII@ZPAX@hadesmem@@UBEPAXXZ 10046330 f i main.cpp.obj
 0001:00045330       ?GetTarget@?$PatchDetour@P6IXPAIPAXW4CHAT_COMMAND_ID@game@@PAD@ZPAX@hadesmem@@UBEPAXXZ 10046330 f i main.cpp.obj
 0001:00045330       ?GetTarget@?$PatchDetour@P6IXPAIPA_K@ZPAX@hadesmem@@UBEPAXXZ 10046330 f i main.cpp.obj
 0001:00045330       ?GetTarget@?$PatchDetour@P6IXPAUSpellCast@game@@D@ZPAX@hadesmem@@UBEPAXXZ 10046330 f i main.cpp.obj
 0001:00045330       ?GetTarget@?$PatchDetour@P6IXPAX0I@ZPAX@hadesmem@@UBEPAXXZ 10046330 f i main.cpp.obj
 0001:00045330       ?GetTarget@?$PatchDetour@P6IXPAX0II@ZPAX@hadesmem@@UBEPAXXZ 10046330 f i main.cpp.obj
 0001:00045330       ?GetTarget@?$PatchDetour@P6IXPAX0PAVCDataStore@Nampower@@@ZPAX@hadesmem@@UBEPAXXZ 10046330 f i main.cpp.obj
 0001:00045330       ?GetTarget@?$PatchDetour@P6IXPAXHH@ZPAX@hadesmem@@UBEPAXXZ 10046330 f i main.cpp.obj
 0001:00045330       ?GetTarget@?$PatchDetour@P6IXPA_K0I@ZPAX@hadesmem@@UBEPAXXZ 10046330 f i main.cpp.obj
 0001:00045330       ?GetTarget@?$PatchDetour@P6IXPA_K0II@ZPAX@hadesmem@@UBEPAXXZ 10046330 f i main.cpp.obj
 0001:00045330       ?GetTarget@?$PatchDetour@P6IXPA_K0IPAVCDataStore@Nampower@@@ZPAX@hadesmem@@UBEPAXXZ 10046330 f i main.cpp.obj
 0001:00045330       ?GetTarget@?$PatchDetour@P6IXPA_KI@ZPAX@hadesmem@@UBEPAXXZ 10046330 f i main.cpp.obj
 0001:00045330       ?GetTarget@?$PatchDetour@P6IXPA_KPBDHHH@ZPAX@hadesmem@@UBEPAXXZ 10046330 f i main.cpp.obj
 0001:00045330       ?GetTarget@?$PatchDetour@P6IXXZPAX@hadesmem@@UBEPAXXZ 10046330 f i main.cpp.obj
 0001:00045330       ?GetTarget@?$PatchDetour@P6IX_K@ZPAX@hadesmem@@UBEPAXXZ 10046330 f i main.cpp.obj
 0001:00045330       ?GetTarget@?$PatchDetour@P6IX_N0W4SpellCastResult@game@@@ZPAX@hadesmem@@UBEPAXXZ 10046330 f i main.cpp.obj
 0001:00045330       ?GetTarget@?$PatchDetour@P6I_KPBD@ZPAX@hadesmem@@UBEPAXXZ 10046330 f i main.cpp.obj
 0001:00045330       ?GetTarget@?$PatchDetour@P6I_NPAI0IM@ZPAX@hadesmem@@UBEPAXXZ 10046330 f i main.cpp.obj
 0001:00045330       ?GetTarget@?$PatchDetour@P6I_NPAIIPAUCGItem_C@game@@_K@ZPAX@hadesmem@@UBEPAXXZ 10046330 f i main.cpp.obj
 0001:00045330       ?GetTarget@?$PatchDetour@P6I_NPAUEVENT_DATA_KEY@@H@ZPAX@hadesmem@@UBEPAXXZ 10046330 f i main.cpp.obj
 0001:00045330       ?GetTarget@?$PatchDetour@P6I_NPAUSpellRec@game@@PADHMMMMM@ZPAX@hadesmem@@UBEPAXXZ 10046330 f i main.cpp.obj
 0001:00045340       ?GetThreadContext@hadesmem@@YA?AU_CONTEXT@@ABVThread@1@K@Z 10046340 f i main.cpp.obj
 0001:000454f0       ?GetTime@Nampower@@YAIXZ   100464f0 f   main.cpp.obj
 0001:00045520       ?GetTrampoline@?$PatchDetour@P6GHPAIPAVCDataStore@Nampower@@@ZPAX@hadesmem@@UBEPAXXZ 10046520 f i main.cpp.obj
 0001:00045520       ?GetTrampoline@?$PatchDetour@P6GXXZPAX@hadesmem@@UBEPAXXZ 10046520 f i main.cpp.obj
 0001:00045520       ?GetTrampoline@?$PatchDetour@P6IHIIIPAVCDataStore@Nampower@@@ZPAX@hadesmem@@UBEPAXXZ 10046520 f i main.cpp.obj
 0001:00045520       ?GetTrampoline@?$PatchDetour@P6IHPAI@ZPAX@hadesmem@@UBEPAXXZ 10046520 f i main.cpp.obj
 0001:00045520       ?GetTrampoline@?$PatchDetour@P6IHPAX0IPAPAH1HHHHIPAPAPAPAH@ZPAX@hadesmem@@UBEPAXXZ 10046520 f i main.cpp.obj
 0001:00045520       ?GetTrampoline@?$PatchDetour@P6IH_K@ZPAX@hadesmem@@UBEPAXXZ 10046520 f i main.cpp.obj
 0001:00045520       ?GetTrampoline@?$PatchDetour@P6IIPAI00@ZPAX@hadesmem@@UBEPAXXZ 10046520 f i main.cpp.obj
 0001:00045520       ?GetTrampoline@?$PatchDetour@P6IIPAI@ZPAX@hadesmem@@UBEPAXXZ 10046520 f i main.cpp.obj
 0001:00045520       ?GetTrampoline@?$PatchDetour@P6IIPAUCTerrainClickEvent@game@@@ZPAX@hadesmem@@UBEPAXXZ 10046520 f i main.cpp.obj
 0001:00045520       ?GetTrampoline@?$PatchDetour@P6IPAHPAI@ZPAX@hadesmem@@UBEPAXXZ 10046520 f i main.cpp.obj
 0001:00045520       ?GetTrampoline@?$PatchDetour@P6IXEH@ZPAX@hadesmem@@UBEPAXXZ 10046520 f i main.cpp.obj
 0001:00045520       ?GetTrampoline@?$PatchDetour@P6IXHI@ZPAX@hadesmem@@UBEPAXXZ 10046520 f i main.cpp.obj
 0001:00045520       ?GetTrampoline@?$PatchDetour@P6IXI@ZPAX@hadesmem@@UBEPAXXZ 10046520 f i main.cpp.obj
 0001:00045520       ?GetTrampoline@?$PatchDetour@P6IXIHH@ZPAX@hadesmem@@UBEPAXXZ 10046520 f i main.cpp.obj
 0001:00045520       ?GetTrampoline@?$PatchDetour@P6IXIH_K@ZPAX@hadesmem@@UBEPAXXZ 10046520 f i main.cpp.obj
 0001:00045520       ?GetTrampoline@?$PatchDetour@P6IXIW4SpellCastResult@game@@HH_N@ZPAX@hadesmem@@UBEPAXXZ 10046520 f i main.cpp.obj
 0001:00045520       ?GetTrampoline@?$PatchDetour@P6IXPAI@ZPAX@hadesmem@@UBEPAXXZ 10046520 f i main.cpp.obj
 0001:00045520       ?GetTrampoline@?$PatchDetour@P6IXPAIPAXHE@ZPAX@hadesmem@@UBEPAXXZ 10046520 f i main.cpp.obj
 0001:00045520       ?GetTrampoline@?$PatchDetour@P6IXPAIPAXHHHH@ZPAX@hadesmem@@UBEPAXXZ 10046520 f i main.cpp.obj
 0001:00045520       ?GetTrampoline@?$PatchDetour@P6IXPAIPAXII@ZPAX@hadesmem@@UBEPAXXZ 10046520 f i main.cpp.obj
 0001:00045520       ?GetTrampoline@?$PatchDetour@P6IXPAIPAXW4CHAT_COMMAND_ID@game@@PAD@ZPAX@hadesmem@@UBEPAXXZ 10046520 f i main.cpp.obj
 0001:00045520       ?GetTrampoline@?$PatchDetour@P6IXPAIPA_K@ZPAX@hadesmem@@UBEPAXXZ 10046520 f i main.cpp.obj
 0001:00045520       ?GetTrampoline@?$PatchDetour@P6IXPAUSpellCast@game@@D@ZPAX@hadesmem@@UBEPAXXZ 10046520 f i main.cpp.obj
 0001:00045520       ?GetTrampoline@?$PatchDetour@P6IXPAX0I@ZPAX@hadesmem@@UBEPAXXZ 10046520 f i main.cpp.obj
 0001:00045520       ?GetTrampoline@?$PatchDetour@P6IXPAX0II@ZPAX@hadesmem@@UBEPAXXZ 10046520 f i main.cpp.obj
 0001:00045520       ?GetTrampoline@?$PatchDetour@P6IXPAX0PAVCDataStore@Nampower@@@ZPAX@hadesmem@@UBEPAXXZ 10046520 f i main.cpp.obj
 0001:00045520       ?GetTrampoline@?$PatchDetour@P6IXPAXHH@ZPAX@hadesmem@@UBEPAXXZ 10046520 f i main.cpp.obj
 0001:00045520       ?GetTrampoline@?$PatchDetour@P6IXPA_K0I@ZPAX@hadesmem@@UBEPAXXZ 10046520 f i main.cpp.obj
 0001:00045520       ?GetTrampoline@?$PatchDetour@P6IXPA_K0II@ZPAX@hadesmem@@UBEPAXXZ 10046520 f i main.cpp.obj
 0001:00045520       ?GetTrampoline@?$PatchDetour@P6IXPA_K0IPAVCDataStore@Nampower@@@ZPAX@hadesmem@@UBEPAXXZ 10046520 f i main.cpp.obj
 0001:00045520       ?GetTrampoline@?$PatchDetour@P6IXPA_KI@ZPAX@hadesmem@@UBEPAXXZ 10046520 f i main.cpp.obj
 0001:00045520       ?GetTrampoline@?$PatchDetour@P6IXPA_KPBDHHH@ZPAX@hadesmem@@UBEPAXXZ 10046520 f i main.cpp.obj
 0001:00045520       ?GetTrampoline@?$PatchDetour@P6IXXZPAX@hadesmem@@UBEPAXXZ 10046520 f i main.cpp.obj
 0001:00045520       ?GetTrampoline@?$PatchDetour@P6IX_K@ZPAX@hadesmem@@UBEPAXXZ 10046520 f i main.cpp.obj
 0001:00045520       ?GetTrampoline@?$PatchDetour@P6IX_N0W4SpellCastResult@game@@@ZPAX@hadesmem@@UBEPAXXZ 10046520 f i main.cpp.obj
 0001:00045520       ?GetTrampoline@?$PatchDetour@P6I_KPBD@ZPAX@hadesmem@@UBEPAXXZ 10046520 f i main.cpp.obj
 0001:00045520       ?GetTrampoline@?$PatchDetour@P6I_NPAI0IM@ZPAX@hadesmem@@UBEPAXXZ 10046520 f i main.cpp.obj
 0001:00045520       ?GetTrampoline@?$PatchDetour@P6I_NPAIIPAUCGItem_C@game@@_K@ZPAX@hadesmem@@UBEPAXXZ 10046520 f i main.cpp.obj
 0001:00045520       ?GetTrampoline@?$PatchDetour@P6I_NPAUEVENT_DATA_KEY@@H@ZPAX@hadesmem@@UBEPAXXZ 10046520 f i main.cpp.obj
 0001:00045520       ?GetTrampoline@?$PatchDetour@P6I_NPAUSpellRec@game@@PADHMMMMM@ZPAX@hadesmem@@UBEPAXXZ 10046520 f i main.cpp.obj
 0001:00045530       ?GetWowTimeMs@Nampower@@YA_KXZ 10046530 f   main.cpp.obj
 0001:00045540       ?Glue_LoadScriptFunctionsHook@Nampower@@YAXPAVPatchDetourBase@hadesmem@@@Z 10046540 f   main.cpp.obj
 0001:000457b0       ?ISceneEndHook@Nampower@@YAPAHPAVPatchDetourBase@hadesmem@@PAI@Z 100467b0 f   main.cpp.obj
 0001:000457e0       ?InSpellQueueWindow@Nampower@@YA_NII_N@Z 100467e0 f   main.cpp.obj
 0001:00045890       ?IsApplied@?$PatchDetour@P6GHPAIPAVCDataStore@Nampower@@@ZPAX@hadesmem@@UBE_NXZ 10046890 f i main.cpp.obj
 0001:00045890       ?IsApplied@?$PatchDetour@P6GXXZPAX@hadesmem@@UBE_NXZ 10046890 f i main.cpp.obj
 0001:00045890       ?IsApplied@?$PatchDetour@P6IHIIIPAVCDataStore@Nampower@@@ZPAX@hadesmem@@UBE_NXZ 10046890 f i main.cpp.obj
 0001:00045890       ?IsApplied@?$PatchDetour@P6IHPAI@ZPAX@hadesmem@@UBE_NXZ 10046890 f i main.cpp.obj
 0001:00045890       ?IsApplied@?$PatchDetour@P6IHPAX0IPAPAH1HHHHIPAPAPAPAH@ZPAX@hadesmem@@UBE_NXZ 10046890 f i main.cpp.obj
 0001:00045890       ?IsApplied@?$PatchDetour@P6IH_K@ZPAX@hadesmem@@UBE_NXZ 10046890 f i main.cpp.obj
 0001:00045890       ?IsApplied@?$PatchDetour@P6IIPAI00@ZPAX@hadesmem@@UBE_NXZ 10046890 f i main.cpp.obj
 0001:00045890       ?IsApplied@?$PatchDetour@P6IIPAI@ZPAX@hadesmem@@UBE_NXZ 10046890 f i main.cpp.obj
 0001:00045890       ?IsApplied@?$PatchDetour@P6IIPAUCTerrainClickEvent@game@@@ZPAX@hadesmem@@UBE_NXZ 10046890 f i main.cpp.obj
 0001:00045890       ?IsApplied@?$PatchDetour@P6IPAHPAI@ZPAX@hadesmem@@UBE_NXZ 10046890 f i main.cpp.obj
 0001:00045890       ?IsApplied@?$PatchDetour@P6IXEH@ZPAX@hadesmem@@UBE_NXZ 10046890 f i main.cpp.obj
 0001:00045890       ?IsApplied@?$PatchDetour@P6IXHI@ZPAX@hadesmem@@UBE_NXZ 10046890 f i main.cpp.obj
 0001:00045890       ?IsApplied@?$PatchDetour@P6IXI@ZPAX@hadesmem@@UBE_NXZ 10046890 f i main.cpp.obj
 0001:00045890       ?IsApplied@?$PatchDetour@P6IXIHH@ZPAX@hadesmem@@UBE_NXZ 10046890 f i main.cpp.obj
 0001:00045890       ?IsApplied@?$PatchDetour@P6IXIH_K@ZPAX@hadesmem@@UBE_NXZ 10046890 f i main.cpp.obj
 0001:00045890       ?IsApplied@?$PatchDetour@P6IXIW4SpellCastResult@game@@HH_N@ZPAX@hadesmem@@UBE_NXZ 10046890 f i main.cpp.obj
 0001:00045890       ?IsApplied@?$PatchDetour@P6IXPAI@ZPAX@hadesmem@@UBE_NXZ 10046890 f i main.cpp.obj
 0001:00045890       ?IsApplied@?$PatchDetour@P6IXPAIPAXHE@ZPAX@hadesmem@@UBE_NXZ 10046890 f i main.cpp.obj
 0001:00045890       ?IsApplied@?$PatchDetour@P6IXPAIPAXHHHH@ZPAX@hadesmem@@UBE_NXZ 10046890 f i main.cpp.obj
 0001:00045890       ?IsApplied@?$PatchDetour@P6IXPAIPAXII@ZPAX@hadesmem@@UBE_NXZ 10046890 f i main.cpp.obj
 0001:00045890       ?IsApplied@?$PatchDetour@P6IXPAIPAXW4CHAT_COMMAND_ID@game@@PAD@ZPAX@hadesmem@@UBE_NXZ 10046890 f i main.cpp.obj
 0001:00045890       ?IsApplied@?$PatchDetour@P6IXPAIPA_K@ZPAX@hadesmem@@UBE_NXZ 10046890 f i main.cpp.obj
 0001:00045890       ?IsApplied@?$PatchDetour@P6IXPAUSpellCast@game@@D@ZPAX@hadesmem@@UBE_NXZ 10046890 f i main.cpp.obj
 0001:00045890       ?IsApplied@?$PatchDetour@P6IXPAX0I@ZPAX@hadesmem@@UBE_NXZ 10046890 f i main.cpp.obj
 0001:00045890       ?IsApplied@?$PatchDetour@P6IXPAX0II@ZPAX@hadesmem@@UBE_NXZ 10046890 f i main.cpp.obj
 0001:00045890       ?IsApplied@?$PatchDetour@P6IXPAX0PAVCDataStore@Nampower@@@ZPAX@hadesmem@@UBE_NXZ 10046890 f i main.cpp.obj
 0001:00045890       ?IsApplied@?$PatchDetour@P6IXPAXHH@ZPAX@hadesmem@@UBE_NXZ 10046890 f i main.cpp.obj
 0001:00045890       ?IsApplied@?$PatchDetour@P6IXPA_K0I@ZPAX@hadesmem@@UBE_NXZ 10046890 f i main.cpp.obj
 0001:00045890       ?IsApplied@?$PatchDetour@P6IXPA_K0II@ZPAX@hadesmem@@UBE_NXZ 10046890 f i main.cpp.obj
 0001:00045890       ?IsApplied@?$PatchDetour@P6IXPA_K0IPAVCDataStore@Nampower@@@ZPAX@hadesmem@@UBE_NXZ 10046890 f i main.cpp.obj
 0001:00045890       ?IsApplied@?$PatchDetour@P6IXPA_KI@ZPAX@hadesmem@@UBE_NXZ 10046890 f i main.cpp.obj
 0001:00045890       ?IsApplied@?$PatchDetour@P6IXPA_KPBDHHH@ZPAX@hadesmem@@UBE_NXZ 10046890 f i main.cpp.obj
 0001:00045890       ?IsApplied@?$PatchDetour@P6IXXZPAX@hadesmem@@UBE_NXZ 10046890 f i main.cpp.obj
 0001:00045890       ?IsApplied@?$PatchDetour@P6IX_K@ZPAX@hadesmem@@UBE_NXZ 10046890 f i main.cpp.obj
 0001:00045890       ?IsApplied@?$PatchDetour@P6IX_N0W4SpellCastResult@game@@@ZPAX@hadesmem@@UBE_NXZ 10046890 f i main.cpp.obj
 0001:00045890       ?IsApplied@?$PatchDetour@P6I_KPBD@ZPAX@hadesmem@@UBE_NXZ 10046890 f i main.cpp.obj
 0001:00045890       ?IsApplied@?$PatchDetour@P6I_NPAI0IM@ZPAX@hadesmem@@UBE_NXZ 10046890 f i main.cpp.obj
 0001:00045890       ?IsApplied@?$PatchDetour@P6I_NPAIIPAUCGItem_C@game@@_K@ZPAX@hadesmem@@UBE_NXZ 10046890 f i main.cpp.obj
 0001:00045890       ?IsApplied@?$PatchDetour@P6I_NPAUEVENT_DATA_KEY@@H@ZPAX@hadesmem@@UBE_NXZ 10046890 f i main.cpp.obj
 0001:00045890       ?IsApplied@?$PatchDetour@P6I_NPAUSpellRec@game@@PADHMMMMM@ZPAX@hadesmem@@UBE_NXZ 10046890 f i main.cpp.obj
 0001:00045890       ?do_decimal_point@?$numpunct@D@std@@MBEDXZ 10046890 f i main.cpp.obj
 0001:000458a0       ?IsWoW64Process@detail@hadesmem@@YA_NPAX@Z 100468a0 f i main.cpp.obj
 0001:000459a0       ?LuaCall@Nampower@@YAXPBD@Z 100469a0 f   main.cpp.obj
 0001:000459b0       ?OnSpriteRightClickHook@Nampower@@YAHPAVPatchDetourBase@hadesmem@@_K@Z 100469b0 f   main.cpp.obj
 0001:00045a50       ?Player_LoadScriptFunctionsHook@Nampower@@YAXPAVPatchDetourBase@hadesmem@@@Z 10046a50 f   main.cpp.obj
 0001:000466a0       ?Protect@detail@hadesmem@@YAKABVProcess@2@ABU_MEMORY_BASIC_INFORMATION@@K@Z 100476a0 f i main.cpp.obj
 0001:000467b0       ?Query@detail@hadesmem@@YA?AU_MEMORY_BASIC_INFORMATION@@ABVProcess@2@PBX@Z 100477b0 f i main.cpp.obj
 0001:000468c0       ?ReadImpl@detail@hadesmem@@YAXABVProcess@2@PAX1II@Z 100478c0 f i main.cpp.obj
 0001:00046cb0       ?ReadUnchecked@detail@hadesmem@@YAXABVProcess@2@PAX1II@Z 10047cb0 f i main.cpp.obj
 0001:00046dc0       ?RegisterLuaFunction@Nampower@@YAXPADPAI@Z 10047dc0 f   main.cpp.obj
 0001:00046ef0       ?Remove@?$PatchDetour@P6GHPAIPAVCDataStore@Nampower@@@ZPAX@hadesmem@@UAEXXZ 10047ef0 f i main.cpp.obj
 0001:00046ef0       ?Remove@?$PatchDetour@P6GXXZPAX@hadesmem@@UAEXXZ 10047ef0 f i main.cpp.obj
 0001:00046ef0       ?Remove@?$PatchDetour@P6IHIIIPAVCDataStore@Nampower@@@ZPAX@hadesmem@@UAEXXZ 10047ef0 f i main.cpp.obj
 0001:00046ef0       ?Remove@?$PatchDetour@P6IHPAI@ZPAX@hadesmem@@UAEXXZ 10047ef0 f i main.cpp.obj
 0001:00046ef0       ?Remove@?$PatchDetour@P6IHPAX0IPAPAH1HHHHIPAPAPAPAH@ZPAX@hadesmem@@UAEXXZ 10047ef0 f i main.cpp.obj
 0001:00046ef0       ?Remove@?$PatchDetour@P6IH_K@ZPAX@hadesmem@@UAEXXZ 10047ef0 f i main.cpp.obj
 0001:00046ef0       ?Remove@?$PatchDetour@P6IIPAI00@ZPAX@hadesmem@@UAEXXZ 10047ef0 f i main.cpp.obj
 0001:00046ef0       ?Remove@?$PatchDetour@P6IIPAI@ZPAX@hadesmem@@UAEXXZ 10047ef0 f i main.cpp.obj
 0001:00046ef0       ?Remove@?$PatchDetour@P6IIPAUCTerrainClickEvent@game@@@ZPAX@hadesmem@@UAEXXZ 10047ef0 f i main.cpp.obj
 0001:00046ef0       ?Remove@?$PatchDetour@P6IPAHPAI@ZPAX@hadesmem@@UAEXXZ 10047ef0 f i main.cpp.obj
 0001:00046ef0       ?Remove@?$PatchDetour@P6IXEH@ZPAX@hadesmem@@UAEXXZ 10047ef0 f i main.cpp.obj
 0001:00046ef0       ?Remove@?$PatchDetour@P6IXHI@ZPAX@hadesmem@@UAEXXZ 10047ef0 f i main.cpp.obj
 0001:00046ef0       ?Remove@?$PatchDetour@P6IXI@ZPAX@hadesmem@@UAEXXZ 10047ef0 f i main.cpp.obj
 0001:00046ef0       ?Remove@?$PatchDetour@P6IXIHH@ZPAX@hadesmem@@UAEXXZ 10047ef0 f i main.cpp.obj
 0001:00046ef0       ?Remove@?$PatchDetour@P6IXIH_K@ZPAX@hadesmem@@UAEXXZ 10047ef0 f i main.cpp.obj
 0001:00046ef0       ?Remove@?$PatchDetour@P6IXIW4SpellCastResult@game@@HH_N@ZPAX@hadesmem@@UAEXXZ 10047ef0 f i main.cpp.obj
 0001:00046ef0       ?Remove@?$PatchDetour@P6IXPAI@ZPAX@hadesmem@@UAEXXZ 10047ef0 f i main.cpp.obj
 0001:00046ef0       ?Remove@?$PatchDetour@P6IXPAIPAXHE@ZPAX@hadesmem@@UAEXXZ 10047ef0 f i main.cpp.obj
 0001:00046ef0       ?Remove@?$PatchDetour@P6IXPAIPAXHHHH@ZPAX@hadesmem@@UAEXXZ 10047ef0 f i main.cpp.obj
 0001:00046ef0       ?Remove@?$PatchDetour@P6IXPAIPAXII@ZPAX@hadesmem@@UAEXXZ 10047ef0 f i main.cpp.obj
 0001:00046ef0       ?Remove@?$PatchDetour@P6IXPAIPAXW4CHAT_COMMAND_ID@game@@PAD@ZPAX@hadesmem@@UAEXXZ 10047ef0 f i main.cpp.obj
 0001:00046ef0       ?Remove@?$PatchDetour@P6IXPAIPA_K@ZPAX@hadesmem@@UAEXXZ 10047ef0 f i main.cpp.obj
 0001:00046ef0       ?Remove@?$PatchDetour@P6IXPAUSpellCast@game@@D@ZPAX@hadesmem@@UAEXXZ 10047ef0 f i main.cpp.obj
 0001:00046ef0       ?Remove@?$PatchDetour@P6IXPAX0I@ZPAX@hadesmem@@UAEXXZ 10047ef0 f i main.cpp.obj
 0001:00046ef0       ?Remove@?$PatchDetour@P6IXPAX0II@ZPAX@hadesmem@@UAEXXZ 10047ef0 f i main.cpp.obj
 0001:00046ef0       ?Remove@?$PatchDetour@P6IXPAX0PAVCDataStore@Nampower@@@ZPAX@hadesmem@@UAEXXZ 10047ef0 f i main.cpp.obj
 0001:00046ef0       ?Remove@?$PatchDetour@P6IXPAXHH@ZPAX@hadesmem@@UAEXXZ 10047ef0 f i main.cpp.obj
 0001:00046ef0       ?Remove@?$PatchDetour@P6IXPA_K0I@ZPAX@hadesmem@@UAEXXZ 10047ef0 f i main.cpp.obj
 0001:00046ef0       ?Remove@?$PatchDetour@P6IXPA_K0II@ZPAX@hadesmem@@UAEXXZ 10047ef0 f i main.cpp.obj
 0001:00046ef0       ?Remove@?$PatchDetour@P6IXPA_K0IPAVCDataStore@Nampower@@@ZPAX@hadesmem@@UAEXXZ 10047ef0 f i main.cpp.obj
 0001:00046ef0       ?Remove@?$PatchDetour@P6IXPA_KI@ZPAX@hadesmem@@UAEXXZ 10047ef0 f i main.cpp.obj
 0001:00046ef0       ?Remove@?$PatchDetour@P6IXPA_KPBDHHH@ZPAX@hadesmem@@UAEXXZ 10047ef0 f i main.cpp.obj
 0001:00046ef0       ?Remove@?$PatchDetour@P6IXXZPAX@hadesmem@@UAEXXZ 10047ef0 f i main.cpp.obj
 0001:00046ef0       ?Remove@?$PatchDetour@P6IX_K@ZPAX@hadesmem@@UAEXXZ 10047ef0 f i main.cpp.obj
 0001:00046ef0       ?Remove@?$PatchDetour@P6IX_N0W4SpellCastResult@game@@@ZPAX@hadesmem@@UAEXXZ 10047ef0 f i main.cpp.obj
 0001:00046ef0       ?Remove@?$PatchDetour@P6I_KPBD@ZPAX@hadesmem@@UAEXXZ 10047ef0 f i main.cpp.obj
 0001:00046ef0       ?Remove@?$PatchDetour@P6I_NPAI0IM@ZPAX@hadesmem@@UAEXXZ 10047ef0 f i main.cpp.obj
 0001:00046ef0       ?Remove@?$PatchDetour@P6I_NPAIIPAUCGItem_C@game@@_K@ZPAX@hadesmem@@UAEXXZ 10047ef0 f i main.cpp.obj
 0001:00046ef0       ?Remove@?$PatchDetour@P6I_NPAUEVENT_DATA_KEY@@H@ZPAX@hadesmem@@UAEXXZ 10047ef0 f i main.cpp.obj
 0001:00046ef0       ?Remove@?$PatchDetour@P6I_NPAUSpellRec@game@@PADHMMMMM@ZPAX@hadesmem@@UAEXXZ 10047ef0 f i main.cpp.obj
 0001:00046f80       ?RemovePatch@?$PatchDetour@P6GHPAIPAVCDataStore@Nampower@@@ZPAX@hadesmem@@MAEXXZ 10047f80 f i main.cpp.obj
 0001:00046fc0       ?RemovePatch@?$PatchDetour@P6GXXZPAX@hadesmem@@MAEXXZ 10047fc0 f i main.cpp.obj
 0001:00047000       ?RemovePatch@?$PatchDetour@P6IHIIIPAVCDataStore@Nampower@@@ZPAX@hadesmem@@MAEXXZ 10048000 f i main.cpp.obj
 0001:00047040       ?RemovePatch@?$PatchDetour@P6IHPAI@ZPAX@hadesmem@@MAEXXZ 10048040 f i main.cpp.obj
 0001:00047080       ?RemovePatch@?$PatchDetour@P6IHPAX0IPAPAH1HHHHIPAPAPAPAH@ZPAX@hadesmem@@MAEXXZ 10048080 f i main.cpp.obj
 0001:000470c0       ?RemovePatch@?$PatchDetour@P6IH_K@ZPAX@hadesmem@@MAEXXZ 100480c0 f i main.cpp.obj
 0001:00047100       ?RemovePatch@?$PatchDetour@P6IIPAI00@ZPAX@hadesmem@@MAEXXZ 10048100 f i main.cpp.obj
 0001:00047140       ?RemovePatch@?$PatchDetour@P6IIPAI@ZPAX@hadesmem@@MAEXXZ 10048140 f i main.cpp.obj
 0001:00047180       ?RemovePatch@?$PatchDetour@P6IIPAUCTerrainClickEvent@game@@@ZPAX@hadesmem@@MAEXXZ 10048180 f i main.cpp.obj
 0001:000471c0       ?RemovePatch@?$PatchDetour@P6IPAHPAI@ZPAX@hadesmem@@MAEXXZ 100481c0 f i main.cpp.obj
 0001:00047200       ?RemovePatch@?$PatchDetour@P6IXEH@ZPAX@hadesmem@@MAEXXZ 10048200 f i main.cpp.obj
 0001:00047240       ?RemovePatch@?$PatchDetour@P6IXHI@ZPAX@hadesmem@@MAEXXZ 10048240 f i main.cpp.obj
 0001:00047280       ?RemovePatch@?$PatchDetour@P6IXI@ZPAX@hadesmem@@MAEXXZ 10048280 f i main.cpp.obj
 0001:000472c0       ?RemovePatch@?$PatchDetour@P6IXIHH@ZPAX@hadesmem@@MAEXXZ 100482c0 f i main.cpp.obj
 0001:00047300       ?RemovePatch@?$PatchDetour@P6IXIH_K@ZPAX@hadesmem@@MAEXXZ 10048300 f i main.cpp.obj
 0001:00047340       ?RemovePatch@?$PatchDetour@P6IXIW4SpellCastResult@game@@HH_N@ZPAX@hadesmem@@MAEXXZ 10048340 f i main.cpp.obj
 0001:00047380       ?RemovePatch@?$PatchDetour@P6IXPAI@ZPAX@hadesmem@@MAEXXZ 10048380 f i main.cpp.obj
 0001:000473c0       ?RemovePatch@?$PatchDetour@P6IXPAIPAXHE@ZPAX@hadesmem@@MAEXXZ 100483c0 f i main.cpp.obj
 0001:00047400       ?RemovePatch@?$PatchDetour@P6IXPAIPAXHHHH@ZPAX@hadesmem@@MAEXXZ 10048400 f i main.cpp.obj
 0001:00047440       ?RemovePatch@?$PatchDetour@P6IXPAIPAXII@ZPAX@hadesmem@@MAEXXZ 10048440 f i main.cpp.obj
 0001:00047480       ?RemovePatch@?$PatchDetour@P6IXPAIPAXW4CHAT_COMMAND_ID@game@@PAD@ZPAX@hadesmem@@MAEXXZ 10048480 f i main.cpp.obj
 0001:000474c0       ?RemovePatch@?$PatchDetour@P6IXPAIPA_K@ZPAX@hadesmem@@MAEXXZ 100484c0 f i main.cpp.obj
 0001:00047500       ?RemovePatch@?$PatchDetour@P6IXPAUSpellCast@game@@D@ZPAX@hadesmem@@MAEXXZ 10048500 f i main.cpp.obj
 0001:00047540       ?RemovePatch@?$PatchDetour@P6IXPAX0I@ZPAX@hadesmem@@MAEXXZ 10048540 f i main.cpp.obj
 0001:00047580       ?RemovePatch@?$PatchDetour@P6IXPAX0II@ZPAX@hadesmem@@MAEXXZ 10048580 f i main.cpp.obj
 0001:000475c0       ?RemovePatch@?$PatchDetour@P6IXPAX0PAVCDataStore@Nampower@@@ZPAX@hadesmem@@MAEXXZ 100485c0 f i main.cpp.obj
 0001:00047600       ?RemovePatch@?$PatchDetour@P6IXPAXHH@ZPAX@hadesmem@@MAEXXZ 10048600 f i main.cpp.obj
 0001:00047640       ?RemovePatch@?$PatchDetour@P6IXPA_K0I@ZPAX@hadesmem@@MAEXXZ 10048640 f i main.cpp.obj
 0001:00047680       ?RemovePatch@?$PatchDetour@P6IXPA_K0II@ZPAX@hadesmem@@MAEXXZ 10048680 f i main.cpp.obj
 0001:000476c0       ?RemovePatch@?$PatchDetour@P6IXPA_K0IPAVCDataStore@Nampower@@@ZPAX@hadesmem@@MAEXXZ 100486c0 f i main.cpp.obj
 0001:00047700       ?RemovePatch@?$PatchDetour@P6IXPA_KI@ZPAX@hadesmem@@MAEXXZ 10048700 f i main.cpp.obj
 0001:00047740       ?RemovePatch@?$PatchDetour@P6IXPA_KPBDHHH@ZPAX@hadesmem@@MAEXXZ 10048740 f i main.cpp.obj
 0001:00047780       ?RemovePatch@?$PatchDetour@P6IXXZPAX@hadesmem@@MAEXXZ 10048780 f i main.cpp.obj
 0001:000477c0       ?RemovePatch@?$PatchDetour@P6IX_K@ZPAX@hadesmem@@MAEXXZ 100487c0 f i main.cpp.obj
 0001:00047800       ?RemovePatch@?$PatchDetour@P6IX_N0W4SpellCastResult@game@@@ZPAX@hadesmem@@MAEXXZ 10048800 f i main.cpp.obj
 0001:00047840       ?RemovePatch@?$PatchDetour@P6I_KPBD@ZPAX@hadesmem@@MAEXXZ 10048840 f i main.cpp.obj
 0001:00047880       ?RemovePatch@?$PatchDetour@P6I_NPAI0IM@ZPAX@hadesmem@@MAEXXZ 10048880 f i main.cpp.obj
 0001:000478c0       ?RemovePatch@?$PatchDetour@P6I_NPAIIPAUCGItem_C@game@@_K@ZPAX@hadesmem@@MAEXXZ 100488c0 f i main.cpp.obj
 0001:00047900       ?RemovePatch@?$PatchDetour@P6I_NPAUEVENT_DATA_KEY@@H@ZPAX@hadesmem@@MAEXXZ 10048900 f i main.cpp.obj
 0001:00047940       ?RemovePatch@?$PatchDetour@P6I_NPAUSpellRec@game@@PADHMMMMM@ZPAX@hadesmem@@MAEXXZ 10048940 f i main.cpp.obj
 0001:00047980       ?RemoveUnchecked@?$PatchDetour@P6GHPAIPAVCDataStore@Nampower@@@ZPAX@hadesmem@@UAEXXZ 10048980 f i main.cpp.obj
 0001:00047a60       ?RemoveUnchecked@?$PatchDetour@P6GXXZPAX@hadesmem@@UAEXXZ 10048a60 f i main.cpp.obj
 0001:00047b40       ?RemoveUnchecked@?$PatchDetour@P6IHIIIPAVCDataStore@Nampower@@@ZPAX@hadesmem@@UAEXXZ 10048b40 f i main.cpp.obj
 0001:00047c20       ?RemoveUnchecked@?$PatchDetour@P6IHPAI@ZPAX@hadesmem@@UAEXXZ 10048c20 f i main.cpp.obj
 0001:00047d00       ?RemoveUnchecked@?$PatchDetour@P6IHPAX0IPAPAH1HHHHIPAPAPAPAH@ZPAX@hadesmem@@UAEXXZ 10048d00 f i main.cpp.obj
 0001:00047de0       ?RemoveUnchecked@?$PatchDetour@P6IH_K@ZPAX@hadesmem@@UAEXXZ 10048de0 f i main.cpp.obj
 0001:00047ec0       ?RemoveUnchecked@?$PatchDetour@P6IIPAI00@ZPAX@hadesmem@@UAEXXZ 10048ec0 f i main.cpp.obj
 0001:00047fa0       ?RemoveUnchecked@?$PatchDetour@P6IIPAI@ZPAX@hadesmem@@UAEXXZ 10048fa0 f i main.cpp.obj
 0001:00048080       ?RemoveUnchecked@?$PatchDetour@P6IIPAUCTerrainClickEvent@game@@@ZPAX@hadesmem@@UAEXXZ 10049080 f i main.cpp.obj
 0001:00048160       ?RemoveUnchecked@?$PatchDetour@P6IPAHPAI@ZPAX@hadesmem@@UAEXXZ 10049160 f i main.cpp.obj
 0001:00048240       ?RemoveUnchecked@?$PatchDetour@P6IXEH@ZPAX@hadesmem@@UAEXXZ 10049240 f i main.cpp.obj
 0001:00048320       ?RemoveUnchecked@?$PatchDetour@P6IXHI@ZPAX@hadesmem@@UAEXXZ 10049320 f i main.cpp.obj
 0001:00048400       ?RemoveUnchecked@?$PatchDetour@P6IXI@ZPAX@hadesmem@@UAEXXZ 10049400 f i main.cpp.obj
 0001:000484e0       ?RemoveUnchecked@?$PatchDetour@P6IXIHH@ZPAX@hadesmem@@UAEXXZ 100494e0 f i main.cpp.obj
 0001:000485c0       ?RemoveUnchecked@?$PatchDetour@P6IXIH_K@ZPAX@hadesmem@@UAEXXZ 100495c0 f i main.cpp.obj
 0001:000486a0       ?RemoveUnchecked@?$PatchDetour@P6IXIW4SpellCastResult@game@@HH_N@ZPAX@hadesmem@@UAEXXZ 100496a0 f i main.cpp.obj
 0001:00048780       ?RemoveUnchecked@?$PatchDetour@P6IXPAI@ZPAX@hadesmem@@UAEXXZ 10049780 f i main.cpp.obj
 0001:00048860       ?RemoveUnchecked@?$PatchDetour@P6IXPAIPAXHE@ZPAX@hadesmem@@UAEXXZ 10049860 f i main.cpp.obj
 0001:00048940       ?RemoveUnchecked@?$PatchDetour@P6IXPAIPAXHHHH@ZPAX@hadesmem@@UAEXXZ 10049940 f i main.cpp.obj
 0001:00048a20       ?RemoveUnchecked@?$PatchDetour@P6IXPAIPAXII@ZPAX@hadesmem@@UAEXXZ 10049a20 f i main.cpp.obj
 0001:00048b00       ?RemoveUnchecked@?$PatchDetour@P6IXPAIPAXW4CHAT_COMMAND_ID@game@@PAD@ZPAX@hadesmem@@UAEXXZ 10049b00 f i main.cpp.obj
 0001:00048be0       ?RemoveUnchecked@?$PatchDetour@P6IXPAIPA_K@ZPAX@hadesmem@@UAEXXZ 10049be0 f i main.cpp.obj
 0001:00048cc0       ?RemoveUnchecked@?$PatchDetour@P6IXPAUSpellCast@game@@D@ZPAX@hadesmem@@UAEXXZ 10049cc0 f i main.cpp.obj
 0001:00048da0       ?RemoveUnchecked@?$PatchDetour@P6IXPAX0I@ZPAX@hadesmem@@UAEXXZ 10049da0 f i main.cpp.obj
 0001:00048e80       ?RemoveUnchecked@?$PatchDetour@P6IXPAX0II@ZPAX@hadesmem@@UAEXXZ 10049e80 f i main.cpp.obj
 0001:00048f60       ?RemoveUnchecked@?$PatchDetour@P6IXPAX0PAVCDataStore@Nampower@@@ZPAX@hadesmem@@UAEXXZ 10049f60 f i main.cpp.obj
 0001:00049040       ?RemoveUnchecked@?$PatchDetour@P6IXPAXHH@ZPAX@hadesmem@@UAEXXZ 1004a040 f i main.cpp.obj
 0001:00049120       ?RemoveUnchecked@?$PatchDetour@P6IXPA_K0I@ZPAX@hadesmem@@UAEXXZ 1004a120 f i main.cpp.obj
 0001:00049200       ?RemoveUnchecked@?$PatchDetour@P6IXPA_K0II@ZPAX@hadesmem@@UAEXXZ 1004a200 f i main.cpp.obj
 0001:000492e0       ?RemoveUnchecked@?$PatchDetour@P6IXPA_K0IPAVCDataStore@Nampower@@@ZPAX@hadesmem@@UAEXXZ 1004a2e0 f i main.cpp.obj
 0001:000493c0       ?RemoveUnchecked@?$PatchDetour@P6IXPA_KI@ZPAX@hadesmem@@UAEXXZ 1004a3c0 f i main.cpp.obj
 0001:000494a0       ?RemoveUnchecked@?$PatchDetour@P6IXPA_KPBDHHH@ZPAX@hadesmem@@UAEXXZ 1004a4a0 f i main.cpp.obj
 0001:00049580       ?RemoveUnchecked@?$PatchDetour@P6IXXZPAX@hadesmem@@UAEXXZ 1004a580 f i main.cpp.obj
 0001:00049660       ?RemoveUnchecked@?$PatchDetour@P6IX_K@ZPAX@hadesmem@@UAEXXZ 1004a660 f i main.cpp.obj
 0001:00049740       ?RemoveUnchecked@?$PatchDetour@P6IX_N0W4SpellCastResult@game@@@ZPAX@hadesmem@@UAEXXZ 1004a740 f i main.cpp.obj
 0001:00049820       ?RemoveUnchecked@?$PatchDetour@P6I_KPBD@ZPAX@hadesmem@@UAEXXZ 1004a820 f i main.cpp.obj
 0001:00049900       ?RemoveUnchecked@?$PatchDetour@P6I_NPAI0IM@ZPAX@hadesmem@@UAEXXZ 1004a900 f i main.cpp.obj
 0001:000499e0       ?RemoveUnchecked@?$PatchDetour@P6I_NPAIIPAUCGItem_C@game@@_K@ZPAX@hadesmem@@UAEXXZ 1004a9e0 f i main.cpp.obj
 0001:00049ac0       ?RemoveUnchecked@?$PatchDetour@P6I_NPAUEVENT_DATA_KEY@@H@ZPAX@hadesmem@@UAEXXZ 1004aac0 f i main.cpp.obj
 0001:00049ba0       ?RemoveUnchecked@?$PatchDetour@P6I_NPAUSpellRec@game@@PADHMMMMM@ZPAX@hadesmem@@UAEXXZ 1004aba0 f i main.cpp.obj
 0001:00049c80       ?RemoveUnchecked@PatchRaw@hadesmem@@AAEXXZ 1004ac80 f i main.cpp.obj
 0001:00049db0       ?ResetCastFlags@Nampower@@YAXXZ 1004adb0 f   main.cpp.obj
 0001:00049e10       ?ResetChannelingFlags@Nampower@@YAXXZ 1004ae10 f   main.cpp.obj
 0001:00049e50       ?ResetDisenchantState@Nampower@@YAXXZ 1004ae50 f   main.cpp.obj
 0001:00049e80       ?ResetOnSwingFlags@Nampower@@YAXXZ 1004ae80 f   main.cpp.obj
 0001:00049ea0       ?RestoreUnchecked@ProtectGuard@detail@hadesmem@@QAEXXZ 1004aea0 f i main.cpp.obj
 0001:00049f60       ?ResumeUnchecked@SuspendedThread@hadesmem@@AAEXXZ 1004af60 f i main.cpp.obj
 0001:0004a0a0       ?Script_SetCVarHook@Nampower@@YAHPAVPatchDetourBase@hadesmem@@PAI@Z 1004b0a0 f   main.cpp.obj
 0001:0004a110       ?SetSelectionTarget@Nampower@@YAX_K@Z 1004b110 f   main.cpp.obj
 0001:0004a230       ?Stub@?$PatchDetourStub@P6GHPAIPAVCDataStore@Nampower@@@Z@detail@hadesmem@@SGHPAIPAVCDataStore@Nampower@@@Z 1004b230 f i main.cpp.obj
 0001:0004a2e0       ?Stub@?$PatchDetourStub@P6GXXZ@detail@hadesmem@@SGXXZ 1004b2e0 f i main.cpp.obj
 0001:0004a2e0       ?Stub@?$PatchDetourStub@P6IXXZ@detail@hadesmem@@SIXXZ 1004b2e0 f i main.cpp.obj
 0001:0004a380       ?Stub@?$PatchDetourStub@P6IHIIIPAVCDataStore@Nampower@@@Z@detail@hadesmem@@SIHIIIPAVCDataStore@Nampower@@@Z 1004b380 f i main.cpp.obj
 0001:0004a440       ?Stub@?$PatchDetourStub@P6IHPAI@Z@detail@hadesmem@@SIHPAI@Z 1004b440 f i main.cpp.obj
 0001:0004a440       ?Stub@?$PatchDetourStub@P6IIPAI@Z@detail@hadesmem@@SIIPAI@Z 1004b440 f i main.cpp.obj
 0001:0004a440       ?Stub@?$PatchDetourStub@P6IIPAUCTerrainClickEvent@game@@@Z@detail@hadesmem@@SIIPAUCTerrainClickEvent@game@@@Z 1004b440 f i main.cpp.obj
 0001:0004a440       ?Stub@?$PatchDetourStub@P6IPAHPAI@Z@detail@hadesmem@@SIPAHPAI@Z 1004b440 f i main.cpp.obj
 0001:0004a4e0       ?Stub@?$PatchDetourStub@P6IHPAX0IPAPAH1HHHHIPAPAPAPAH@Z@detail@hadesmem@@SIHPAX0IPAPAH1HHHHIPAPAPAPAH@Z 1004b4e0 f i main.cpp.obj
 0001:0004a5f0       ?Stub@?$PatchDetourStub@P6IH_K@Z@detail@hadesmem@@SIH_K@Z 1004b5f0 f i main.cpp.obj
 0001:0004a6a0       ?Stub@?$PatchDetourStub@P6IIPAI00@Z@detail@hadesmem@@SIIPAI00@Z 1004b6a0 f i main.cpp.obj
 0001:0004a760       ?Stub@?$PatchDetourStub@P6IXEH@Z@detail@hadesmem@@SIXEH@Z 1004b760 f i main.cpp.obj
 0001:0004a810       ?Stub@?$PatchDetourStub@P6IXHI@Z@detail@hadesmem@@SIXHI@Z 1004b810 f i main.cpp.obj
 0001:0004a810       ?Stub@?$PatchDetourStub@P6IXPAIPA_K@Z@detail@hadesmem@@SIXPAIPA_K@Z 1004b810 f i main.cpp.obj
 0001:0004a810       ?Stub@?$PatchDetourStub@P6IXPA_KI@Z@detail@hadesmem@@SIXPA_KI@Z 1004b810 f i main.cpp.obj
 0001:0004a8c0       ?Stub@?$PatchDetourStub@P6IXI@Z@detail@hadesmem@@SIXI@Z 1004b8c0 f i main.cpp.obj
 0001:0004a8c0       ?Stub@?$PatchDetourStub@P6IXPAI@Z@detail@hadesmem@@SIXPAI@Z 1004b8c0 f i main.cpp.obj
 0001:0004a960       ?Stub@?$PatchDetourStub@P6IXIHH@Z@detail@hadesmem@@SIXIHH@Z 1004b960 f i main.cpp.obj
 0001:0004a960       ?Stub@?$PatchDetourStub@P6IXPAX0I@Z@detail@hadesmem@@SIXPAX0I@Z 1004b960 f i main.cpp.obj
 0001:0004a960       ?Stub@?$PatchDetourStub@P6IXPAX0PAVCDataStore@Nampower@@@Z@detail@hadesmem@@SIXPAX0PAVCDataStore@Nampower@@@Z 1004b960 f i main.cpp.obj
 0001:0004a960       ?Stub@?$PatchDetourStub@P6IXPAXHH@Z@detail@hadesmem@@SIXPAXHH@Z 1004b960 f i main.cpp.obj
 0001:0004a960       ?Stub@?$PatchDetourStub@P6IXPA_K0I@Z@detail@hadesmem@@SIXPA_K0I@Z 1004b960 f i main.cpp.obj
 0001:0004aa20       ?Stub@?$PatchDetourStub@P6IXIH_K@Z@detail@hadesmem@@SIXIH_K@Z 1004ba20 f i main.cpp.obj
 0001:0004aae0       ?Stub@?$PatchDetourStub@P6IXIW4SpellCastResult@game@@HH_N@Z@detail@hadesmem@@SIXIW4SpellCastResult@game@@HH_N@Z 1004bae0 f i main.cpp.obj
 0001:0004abb0       ?Stub@?$PatchDetourStub@P6IXPAIPAXHE@Z@detail@hadesmem@@SIXPAIPAXHE@Z 1004bbb0 f i main.cpp.obj
 0001:0004ac70       ?Stub@?$PatchDetourStub@P6IXPAIPAXHHHH@Z@detail@hadesmem@@SIXPAIPAXHHHH@Z 1004bc70 f i main.cpp.obj
 0001:0004ad50       ?Stub@?$PatchDetourStub@P6IXPAIPAXII@Z@detail@hadesmem@@SIXPAIPAXII@Z 1004bd50 f i main.cpp.obj
 0001:0004ad50       ?Stub@?$PatchDetourStub@P6IXPAIPAXW4CHAT_COMMAND_ID@game@@PAD@Z@detail@hadesmem@@SIXPAIPAXW4CHAT_COMMAND_ID@game@@PAD@Z 1004bd50 f i main.cpp.obj
 0001:0004ad50       ?Stub@?$PatchDetourStub@P6IXPAX0II@Z@detail@hadesmem@@SIXPAX0II@Z 1004bd50 f i main.cpp.obj
 0001:0004ad50       ?Stub@?$PatchDetourStub@P6IXPA_K0II@Z@detail@hadesmem@@SIXPA_K0II@Z 1004bd50 f i main.cpp.obj
 0001:0004ad50       ?Stub@?$PatchDetourStub@P6IXPA_K0IPAVCDataStore@Nampower@@@Z@detail@hadesmem@@SIXPA_K0IPAVCDataStore@Nampower@@@Z 1004bd50 f i main.cpp.obj
 0001:0004ae10       ?Stub@?$PatchDetourStub@P6IXPAUSpellCast@game@@D@Z@detail@hadesmem@@SIXPAUSpellCast@game@@D@Z 1004be10 f i main.cpp.obj
 0001:0004aec0       ?Stub@?$PatchDetourStub@P6IXPA_KPBDHHH@Z@detail@hadesmem@@SIXPA_KPBDHHH@Z 1004bec0 f i main.cpp.obj
 0001:0004af90       ?Stub@?$PatchDetourStub@P6IX_K@Z@detail@hadesmem@@SIX_K@Z 1004bf90 f i main.cpp.obj
 0001:0004b040       ?Stub@?$PatchDetourStub@P6IX_N0W4SpellCastResult@game@@@Z@detail@hadesmem@@SIX_N0W4SpellCastResult@game@@@Z 1004c040 f i main.cpp.obj
 0001:0004b100       ?Stub@?$PatchDetourStub@P6I_KPBD@Z@detail@hadesmem@@SI_KPBD@Z 1004c100 f i main.cpp.obj
 0001:0004b1a0       ?Stub@?$PatchDetourStub@P6I_NPAI0IM@Z@detail@hadesmem@@SI_NPAI0IM@Z 1004c1a0 f i main.cpp.obj
 0001:0004b270       ?Stub@?$PatchDetourStub@P6I_NPAIIPAUCGItem_C@game@@_K@Z@detail@hadesmem@@SI_NPAIIPAUCGItem_C@game@@_K@Z 1004c270 f i main.cpp.obj
 0001:0004b340       ?Stub@?$PatchDetourStub@P6I_NPAUEVENT_DATA_KEY@@H@Z@detail@hadesmem@@SI_NPAUEVENT_DATA_KEY@@H@Z 1004c340 f i main.cpp.obj
 0001:0004b3f0       ?Stub@?$PatchDetourStub@P6I_NPAUSpellRec@game@@PADHMMMMM@Z@detail@hadesmem@@SI_NPAUSpellRec@game@@PADHMMMMM@Z 1004c3f0 f i main.cpp.obj
 0001:0004b4f0       ?SuspendThread@hadesmem@@YAKABVThread@1@@Z 1004c4f0 f i main.cpp.obj
 0001:0004b610       ?SysMsgInitializeHook@Nampower@@YAXPAVPatchDetourBase@hadesmem@@@Z 1004c610 f   main.cpp.obj
 0001:0004b6b0       ?Thread32First@detail@hadesmem@@YA?AV?$Optional@UtagTHREADENTRY32@@@12@PAX@Z 1004c6b0 f i main.cpp.obj
 0001:0004b7b0       ?TraceFormatImpl@@YAXPBDABV?$basic_string@DU?$char_traits@D@std@@V?$allocator@D@2@@std@@@Z 1004c7b0 f i main.cpp.obj
 0001:0004b8a0       ?VerifyPatchThreads@detail@hadesmem@@YAXKPAXI@Z 1004c8a0 f i main.cpp.obj
 0001:0004ba50       ?WriteCall@detail@hadesmem@@YAIABVProcess@2@PAX1AAV?$vector@V?$unique_ptr@VAllocator@hadesmem@@U?$default_delete@VAllocator@hadesmem@@@std@@@std@@V?$allocator@V?$unique_ptr@VAllocator@hadesmem@@U?$default_delete@VAllocator@hadesmem@@@std@@@std@@@2@@std@@@Z 1004ca50 f i main.cpp.obj
 0001:0004bbb0       ?WriteImpl@detail@hadesmem@@YAXABVProcess@2@PAXPBXI@Z 1004cbb0 f i main.cpp.obj
 0001:0004bf10       ?WriteJump@detail@hadesmem@@YAIABVProcess@2@PAX1_NPAV?$vector@V?$unique_ptr@VAllocator@hadesmem@@U?$default_delete@VAllocator@hadesmem@@@std@@@std@@V?$allocator@V?$unique_ptr@VAllocator@hadesmem@@U?$default_delete@VAllocator@hadesmem@@@std@@@std@@@2@@std@@@Z 1004cf10 f i main.cpp.obj
 0001:0004c070       ?WritePatch@?$PatchDetour@P6GHPAIPAVCDataStore@Nampower@@@ZPAX@hadesmem@@MAEXXZ 1004d070 f i main.cpp.obj
 0001:0004c0b0       ?WritePatch@?$PatchDetour@P6GXXZPAX@hadesmem@@MAEXXZ 1004d0b0 f i main.cpp.obj
 0001:0004c0f0       ?WritePatch@?$PatchDetour@P6IHIIIPAVCDataStore@Nampower@@@ZPAX@hadesmem@@MAEXXZ 1004d0f0 f i main.cpp.obj
 0001:0004c130       ?WritePatch@?$PatchDetour@P6IHPAI@ZPAX@hadesmem@@MAEXXZ 1004d130 f i main.cpp.obj
 0001:0004c170       ?WritePatch@?$PatchDetour@P6IHPAX0IPAPAH1HHHHIPAPAPAPAH@ZPAX@hadesmem@@MAEXXZ 1004d170 f i main.cpp.obj
 0001:0004c1b0       ?WritePatch@?$PatchDetour@P6IH_K@ZPAX@hadesmem@@MAEXXZ 1004d1b0 f i main.cpp.obj
 0001:0004c1f0       ?WritePatch@?$PatchDetour@P6IIPAI00@ZPAX@hadesmem@@MAEXXZ 1004d1f0 f i main.cpp.obj
 0001:0004c230       ?WritePatch@?$PatchDetour@P6IIPAI@ZPAX@hadesmem@@MAEXXZ 1004d230 f i main.cpp.obj
 0001:0004c270       ?WritePatch@?$PatchDetour@P6IIPAUCTerrainClickEvent@game@@@ZPAX@hadesmem@@MAEXXZ 1004d270 f i main.cpp.obj
 0001:0004c2b0       ?WritePatch@?$PatchDetour@P6IPAHPAI@ZPAX@hadesmem@@MAEXXZ 1004d2b0 f i main.cpp.obj
 0001:0004c2f0       ?WritePatch@?$PatchDetour@P6IXEH@ZPAX@hadesmem@@MAEXXZ 1004d2f0 f i main.cpp.obj
 0001:0004c330       ?WritePatch@?$PatchDetour@P6IXHI@ZPAX@hadesmem@@MAEXXZ 1004d330 f i main.cpp.obj
 0001:0004c370       ?WritePatch@?$PatchDetour@P6IXI@ZPAX@hadesmem@@MAEXXZ 1004d370 f i main.cpp.obj
 0001:0004c3b0       ?WritePatch@?$PatchDetour@P6IXIHH@ZPAX@hadesmem@@MAEXXZ 1004d3b0 f i main.cpp.obj
 0001:0004c3f0       ?WritePatch@?$PatchDetour@P6IXIH_K@ZPAX@hadesmem@@MAEXXZ 1004d3f0 f i main.cpp.obj
 0001:0004c430       ?WritePatch@?$PatchDetour@P6IXIW4SpellCastResult@game@@HH_N@ZPAX@hadesmem@@MAEXXZ 1004d430 f i main.cpp.obj
 0001:0004c470       ?WritePatch@?$PatchDetour@P6IXPAI@ZPAX@hadesmem@@MAEXXZ 1004d470 f i main.cpp.obj
 0001:0004c4b0       ?WritePatch@?$PatchDetour@P6IXPAIPAXHE@ZPAX@hadesmem@@MAEXXZ 1004d4b0 f i main.cpp.obj
 0001:0004c4f0       ?WritePatch@?$PatchDetour@P6IXPAIPAXHHHH@ZPAX@hadesmem@@MAEXXZ 1004d4f0 f i main.cpp.obj
 0001:0004c530       ?WritePatch@?$PatchDetour@P6IXPAIPAXII@ZPAX@hadesmem@@MAEXXZ 1004d530 f i main.cpp.obj
 0001:0004c570       ?WritePatch@?$PatchDetour@P6IXPAIPAXW4CHAT_COMMAND_ID@game@@PAD@ZPAX@hadesmem@@MAEXXZ 1004d570 f i main.cpp.obj
 0001:0004c5b0       ?WritePatch@?$PatchDetour@P6IXPAIPA_K@ZPAX@hadesmem@@MAEXXZ 1004d5b0 f i main.cpp.obj
 0001:0004c5f0       ?WritePatch@?$PatchDetour@P6IXPAUSpellCast@game@@D@ZPAX@hadesmem@@MAEXXZ 1004d5f0 f i main.cpp.obj
 0001:0004c630       ?WritePatch@?$PatchDetour@P6IXPAX0I@ZPAX@hadesmem@@MAEXXZ 1004d630 f i main.cpp.obj
 0001:0004c670       ?WritePatch@?$PatchDetour@P6IXPAX0II@ZPAX@hadesmem@@MAEXXZ 1004d670 f i main.cpp.obj
 0001:0004c6b0       ?WritePatch@?$PatchDetour@P6IXPAX0PAVCDataStore@Nampower@@@ZPAX@hadesmem@@MAEXXZ 1004d6b0 f i main.cpp.obj
 0001:0004c6f0       ?WritePatch@?$PatchDetour@P6IXPAXHH@ZPAX@hadesmem@@MAEXXZ 1004d6f0 f i main.cpp.obj
 0001:0004c730       ?WritePatch@?$PatchDetour@P6IXPA_K0I@ZPAX@hadesmem@@MAEXXZ 1004d730 f i main.cpp.obj
 0001:0004c770       ?WritePatch@?$PatchDetour@P6IXPA_K0II@ZPAX@hadesmem@@MAEXXZ 1004d770 f i main.cpp.obj
 0001:0004c7b0       ?WritePatch@?$PatchDetour@P6IXPA_K0IPAVCDataStore@Nampower@@@ZPAX@hadesmem@@MAEXXZ 1004d7b0 f i main.cpp.obj
 0001:0004c7f0       ?WritePatch@?$PatchDetour@P6IXPA_KI@ZPAX@hadesmem@@MAEXXZ 1004d7f0 f i main.cpp.obj
 0001:0004c830       ?WritePatch@?$PatchDetour@P6IXPA_KPBDHHH@ZPAX@hadesmem@@MAEXXZ 1004d830 f i main.cpp.obj
 0001:0004c870       ?WritePatch@?$PatchDetour@P6IXXZPAX@hadesmem@@MAEXXZ 1004d870 f i main.cpp.obj
 0001:0004c8b0       ?WritePatch@?$PatchDetour@P6IX_K@ZPAX@hadesmem@@MAEXXZ 1004d8b0 f i main.cpp.obj
 0001:0004c8f0       ?WritePatch@?$PatchDetour@P6IX_N0W4SpellCastResult@game@@@ZPAX@hadesmem@@MAEXXZ 1004d8f0 f i main.cpp.obj
 0001:0004c930       ?WritePatch@?$PatchDetour@P6I_KPBD@ZPAX@hadesmem@@MAEXXZ 1004d930 f i main.cpp.obj
 0001:0004c970       ?WritePatch@?$PatchDetour@P6I_NPAI0IM@ZPAX@hadesmem@@MAEXXZ 1004d970 f i main.cpp.obj
 0001:0004c9b0       ?WritePatch@?$PatchDetour@P6I_NPAIIPAUCGItem_C@game@@_K@ZPAX@hadesmem@@MAEXXZ 1004d9b0 f i main.cpp.obj
 0001:0004c9f0       ?WritePatch@?$PatchDetour@P6I_NPAUEVENT_DATA_KEY@@H@ZPAX@hadesmem@@MAEXXZ 1004d9f0 f i main.cpp.obj
 0001:0004ca30       ?WritePatch@?$PatchDetour@P6I_NPAUSpellRec@game@@PADHMMMMM@ZPAX@hadesmem@@MAEXXZ 1004da30 f i main.cpp.obj
 0001:0004ca70       ?WriteUnchecked@detail@hadesmem@@YAXABVProcess@2@PAXPBXI@Z 1004da70 f i main.cpp.obj
 0001:0004cb80       ?_Buy_nonzero@?$vector@DV?$allocator@D@std@@@std@@AAEXI@Z 1004db80 f i main.cpp.obj
 0001:0004cb80       ?_Buy_nonzero@?$vector@EV?$allocator@E@std@@@std@@AAEXI@Z 1004db80 f i main.cpp.obj
 0001:0004cc10       ?_Copy@?$_Func_impl_no_alloc@P6AHPAVPatchDetourBase@hadesmem@@IIIPAVCDataStore@Nampower@@@ZHPAV12@IIIPAV34@@std@@EBEPAV?$_Func_base@HPAVPatchDetourBase@hadesmem@@IIIPAVCDataStore@Nampower@@@2@PAX@Z 1004dc10 f i main.cpp.obj
 0001:0004cc10       ?_Move@?$_Func_impl_no_alloc@P6AHPAVPatchDetourBase@hadesmem@@IIIPAVCDataStore@Nampower@@@ZHPAV12@IIIPAV34@@std@@EAEPAV?$_Func_base@HPAVPatchDetourBase@hadesmem@@IIIPAVCDataStore@Nampower@@@2@PAX@Z 1004dc10 f i main.cpp.obj
 0001:0004cc30       ?_Copy@?$_Func_impl_no_alloc@P6AHPAVPatchDetourBase@hadesmem@@PAI@ZHPAV12@PAI@std@@EBEPAV?$_Func_base@HPAVPatchDetourBase@hadesmem@@PAI@2@PAX@Z 1004dc30 f i main.cpp.obj
 0001:0004cc30       ?_Move@?$_Func_impl_no_alloc@P6AHPAVPatchDetourBase@hadesmem@@PAI@ZHPAV12@PAI@std@@EAEPAV?$_Func_base@HPAVPatchDetourBase@hadesmem@@PAI@2@PAX@Z 1004dc30 f i main.cpp.obj
 0001:0004cc50       ?_Copy@?$_Func_impl_no_alloc@P6AHPAVPatchDetourBase@hadesmem@@PAIPAVCDataStore@Nampower@@@ZHPAV12@PAIPAV34@@std@@EBEPAV?$_Func_base@HPAVPatchDetourBase@hadesmem@@PAIPAVCDataStore@Nampower@@@2@PAX@Z 1004dc50 f i main.cpp.obj
 0001:0004cc50       ?_Move@?$_Func_impl_no_alloc@P6AHPAVPatchDetourBase@hadesmem@@PAIPAVCDataStore@Nampower@@@ZHPAV12@PAIPAV34@@std@@EAEPAV?$_Func_base@HPAVPatchDetourBase@hadesmem@@PAIPAVCDataStore@Nampower@@@2@PAX@Z 1004dc50 f i main.cpp.obj
 0001:0004cc70       ?_Copy@?$_Func_impl_no_alloc@P6AHPAVPatchDetourBase@hadesmem@@PAX1IPAPAH2HHHHIPAPAPAPAH@ZHPAV12@PAXPAXIPAPAHPAPAHHHHHIPAPAPAPAH@std@@EBEPAV?$_Func_base@HPAVPatchDetourBase@hadesmem@@PAXPAXIPAPAHPAPAHHHHHIPAPAPAPAH@2@PAX@Z 1004dc70 f i main.cpp.obj
 0001:0004cc70       ?_Move@?$_Func_impl_no_alloc@P6AHPAVPatchDetourBase@hadesmem@@PAX1IPAPAH2HHHHIPAPAPAPAH@ZHPAV12@PAXPAXIPAPAHPAPAHHHHHIPAPAPAPAH@std@@EAEPAV?$_Func_base@HPAVPatchDetourBase@hadesmem@@PAXPAXIPAPAHPAPAHHHHHIPAPAPAPAH@2@PAX@Z 1004dc70 f i main.cpp.obj
 0001:0004cc90       ?_Copy@?$_Func_impl_no_alloc@P6AHPAVPatchDetourBase@hadesmem@@_K@ZHPAV12@_K@std@@EBEPAV?$_Func_base@HPAVPatchDetourBase@hadesmem@@_K@2@PAX@Z 1004dc90 f i main.cpp.obj
 0001:0004cc90       ?_Move@?$_Func_impl_no_alloc@P6AHPAVPatchDetourBase@hadesmem@@_K@ZHPAV12@_K@std@@EAEPAV?$_Func_base@HPAVPatchDetourBase@hadesmem@@_K@2@PAX@Z 1004dc90 f i main.cpp.obj
 0001:0004ccb0       ?_Copy@?$_Func_impl_no_alloc@P6AIPAVPatchDetourBase@hadesmem@@PAI11@ZIPAV12@PAIPAIPAI@std@@EBEPAV?$_Func_base@IPAVPatchDetourBase@hadesmem@@PAIPAIPAI@2@PAX@Z 1004dcb0 f i main.cpp.obj
 0001:0004ccb0       ?_Move@?$_Func_impl_no_alloc@P6AIPAVPatchDetourBase@hadesmem@@PAI11@ZIPAV12@PAIPAIPAI@std@@EAEPAV?$_Func_base@IPAVPatchDetourBase@hadesmem@@PAIPAIPAI@2@PAX@Z 1004dcb0 f i main.cpp.obj
 0001:0004ccd0       ?_Copy@?$_Func_impl_no_alloc@P6AIPAVPatchDetourBase@hadesmem@@PAI@ZIPAV12@PAI@std@@EBEPAV?$_Func_base@IPAVPatchDetourBase@hadesmem@@PAI@2@PAX@Z 1004dcd0 f i main.cpp.obj
 0001:0004ccd0       ?_Move@?$_Func_impl_no_alloc@P6AIPAVPatchDetourBase@hadesmem@@PAI@ZIPAV12@PAI@std@@EAEPAV?$_Func_base@IPAVPatchDetourBase@hadesmem@@PAI@2@PAX@Z 1004dcd0 f i main.cpp.obj
 0001:0004ccf0       ?_Copy@?$_Func_impl_no_alloc@P6AIPAVPatchDetourBase@hadesmem@@PAUCTerrainClickEvent@game@@@ZIPAV12@PAU34@@std@@EBEPAV?$_Func_base@IPAVPatchDetourBase@hadesmem@@PAUCTerrainClickEvent@game@@@2@PAX@Z 1004dcf0 f i main.cpp.obj
 0001:0004ccf0       ?_Move@?$_Func_impl_no_alloc@P6AIPAVPatchDetourBase@hadesmem@@PAUCTerrainClickEvent@game@@@ZIPAV12@PAU34@@std@@EAEPAV?$_Func_base@IPAVPatchDetourBase@hadesmem@@PAUCTerrainClickEvent@game@@@2@PAX@Z 1004dcf0 f i main.cpp.obj
 0001:0004cd10       ?_Copy@?$_Func_impl_no_alloc@P6APAHPAVPatchDetourBase@hadesmem@@PAI@ZPAHPAV12@PAI@std@@EBEPAV?$_Func_base@PAHPAVPatchDetourBase@hadesmem@@PAI@2@PAX@Z 1004dd10 f i main.cpp.obj
 0001:0004cd10       ?_Move@?$_Func_impl_no_alloc@P6APAHPAVPatchDetourBase@hadesmem@@PAI@ZPAHPAV12@PAI@std@@EAEPAV?$_Func_base@PAHPAVPatchDetourBase@hadesmem@@PAI@2@PAX@Z 1004dd10 f i main.cpp.obj
 0001:0004cd30       ?_Copy@?$_Func_impl_no_alloc@P6AXPAVPatchDetourBase@hadesmem@@@ZXPAV12@@std@@EBEPAV?$_Func_base@XPAVPatchDetourBase@hadesmem@@@2@PAX@Z 1004dd30 f i main.cpp.obj
 0001:0004cd30       ?_Move@?$_Func_impl_no_alloc@P6AXPAVPatchDetourBase@hadesmem@@@ZXPAV12@@std@@EAEPAV?$_Func_base@XPAVPatchDetourBase@hadesmem@@@2@PAX@Z 1004dd30 f i main.cpp.obj
 0001:0004cd50       ?_Copy@?$_Func_impl_no_alloc@P6AXPAVPatchDetourBase@hadesmem@@EH@ZXPAV12@EH@std@@EBEPAV?$_Func_base@XPAVPatchDetourBase@hadesmem@@EH@2@PAX@Z 1004dd50 f i main.cpp.obj
 0001:0004cd50       ?_Move@?$_Func_impl_no_alloc@P6AXPAVPatchDetourBase@hadesmem@@EH@ZXPAV12@EH@std@@EAEPAV?$_Func_base@XPAVPatchDetourBase@hadesmem@@EH@2@PAX@Z 1004dd50 f i main.cpp.obj
 0001:0004cd70       ?_Copy@?$_Func_impl_no_alloc@P6AXPAVPatchDetourBase@hadesmem@@HI@ZXPAV12@HI@std@@EBEPAV?$_Func_base@XPAVPatchDetourBase@hadesmem@@HI@2@PAX@Z 1004dd70 f i main.cpp.obj
 0001:0004cd70       ?_Move@?$_Func_impl_no_alloc@P6AXPAVPatchDetourBase@hadesmem@@HI@ZXPAV12@HI@std@@EAEPAV?$_Func_base@XPAVPatchDetourBase@hadesmem@@HI@2@PAX@Z 1004dd70 f i main.cpp.obj
 0001:0004cd90       ?_Copy@?$_Func_impl_no_alloc@P6AXPAVPatchDetourBase@hadesmem@@I@ZXPAV12@I@std@@EBEPAV?$_Func_base@XPAVPatchDetourBase@hadesmem@@I@2@PAX@Z 1004dd90 f i main.cpp.obj
 0001:0004cd90       ?_Move@?$_Func_impl_no_alloc@P6AXPAVPatchDetourBase@hadesmem@@I@ZXPAV12@I@std@@EAEPAV?$_Func_base@XPAVPatchDetourBase@hadesmem@@I@2@PAX@Z 1004dd90 f i main.cpp.obj
 0001:0004cdb0       ?_Copy@?$_Func_impl_no_alloc@P6AXPAVPatchDetourBase@hadesmem@@IHH@ZXPAV12@IHH@std@@EBEPAV?$_Func_base@XPAVPatchDetourBase@hadesmem@@IHH@2@PAX@Z 1004ddb0 f i main.cpp.obj
 0001:0004cdb0       ?_Move@?$_Func_impl_no_alloc@P6AXPAVPatchDetourBase@hadesmem@@IHH@ZXPAV12@IHH@std@@EAEPAV?$_Func_base@XPAVPatchDetourBase@hadesmem@@IHH@2@PAX@Z 1004ddb0 f i main.cpp.obj
 0001:0004cdd0       ?_Copy@?$_Func_impl_no_alloc@P6AXPAVPatchDetourBase@hadesmem@@IH_K@ZXPAV12@IH_K@std@@EBEPAV?$_Func_base@XPAVPatchDetourBase@hadesmem@@IH_K@2@PAX@Z 1004ddd0 f i main.cpp.obj
 0001:0004cdd0       ?_Move@?$_Func_impl_no_alloc@P6AXPAVPatchDetourBase@hadesmem@@IH_K@ZXPAV12@IH_K@std@@EAEPAV?$_Func_base@XPAVPatchDetourBase@hadesmem@@IH_K@2@PAX@Z 1004ddd0 f i main.cpp.obj
 0001:0004cdf0       ?_Copy@?$_Func_impl_no_alloc@P6AXPAVPatchDetourBase@hadesmem@@IW4SpellCastResult@game@@HH_N@ZXPAV12@IW434@HH_N@std@@EBEPAV?$_Func_base@XPAVPatchDetourBase@hadesmem@@IW4SpellCastResult@game@@HH_N@2@PAX@Z 1004ddf0 f i main.cpp.obj
 0001:0004cdf0       ?_Move@?$_Func_impl_no_alloc@P6AXPAVPatchDetourBase@hadesmem@@IW4SpellCastResult@game@@HH_N@ZXPAV12@IW434@HH_N@std@@EAEPAV?$_Func_base@XPAVPatchDetourBase@hadesmem@@IW4SpellCastResult@game@@HH_N@2@PAX@Z 1004ddf0 f i main.cpp.obj
 0001:0004ce10       ?_Copy@?$_Func_impl_no_alloc@P6AXPAVPatchDetourBase@hadesmem@@PAI@ZXPAV12@PAI@std@@EBEPAV?$_Func_base@XPAVPatchDetourBase@hadesmem@@PAI@2@PAX@Z 1004de10 f i main.cpp.obj
 0001:0004ce10       ?_Move@?$_Func_impl_no_alloc@P6AXPAVPatchDetourBase@hadesmem@@PAI@ZXPAV12@PAI@std@@EAEPAV?$_Func_base@XPAVPatchDetourBase@hadesmem@@PAI@2@PAX@Z 1004de10 f i main.cpp.obj
 0001:0004ce30       ?_Copy@?$_Func_impl_no_alloc@P6AXPAVPatchDetourBase@hadesmem@@PAIPAXHE@ZXPAV12@PAIPAXHE@std@@EBEPAV?$_Func_base@XPAVPatchDetourBase@hadesmem@@PAIPAXHE@2@PAX@Z 1004de30 f i main.cpp.obj
 0001:0004ce30       ?_Move@?$_Func_impl_no_alloc@P6AXPAVPatchDetourBase@hadesmem@@PAIPAXHE@ZXPAV12@PAIPAXHE@std@@EAEPAV?$_Func_base@XPAVPatchDetourBase@hadesmem@@PAIPAXHE@2@PAX@Z 1004de30 f i main.cpp.obj
 0001:0004ce50       ?_Copy@?$_Func_impl_no_alloc@P6AXPAVPatchDetourBase@hadesmem@@PAIPAXHHHH@ZXPAV12@PAIPAXHHHH@std@@EBEPAV?$_Func_base@XPAVPatchDetourBase@hadesmem@@PAIPAXHHHH@2@PAX@Z 1004de50 f i main.cpp.obj
 0001:0004ce50       ?_Move@?$_Func_impl_no_alloc@P6AXPAVPatchDetourBase@hadesmem@@PAIPAXHHHH@ZXPAV12@PAIPAXHHHH@std@@EAEPAV?$_Func_base@XPAVPatchDetourBase@hadesmem@@PAIPAXHHHH@2@PAX@Z 1004de50 f i main.cpp.obj
 0001:0004ce70       ?_Copy@?$_Func_impl_no_alloc@P6AXPAVPatchDetourBase@hadesmem@@PAIPAXII@ZXPAV12@PAIPAXII@std@@EBEPAV?$_Func_base@XPAVPatchDetourBase@hadesmem@@PAIPAXII@2@PAX@Z 1004de70 f i main.cpp.obj
 0001:0004ce70       ?_Move@?$_Func_impl_no_alloc@P6AXPAVPatchDetourBase@hadesmem@@PAIPAXII@ZXPAV12@PAIPAXII@std@@EAEPAV?$_Func_base@XPAVPatchDetourBase@hadesmem@@PAIPAXII@2@PAX@Z 1004de70 f i main.cpp.obj
 0001:0004ce90       ?_Copy@?$_Func_impl_no_alloc@P6AXPAVPatchDetourBase@hadesmem@@PAIPAXW4CHAT_COMMAND_ID@game@@PAD@ZXPAV12@PAIPAXW434@PAD@std@@EBEPAV?$_Func_base@XPAVPatchDetourBase@hadesmem@@PAIPAXW4CHAT_COMMAND_ID@game@@PAD@2@PAX@Z 1004de90 f i main.cpp.obj
 0001:0004ce90       ?_Move@?$_Func_impl_no_alloc@P6AXPAVPatchDetourBase@hadesmem@@PAIPAXW4CHAT_COMMAND_ID@game@@PAD@ZXPAV12@PAIPAXW434@PAD@std@@EAEPAV?$_Func_base@XPAVPatchDetourBase@hadesmem@@PAIPAXW4CHAT_COMMAND_ID@game@@PAD@2@PAX@Z 1004de90 f i main.cpp.obj
 0001:0004ceb0       ?_Copy@?$_Func_impl_no_alloc@P6AXPAVPatchDetourBase@hadesmem@@PAIPA_K@ZXPAV12@PAIPA_K@std@@EBEPAV?$_Func_base@XPAVPatchDetourBase@hadesmem@@PAIPA_K@2@PAX@Z 1004deb0 f i main.cpp.obj
 0001:0004ceb0       ?_Move@?$_Func_impl_no_alloc@P6AXPAVPatchDetourBase@hadesmem@@PAIPA_K@ZXPAV12@PAIPA_K@std@@EAEPAV?$_Func_base@XPAVPatchDetourBase@hadesmem@@PAIPA_K@2@PAX@Z 1004deb0 f i main.cpp.obj
 0001:0004ced0       ?_Copy@?$_Func_impl_no_alloc@P6AXPAVPatchDetourBase@hadesmem@@PAUSpellCast@game@@D@ZXPAV12@PAU34@D@std@@EBEPAV?$_Func_base@XPAVPatchDetourBase@hadesmem@@PAUSpellCast@game@@D@2@PAX@Z 1004ded0 f i main.cpp.obj
 0001:0004ced0       ?_Move@?$_Func_impl_no_alloc@P6AXPAVPatchDetourBase@hadesmem@@PAUSpellCast@game@@D@ZXPAV12@PAU34@D@std@@EAEPAV?$_Func_base@XPAVPatchDetourBase@hadesmem@@PAUSpellCast@game@@D@2@PAX@Z 1004ded0 f i main.cpp.obj
 0001:0004cef0       ?_Copy@?$_Func_impl_no_alloc@P6AXPAVPatchDetourBase@hadesmem@@PAX1I@ZXPAV12@PAXPAXI@std@@EBEPAV?$_Func_base@XPAVPatchDetourBase@hadesmem@@PAXPAXI@2@PAX@Z 1004def0 f i main.cpp.obj
 0001:0004cef0       ?_Move@?$_Func_impl_no_alloc@P6AXPAVPatchDetourBase@hadesmem@@PAX1I@ZXPAV12@PAXPAXI@std@@EAEPAV?$_Func_base@XPAVPatchDetourBase@hadesmem@@PAXPAXI@2@PAX@Z 1004def0 f i main.cpp.obj
 0001:0004cf10       ?_Copy@?$_Func_impl_no_alloc@P6AXPAVPatchDetourBase@hadesmem@@PAX1II@ZXPAV12@PAXPAXII@std@@EBEPAV?$_Func_base@XPAVPatchDetourBase@hadesmem@@PAXPAXII@2@PAX@Z 1004df10 f i main.cpp.obj
 0001:0004cf10       ?_Move@?$_Func_impl_no_alloc@P6AXPAVPatchDetourBase@hadesmem@@PAX1II@ZXPAV12@PAXPAXII@std@@EAEPAV?$_Func_base@XPAVPatchDetourBase@hadesmem@@PAXPAXII@2@PAX@Z 1004df10 f i main.cpp.obj
 0001:0004cf30       ?_Copy@?$_Func_impl_no_alloc@P6AXPAVPatchDetourBase@hadesmem@@PAX1PAVCDataStore@Nampower@@@ZXPAV12@PAXPAXPAV34@@std@@EBEPAV?$_Func_base@XPAVPatchDetourBase@hadesmem@@PAXPAXPAVCDataStore@Nampower@@@2@PAX@Z 1004df30 f i main.cpp.obj
 0001:0004cf30       ?_Move@?$_Func_impl_no_alloc@P6AXPAVPatchDetourBase@hadesmem@@PAX1PAVCDataStore@Nampower@@@ZXPAV12@PAXPAXPAV34@@std@@EAEPAV?$_Func_base@XPAVPatchDetourBase@hadesmem@@PAXPAXPAVCDataStore@Nampower@@@2@PAX@Z 1004df30 f i main.cpp.obj
 0001:0004cf50       ?_Copy@?$_Func_impl_no_alloc@P6AXPAVPatchDetourBase@hadesmem@@PAXHH@ZXPAV12@PAXHH@std@@EBEPAV?$_Func_base@XPAVPatchDetourBase@hadesmem@@PAXHH@2@PAX@Z 1004df50 f i main.cpp.obj
 0001:0004cf50       ?_Move@?$_Func_impl_no_alloc@P6AXPAVPatchDetourBase@hadesmem@@PAXHH@ZXPAV12@PAXHH@std@@EAEPAV?$_Func_base@XPAVPatchDetourBase@hadesmem@@PAXHH@2@PAX@Z 1004df50 f i main.cpp.obj
 0001:0004cf70       ?_Copy@?$_Func_impl_no_alloc@P6AXPAVPatchDetourBase@hadesmem@@PA_K1I@ZXPAV12@PA_KPA_KI@std@@EBEPAV?$_Func_base@XPAVPatchDetourBase@hadesmem@@PA_KPA_KI@2@PAX@Z 1004df70 f i main.cpp.obj
 0001:0004cf70       ?_Move@?$_Func_impl_no_alloc@P6AXPAVPatchDetourBase@hadesmem@@PA_K1I@ZXPAV12@PA_KPA_KI@std@@EAEPAV?$_Func_base@XPAVPatchDetourBase@hadesmem@@PA_KPA_KI@2@PAX@Z 1004df70 f i main.cpp.obj
 0001:0004cf90       ?_Copy@?$_Func_impl_no_alloc@P6AXPAVPatchDetourBase@hadesmem@@PA_K1II@ZXPAV12@PA_KPA_KII@std@@EBEPAV?$_Func_base@XPAVPatchDetourBase@hadesmem@@PA_KPA_KII@2@PAX@Z 1004df90 f i main.cpp.obj
 0001:0004cf90       ?_Move@?$_Func_impl_no_alloc@P6AXPAVPatchDetourBase@hadesmem@@PA_K1II@ZXPAV12@PA_KPA_KII@std@@EAEPAV?$_Func_base@XPAVPatchDetourBase@hadesmem@@PA_KPA_KII@2@PAX@Z 1004df90 f i main.cpp.obj
 0001:0004cfb0       ?_Copy@?$_Func_impl_no_alloc@P6AXPAVPatchDetourBase@hadesmem@@PA_K1IPAVCDataStore@Nampower@@@ZXPAV12@PA_KPA_KIPAV34@@std@@EBEPAV?$_Func_base@XPAVPatchDetourBase@hadesmem@@PA_KPA_KIPAVCDataStore@Nampower@@@2@PAX@Z 1004dfb0 f i main.cpp.obj
 0001:0004cfb0       ?_Move@?$_Func_impl_no_alloc@P6AXPAVPatchDetourBase@hadesmem@@PA_K1IPAVCDataStore@Nampower@@@ZXPAV12@PA_KPA_KIPAV34@@std@@EAEPAV?$_Func_base@XPAVPatchDetourBase@hadesmem@@PA_KPA_KIPAVCDataStore@Nampower@@@2@PAX@Z 1004dfb0 f i main.cpp.obj
 0001:0004cfd0       ?_Copy@?$_Func_impl_no_alloc@P6AXPAVPatchDetourBase@hadesmem@@PA_KI@ZXPAV12@PA_KI@std@@EBEPAV?$_Func_base@XPAVPatchDetourBase@hadesmem@@PA_KI@2@PAX@Z 1004dfd0 f i main.cpp.obj
 0001:0004cfd0       ?_Move@?$_Func_impl_no_alloc@P6AXPAVPatchDetourBase@hadesmem@@PA_KI@ZXPAV12@PA_KI@std@@EAEPAV?$_Func_base@XPAVPatchDetourBase@hadesmem@@PA_KI@2@PAX@Z 1004dfd0 f i main.cpp.obj
 0001:0004cff0       ?_Copy@?$_Func_impl_no_alloc@P6AXPAVPatchDetourBase@hadesmem@@PA_KPBDHHH@ZXPAV12@PA_KPBDHHH@std@@EBEPAV?$_Func_base@XPAVPatchDetourBase@hadesmem@@PA_KPBDHHH@2@PAX@Z 1004dff0 f i main.cpp.obj
 0001:0004cff0       ?_Move@?$_Func_impl_no_alloc@P6AXPAVPatchDetourBase@hadesmem@@PA_KPBDHHH@ZXPAV12@PA_KPBDHHH@std@@EAEPAV?$_Func_base@XPAVPatchDetourBase@hadesmem@@PA_KPBDHHH@2@PAX@Z 1004dff0 f i main.cpp.obj
 0001:0004d010       ?_Copy@?$_Func_impl_no_alloc@P6AXPAVPatchDetourBase@hadesmem@@_K@ZXPAV12@_K@std@@EBEPAV?$_Func_base@XPAVPatchDetourBase@hadesmem@@_K@2@PAX@Z 1004e010 f i main.cpp.obj
 0001:0004d010       ?_Move@?$_Func_impl_no_alloc@P6AXPAVPatchDetourBase@hadesmem@@_K@ZXPAV12@_K@std@@EAEPAV?$_Func_base@XPAVPatchDetourBase@hadesmem@@_K@2@PAX@Z 1004e010 f i main.cpp.obj
 0001:0004d030       ?_Copy@?$_Func_impl_no_alloc@P6AXPAVPatchDetourBase@hadesmem@@_N1W4SpellCastResult@game@@@ZXPAV12@_N_NW434@@std@@EBEPAV?$_Func_base@XPAVPatchDetourBase@hadesmem@@_N_NW4SpellCastResult@game@@@2@PAX@Z 1004e030 f i main.cpp.obj
 0001:0004d030       ?_Move@?$_Func_impl_no_alloc@P6AXPAVPatchDetourBase@hadesmem@@_N1W4SpellCastResult@game@@@ZXPAV12@_N_NW434@@std@@EAEPAV?$_Func_base@XPAVPatchDetourBase@hadesmem@@_N_NW4SpellCastResult@game@@@2@PAX@Z 1004e030 f i main.cpp.obj
 0001:0004d050       ?_Copy@?$_Func_impl_no_alloc@P6A_KPAVPatchDetourBase@hadesmem@@PBD@Z_KPAV12@PBD@std@@EBEPAV?$_Func_base@_KPAVPatchDetourBase@hadesmem@@PBD@2@PAX@Z 1004e050 f i main.cpp.obj
 0001:0004d050       ?_Move@?$_Func_impl_no_alloc@P6A_KPAVPatchDetourBase@hadesmem@@PBD@Z_KPAV12@PBD@std@@EAEPAV?$_Func_base@_KPAVPatchDetourBase@hadesmem@@PBD@2@PAX@Z 1004e050 f i main.cpp.obj
 0001:0004d070       ?_Copy@?$_Func_impl_no_alloc@P6A_NPAVPatchDetourBase@hadesmem@@PAI1IM@Z_NPAV12@PAIPAIIM@std@@EBEPAV?$_Func_base@_NPAVPatchDetourBase@hadesmem@@PAIPAIIM@2@PAX@Z 1004e070 f i main.cpp.obj
 0001:0004d070       ?_Move@?$_Func_impl_no_alloc@P6A_NPAVPatchDetourBase@hadesmem@@PAI1IM@Z_NPAV12@PAIPAIIM@std@@EAEPAV?$_Func_base@_NPAVPatchDetourBase@hadesmem@@PAIPAIIM@2@PAX@Z 1004e070 f i main.cpp.obj
 0001:0004d090       ?_Copy@?$_Func_impl_no_alloc@P6A_NPAVPatchDetourBase@hadesmem@@PAIIPAUCGItem_C@game@@_K@Z_NPAV12@PAIIPAU34@_K@std@@EBEPAV?$_Func_base@_NPAVPatchDetourBase@hadesmem@@PAIIPAUCGItem_C@game@@_K@2@PAX@Z 1004e090 f i main.cpp.obj
 0001:0004d090       ?_Move@?$_Func_impl_no_alloc@P6A_NPAVPatchDetourBase@hadesmem@@PAIIPAUCGItem_C@game@@_K@Z_NPAV12@PAIIPAU34@_K@std@@EAEPAV?$_Func_base@_NPAVPatchDetourBase@hadesmem@@PAIIPAUCGItem_C@game@@_K@2@PAX@Z 1004e090 f i main.cpp.obj
 0001:0004d0b0       ?_Copy@?$_Func_impl_no_alloc@P6A_NPAVPatchDetourBase@hadesmem@@PAUEVENT_DATA_KEY@@H@Z_NPAV12@PAU3@H@std@@EBEPAV?$_Func_base@_NPAVPatchDetourBase@hadesmem@@PAUEVENT_DATA_KEY@@H@2@PAX@Z 1004e0b0 f i main.cpp.obj
 0001:0004d0b0       ?_Move@?$_Func_impl_no_alloc@P6A_NPAVPatchDetourBase@hadesmem@@PAUEVENT_DATA_KEY@@H@Z_NPAV12@PAU3@H@std@@EAEPAV?$_Func_base@_NPAVPatchDetourBase@hadesmem@@PAUEVENT_DATA_KEY@@H@2@PAX@Z 1004e0b0 f i main.cpp.obj
 0001:0004d0d0       ?_Copy@?$_Func_impl_no_alloc@P6A_NPAVPatchDetourBase@hadesmem@@PAUSpellRec@game@@PADHMMMMM@Z_NPAV12@PAU34@PADHMMMMM@std@@EBEPAV?$_Func_base@_NPAVPatchDetourBase@hadesmem@@PAUSpellRec@game@@PADHMMMMM@2@PAX@Z 1004e0d0 f i main.cpp.obj
 0001:0004d0d0       ?_Move@?$_Func_impl_no_alloc@P6A_NPAVPatchDetourBase@hadesmem@@PAUSpellRec@game@@PADHMMMMM@Z_NPAV12@PAU34@PADHMMMMM@std@@EAEPAV?$_Func_base@_NPAVPatchDetourBase@hadesmem@@PAUSpellRec@game@@PADHMMMMM@2@PAX@Z 1004e0d0 f i main.cpp.obj
 0001:0004d0f0       ?_Delete_this@?$_Func_impl_no_alloc@P6AHPAVPatchDetourBase@hadesmem@@IIIPAVCDataStore@Nampower@@@ZHPAV12@IIIPAV34@@std@@EAEX_N@Z 1004e0f0 f i main.cpp.obj
 0001:0004d0f0       ?_Delete_this@?$_Func_impl_no_alloc@P6AHPAVPatchDetourBase@hadesmem@@PAI@ZHPAV12@PAI@std@@EAEX_N@Z 1004e0f0 f i main.cpp.obj
 0001:0004d0f0       ?_Delete_this@?$_Func_impl_no_alloc@P6AHPAVPatchDetourBase@hadesmem@@PAIPAVCDataStore@Nampower@@@ZHPAV12@PAIPAV34@@std@@EAEX_N@Z 1004e0f0 f i main.cpp.obj
 0001:0004d0f0       ?_Delete_this@?$_Func_impl_no_alloc@P6AHPAVPatchDetourBase@hadesmem@@PAX1IPAPAH2HHHHIPAPAPAPAH@ZHPAV12@PAXPAXIPAPAHPAPAHHHHHIPAPAPAPAH@std@@EAEX_N@Z 1004e0f0 f i main.cpp.obj
 0001:0004d0f0       ?_Delete_this@?$_Func_impl_no_alloc@P6AHPAVPatchDetourBase@hadesmem@@_K@ZHPAV12@_K@std@@EAEX_N@Z 1004e0f0 f i main.cpp.obj
 0001:0004d0f0       ?_Delete_this@?$_Func_impl_no_alloc@P6AIPAVPatchDetourBase@hadesmem@@PAI11@ZIPAV12@PAIPAIPAI@std@@EAEX_N@Z 1004e0f0 f i main.cpp.obj
 0001:0004d0f0       ?_Delete_this@?$_Func_impl_no_alloc@P6AIPAVPatchDetourBase@hadesmem@@PAI@ZIPAV12@PAI@std@@EAEX_N@Z 1004e0f0 f i main.cpp.obj
 0001:0004d0f0       ?_Delete_this@?$_Func_impl_no_alloc@P6AIPAVPatchDetourBase@hadesmem@@PAUCTerrainClickEvent@game@@@ZIPAV12@PAU34@@std@@EAEX_N@Z 1004e0f0 f i main.cpp.obj
 0001:0004d0f0       ?_Delete_this@?$_Func_impl_no_alloc@P6APAHPAVPatchDetourBase@hadesmem@@PAI@ZPAHPAV12@PAI@std@@EAEX_N@Z 1004e0f0 f i main.cpp.obj
 0001:0004d0f0       ?_Delete_this@?$_Func_impl_no_alloc@P6AXPAVPatchDetourBase@hadesmem@@@ZXPAV12@@std@@EAEX_N@Z 1004e0f0 f i main.cpp.obj
 0001:0004d0f0       ?_Delete_this@?$_Func_impl_no_alloc@P6AXPAVPatchDetourBase@hadesmem@@EH@ZXPAV12@EH@std@@EAEX_N@Z 1004e0f0 f i main.cpp.obj
 0001:0004d0f0       ?_Delete_this@?$_Func_impl_no_alloc@P6AXPAVPatchDetourBase@hadesmem@@HI@ZXPAV12@HI@std@@EAEX_N@Z 1004e0f0 f i main.cpp.obj
 0001:0004d0f0       ?_Delete_this@?$_Func_impl_no_alloc@P6AXPAVPatchDetourBase@hadesmem@@I@ZXPAV12@I@std@@EAEX_N@Z 1004e0f0 f i main.cpp.obj
 0001:0004d0f0       ?_Delete_this@?$_Func_impl_no_alloc@P6AXPAVPatchDetourBase@hadesmem@@IHH@ZXPAV12@IHH@std@@EAEX_N@Z 1004e0f0 f i main.cpp.obj
 0001:0004d0f0       ?_Delete_this@?$_Func_impl_no_alloc@P6AXPAVPatchDetourBase@hadesmem@@IH_K@ZXPAV12@IH_K@std@@EAEX_N@Z 1004e0f0 f i main.cpp.obj
 0001:0004d0f0       ?_Delete_this@?$_Func_impl_no_alloc@P6AXPAVPatchDetourBase@hadesmem@@IW4SpellCastResult@game@@HH_N@ZXPAV12@IW434@HH_N@std@@EAEX_N@Z 1004e0f0 f i main.cpp.obj
 0001:0004d0f0       ?_Delete_this@?$_Func_impl_no_alloc@P6AXPAVPatchDetourBase@hadesmem@@PAI@ZXPAV12@PAI@std@@EAEX_N@Z 1004e0f0 f i main.cpp.obj
 0001:0004d0f0       ?_Delete_this@?$_Func_impl_no_alloc@P6AXPAVPatchDetourBase@hadesmem@@PAIPAXHE@ZXPAV12@PAIPAXHE@std@@EAEX_N@Z 1004e0f0 f i main.cpp.obj
 0001:0004d0f0       ?_Delete_this@?$_Func_impl_no_alloc@P6AXPAVPatchDetourBase@hadesmem@@PAIPAXHHHH@ZXPAV12@PAIPAXHHHH@std@@EAEX_N@Z 1004e0f0 f i main.cpp.obj
 0001:0004d0f0       ?_Delete_this@?$_Func_impl_no_alloc@P6AXPAVPatchDetourBase@hadesmem@@PAIPAXII@ZXPAV12@PAIPAXII@std@@EAEX_N@Z 1004e0f0 f i main.cpp.obj
 0001:0004d0f0       ?_Delete_this@?$_Func_impl_no_alloc@P6AXPAVPatchDetourBase@hadesmem@@PAIPAXW4CHAT_COMMAND_ID@game@@PAD@ZXPAV12@PAIPAXW434@PAD@std@@EAEX_N@Z 1004e0f0 f i main.cpp.obj
 0001:0004d0f0       ?_Delete_this@?$_Func_impl_no_alloc@P6AXPAVPatchDetourBase@hadesmem@@PAIPA_K@ZXPAV12@PAIPA_K@std@@EAEX_N@Z 1004e0f0 f i main.cpp.obj
 0001:0004d0f0       ?_Delete_this@?$_Func_impl_no_alloc@P6AXPAVPatchDetourBase@hadesmem@@PAUSpellCast@game@@D@ZXPAV12@PAU34@D@std@@EAEX_N@Z 1004e0f0 f i main.cpp.obj
 0001:0004d0f0       ?_Delete_this@?$_Func_impl_no_alloc@P6AXPAVPatchDetourBase@hadesmem@@PAX1I@ZXPAV12@PAXPAXI@std@@EAEX_N@Z 1004e0f0 f i main.cpp.obj
 0001:0004d0f0       ?_Delete_this@?$_Func_impl_no_alloc@P6AXPAVPatchDetourBase@hadesmem@@PAX1II@ZXPAV12@PAXPAXII@std@@EAEX_N@Z 1004e0f0 f i main.cpp.obj
 0001:0004d0f0       ?_Delete_this@?$_Func_impl_no_alloc@P6AXPAVPatchDetourBase@hadesmem@@PAX1PAVCDataStore@Nampower@@@ZXPAV12@PAXPAXPAV34@@std@@EAEX_N@Z 1004e0f0 f i main.cpp.obj
 0001:0004d0f0       ?_Delete_this@?$_Func_impl_no_alloc@P6AXPAVPatchDetourBase@hadesmem@@PAXHH@ZXPAV12@PAXHH@std@@EAEX_N@Z 1004e0f0 f i main.cpp.obj
 0001:0004d0f0       ?_Delete_this@?$_Func_impl_no_alloc@P6AXPAVPatchDetourBase@hadesmem@@PA_K1I@ZXPAV12@PA_KPA_KI@std@@EAEX_N@Z 1004e0f0 f i main.cpp.obj
 0001:0004d0f0       ?_Delete_this@?$_Func_impl_no_alloc@P6AXPAVPatchDetourBase@hadesmem@@PA_K1II@ZXPAV12@PA_KPA_KII@std@@EAEX_N@Z 1004e0f0 f i main.cpp.obj
 0001:0004d0f0       ?_Delete_this@?$_Func_impl_no_alloc@P6AXPAVPatchDetourBase@hadesmem@@PA_K1IPAVCDataStore@Nampower@@@ZXPAV12@PA_KPA_KIPAV34@@std@@EAEX_N@Z 1004e0f0 f i main.cpp.obj
 0001:0004d0f0       ?_Delete_this@?$_Func_impl_no_alloc@P6AXPAVPatchDetourBase@hadesmem@@PA_KI@ZXPAV12@PA_KI@std@@EAEX_N@Z 1004e0f0 f i main.cpp.obj
 0001:0004d0f0       ?_Delete_this@?$_Func_impl_no_alloc@P6AXPAVPatchDetourBase@hadesmem@@PA_KPBDHHH@ZXPAV12@PA_KPBDHHH@std@@EAEX_N@Z 1004e0f0 f i main.cpp.obj
 0001:0004d0f0       ?_Delete_this@?$_Func_impl_no_alloc@P6AXPAVPatchDetourBase@hadesmem@@_K@ZXPAV12@_K@std@@EAEX_N@Z 1004e0f0 f i main.cpp.obj
 0001:0004d0f0       ?_Delete_this@?$_Func_impl_no_alloc@P6AXPAVPatchDetourBase@hadesmem@@_N1W4SpellCastResult@game@@@ZXPAV12@_N_NW434@@std@@EAEX_N@Z 1004e0f0 f i main.cpp.obj
 0001:0004d0f0       ?_Delete_this@?$_Func_impl_no_alloc@P6A_KPAVPatchDetourBase@hadesmem@@PBD@Z_KPAV12@PBD@std@@EAEX_N@Z 1004e0f0 f i main.cpp.obj
 0001:0004d0f0       ?_Delete_this@?$_Func_impl_no_alloc@P6A_NPAVPatchDetourBase@hadesmem@@PAI1IM@Z_NPAV12@PAIPAIIM@std@@EAEX_N@Z 1004e0f0 f i main.cpp.obj
 0001:0004d0f0       ?_Delete_this@?$_Func_impl_no_alloc@P6A_NPAVPatchDetourBase@hadesmem@@PAIIPAUCGItem_C@game@@_K@Z_NPAV12@PAIIPAU34@_K@std@@EAEX_N@Z 1004e0f0 f i main.cpp.obj
 0001:0004d0f0       ?_Delete_this@?$_Func_impl_no_alloc@P6A_NPAVPatchDetourBase@hadesmem@@PAUEVENT_DATA_KEY@@H@Z_NPAV12@PAU3@H@std@@EAEX_N@Z 1004e0f0 f i main.cpp.obj
 0001:0004d0f0       ?_Delete_this@?$_Func_impl_no_alloc@P6A_NPAVPatchDetourBase@hadesmem@@PAUSpellRec@game@@PADHMMMMM@Z_NPAV12@PAU34@PADHMMMMM@std@@EAEX_N@Z 1004e0f0 f i main.cpp.obj
 0001:0004d110       ?_Delete_this@?$_Ref_count_obj2@UImpl@?$ThreadIterator@$$CBVThreadEntry@hadesmem@@@hadesmem@@@std@@EAEXXZ 1004e110 f i main.cpp.obj
 0001:0004d110       ?_Delete_this@?$_Ref_count_obj2@UImpl@?$ThreadIterator@VThreadEntry@hadesmem@@@hadesmem@@@std@@EAEXXZ 1004e110 f i main.cpp.obj
 0001:0004d120       ?_Destroy@?$_Ref_count_obj2@UImpl@?$ThreadIterator@$$CBVThreadEntry@hadesmem@@@hadesmem@@@std@@EAEXXZ 1004e120 f i main.cpp.obj
 0001:0004d120       ?_Destroy@?$_Ref_count_obj2@UImpl@?$ThreadIterator@VThreadEntry@hadesmem@@@hadesmem@@@std@@EAEXXZ 1004e120 f i main.cpp.obj
 0001:0004d140       ?_Do_call@?$_Func_impl_no_alloc@P6AHPAVPatchDetourBase@hadesmem@@IIIPAVCDataStore@Nampower@@@ZHPAV12@IIIPAV34@@std@@EAEH$$QAPAVPatchDetourBase@hadesmem@@$$QAI11$$QAPAVCDataStore@Nampower@@@Z 1004e140 f i main.cpp.obj
 0001:0004d140       ?_Do_call@?$_Func_impl_no_alloc@P6AXPAVPatchDetourBase@hadesmem@@PAIPAXII@ZXPAV12@PAIPAXII@std@@EAEX$$QAPAVPatchDetourBase@hadesmem@@$$QAPAI$$QAPAX$$QAI3@Z 1004e140 f i main.cpp.obj
 0001:0004d140       ?_Do_call@?$_Func_impl_no_alloc@P6AXPAVPatchDetourBase@hadesmem@@PAIPAXW4CHAT_COMMAND_ID@game@@PAD@ZXPAV12@PAIPAXW434@PAD@std@@EAEX$$QAPAVPatchDetourBase@hadesmem@@$$QAPAI$$QAPAX$$QAW4CHAT_COMMAND_ID@game@@$$QAPAD@Z 1004e140 f i main.cpp.obj
 0001:0004d140       ?_Do_call@?$_Func_impl_no_alloc@P6AXPAVPatchDetourBase@hadesmem@@PAX1II@ZXPAV12@PAXPAXII@std@@EAEX$$QAPAVPatchDetourBase@hadesmem@@$$QAPAX1$$QAI2@Z 1004e140 f i main.cpp.obj
 0001:0004d140       ?_Do_call@?$_Func_impl_no_alloc@P6AXPAVPatchDetourBase@hadesmem@@PA_K1II@ZXPAV12@PA_KPA_KII@std@@EAEX$$QAPAVPatchDetourBase@hadesmem@@$$QAPA_K1$$QAI2@Z 1004e140 f i main.cpp.obj
 0001:0004d140       ?_Do_call@?$_Func_impl_no_alloc@P6AXPAVPatchDetourBase@hadesmem@@PA_K1IPAVCDataStore@Nampower@@@ZXPAV12@PA_KPA_KIPAV34@@std@@EAEX$$QAPAVPatchDetourBase@hadesmem@@$$QAPA_K1$$QAI$$QAPAVCDataStore@Nampower@@@Z 1004e140 f i main.cpp.obj
 0001:0004d170       ?_Do_call@?$_Func_impl_no_alloc@P6AHPAVPatchDetourBase@hadesmem@@PAI@ZHPAV12@PAI@std@@EAEH$$QAPAVPatchDetourBase@hadesmem@@$$QAPAI@Z 1004e170 f i main.cpp.obj
 0001:0004d170       ?_Do_call@?$_Func_impl_no_alloc@P6AIPAVPatchDetourBase@hadesmem@@PAI@ZIPAV12@PAI@std@@EAEI$$QAPAVPatchDetourBase@hadesmem@@$$QAPAI@Z 1004e170 f i main.cpp.obj
 0001:0004d170       ?_Do_call@?$_Func_impl_no_alloc@P6AIPAVPatchDetourBase@hadesmem@@PAUCTerrainClickEvent@game@@@ZIPAV12@PAU34@@std@@EAEI$$QAPAVPatchDetourBase@hadesmem@@$$QAPAUCTerrainClickEvent@game@@@Z 1004e170 f i main.cpp.obj
 0001:0004d170       ?_Do_call@?$_Func_impl_no_alloc@P6APAHPAVPatchDetourBase@hadesmem@@PAI@ZPAHPAV12@PAI@std@@EAEPAH$$QAPAVPatchDetourBase@hadesmem@@$$QAPAI@Z 1004e170 f i main.cpp.obj
 0001:0004d170       ?_Do_call@?$_Func_impl_no_alloc@P6AXPAVPatchDetourBase@hadesmem@@I@ZXPAV12@I@std@@EAEX$$QAPAVPatchDetourBase@hadesmem@@$$QAI@Z 1004e170 f i main.cpp.obj
 0001:0004d170       ?_Do_call@?$_Func_impl_no_alloc@P6AXPAVPatchDetourBase@hadesmem@@PAI@ZXPAV12@PAI@std@@EAEX$$QAPAVPatchDetourBase@hadesmem@@$$QAPAI@Z 1004e170 f i main.cpp.obj
 0001:0004d170       ?_Do_call@?$_Func_impl_no_alloc@P6A_KPAVPatchDetourBase@hadesmem@@PBD@Z_KPAV12@PBD@std@@EAE_K$$QAPAVPatchDetourBase@hadesmem@@$$QAPBD@Z 1004e170 f i main.cpp.obj
 0001:0004d190       ?_Do_call@?$_Func_impl_no_alloc@P6AHPAVPatchDetourBase@hadesmem@@PAIPAVCDataStore@Nampower@@@ZHPAV12@PAIPAV34@@std@@EAEH$$QAPAVPatchDetourBase@hadesmem@@$$QAPAI$$QAPAVCDataStore@Nampower@@@Z 1004e190 f i main.cpp.obj
 0001:0004d190       ?_Do_call@?$_Func_impl_no_alloc@P6AXPAVPatchDetourBase@hadesmem@@HI@ZXPAV12@HI@std@@EAEX$$QAPAVPatchDetourBase@hadesmem@@$$QAH$$QAI@Z 1004e190 f i main.cpp.obj
 0001:0004d190       ?_Do_call@?$_Func_impl_no_alloc@P6AXPAVPatchDetourBase@hadesmem@@PAIPA_K@ZXPAV12@PAIPA_K@std@@EAEX$$QAPAVPatchDetourBase@hadesmem@@$$QAPAI$$QAPA_K@Z 1004e190 f i main.cpp.obj
 0001:0004d190       ?_Do_call@?$_Func_impl_no_alloc@P6AXPAVPatchDetourBase@hadesmem@@PA_KI@ZXPAV12@PA_KI@std@@EAEX$$QAPAVPatchDetourBase@hadesmem@@$$QAPA_K$$QAI@Z 1004e190 f i main.cpp.obj
 0001:0004d190       ?_Do_call@?$_Func_impl_no_alloc@P6A_NPAVPatchDetourBase@hadesmem@@PAUEVENT_DATA_KEY@@H@Z_NPAV12@PAU3@H@std@@EAE_N$$QAPAVPatchDetourBase@hadesmem@@$$QAPAUEVENT_DATA_KEY@@$$QAH@Z 1004e190 f i main.cpp.obj
 0001:0004d1b0       ?_Do_call@?$_Func_impl_no_alloc@P6AHPAVPatchDetourBase@hadesmem@@PAX1IPAPAH2HHHHIPAPAPAPAH@ZHPAV12@PAXPAXIPAPAHPAPAHHHHHIPAPAPAPAH@std@@EAEH$$QAPAVPatchDetourBase@hadesmem@@$$QAPAX1$$QAI$$QAPAPAH3$$QAH4442$$QAPAPAPAPAH@Z 1004e1b0 f i main.cpp.obj
 0001:0004d210       ?_Do_call@?$_Func_impl_no_alloc@P6AHPAVPatchDetourBase@hadesmem@@_K@ZHPAV12@_K@std@@EAEH$$QAPAVPatchDetourBase@hadesmem@@$$QA_K@Z 1004e210 f i main.cpp.obj
 0001:0004d210       ?_Do_call@?$_Func_impl_no_alloc@P6AXPAVPatchDetourBase@hadesmem@@_K@ZXPAV12@_K@std@@EAEX$$QAPAVPatchDetourBase@hadesmem@@$$QA_K@Z 1004e210 f i main.cpp.obj
 0001:0004d230       ?_Do_call@?$_Func_impl_no_alloc@P6AIPAVPatchDetourBase@hadesmem@@PAI11@ZIPAV12@PAIPAIPAI@std@@EAEI$$QAPAVPatchDetourBase@hadesmem@@$$QAPAI11@Z 1004e230 f i main.cpp.obj
 0001:0004d230       ?_Do_call@?$_Func_impl_no_alloc@P6AXPAVPatchDetourBase@hadesmem@@IHH@ZXPAV12@IHH@std@@EAEX$$QAPAVPatchDetourBase@hadesmem@@$$QAI$$QAH2@Z 1004e230 f i main.cpp.obj
 0001:0004d230       ?_Do_call@?$_Func_impl_no_alloc@P6AXPAVPatchDetourBase@hadesmem@@PAX1I@ZXPAV12@PAXPAXI@std@@EAEX$$QAPAVPatchDetourBase@hadesmem@@$$QAPAX1$$QAI@Z 1004e230 f i main.cpp.obj
 0001:0004d230       ?_Do_call@?$_Func_impl_no_alloc@P6AXPAVPatchDetourBase@hadesmem@@PAX1PAVCDataStore@Nampower@@@ZXPAV12@PAXPAXPAV34@@std@@EAEX$$QAPAVPatchDetourBase@hadesmem@@$$QAPAX1$$QAPAVCDataStore@Nampower@@@Z 1004e230 f i main.cpp.obj
 0001:0004d230       ?_Do_call@?$_Func_impl_no_alloc@P6AXPAVPatchDetourBase@hadesmem@@PAXHH@ZXPAV12@PAXHH@std@@EAEX$$QAPAVPatchDetourBase@hadesmem@@$$QAPAX$$QAH2@Z 1004e230 f i main.cpp.obj
 0001:0004d230       ?_Do_call@?$_Func_impl_no_alloc@P6AXPAVPatchDetourBase@hadesmem@@PA_K1I@ZXPAV12@PA_KPA_KI@std@@EAEX$$QAPAVPatchDetourBase@hadesmem@@$$QAPA_K1$$QAI@Z 1004e230 f i main.cpp.obj
 0001:0004d260       ?_Do_call@?$_Func_impl_no_alloc@P6AXPAVPatchDetourBase@hadesmem@@@ZXPAV12@@std@@EAEX$$QAPAVPatchDetourBase@hadesmem@@@Z 1004e260 f i main.cpp.obj
 0001:0004d270       ?_Do_call@?$_Func_impl_no_alloc@P6AXPAVPatchDetourBase@hadesmem@@EH@ZXPAV12@EH@std@@EAEX$$QAPAVPatchDetourBase@hadesmem@@$$QAE$$QAH@Z 1004e270 f i main.cpp.obj
 0001:0004d290       ?_Do_call@?$_Func_impl_no_alloc@P6AXPAVPatchDetourBase@hadesmem@@IH_K@ZXPAV12@IH_K@std@@EAEX$$QAPAVPatchDetourBase@hadesmem@@$$QAI$$QAH$$QA_K@Z 1004e290 f i main.cpp.obj
 0001:0004d2c0       ?_Do_call@?$_Func_impl_no_alloc@P6AXPAVPatchDetourBase@hadesmem@@IW4SpellCastResult@game@@HH_N@ZXPAV12@IW434@HH_N@std@@EAEX$$QAPAVPatchDetourBase@hadesmem@@$$QAI$$QAW4SpellCastResult@game@@$$QAH3$$QA_N@Z 1004e2c0 f i main.cpp.obj
 0001:0004d300       ?_Do_call@?$_Func_impl_no_alloc@P6AXPAVPatchDetourBase@hadesmem@@PAIPAXHE@ZXPAV12@PAIPAXHE@std@@EAEX$$QAPAVPatchDetourBase@hadesmem@@$$QAPAI$$QAPAX$$QAH$$QAE@Z 1004e300 f i main.cpp.obj
 0001:0004d330       ?_Do_call@?$_Func_impl_no_alloc@P6AXPAVPatchDetourBase@hadesmem@@PAIPAXHHHH@ZXPAV12@PAIPAXHHHH@std@@EAEX$$QAPAVPatchDetourBase@hadesmem@@$$QAPAI$$QAPAX$$QAH333@Z 1004e330 f i main.cpp.obj
 0001:0004d370       ?_Do_call@?$_Func_impl_no_alloc@P6AXPAVPatchDetourBase@hadesmem@@PAUSpellCast@game@@D@ZXPAV12@PAU34@D@std@@EAEX$$QAPAVPatchDetourBase@hadesmem@@$$QAPAUSpellCast@game@@$$QAD@Z 1004e370 f i main.cpp.obj
 0001:0004d390       ?_Do_call@?$_Func_impl_no_alloc@P6AXPAVPatchDetourBase@hadesmem@@PA_KPBDHHH@ZXPAV12@PA_KPBDHHH@std@@EAEX$$QAPAVPatchDetourBase@hadesmem@@$$QAPA_K$$QAPBD$$QAH33@Z 1004e390 f i main.cpp.obj
 0001:0004d3c0       ?_Do_call@?$_Func_impl_no_alloc@P6AXPAVPatchDetourBase@hadesmem@@_N1W4SpellCastResult@game@@@ZXPAV12@_N_NW434@@std@@EAEX$$QAPAVPatchDetourBase@hadesmem@@$$QA_N1$$QAW4SpellCastResult@game@@@Z 1004e3c0 f i main.cpp.obj
 0001:0004d3f0       ?_Do_call@?$_Func_impl_no_alloc@P6A_NPAVPatchDetourBase@hadesmem@@PAI1IM@Z_NPAV12@PAIPAIIM@std@@EAE_N$$QAPAVPatchDetourBase@hadesmem@@$$QAPAI1$$QAI$$QAM@Z 1004e3f0 f i main.cpp.obj
 0001:0004d430       ?_Do_call@?$_Func_impl_no_alloc@P6A_NPAVPatchDetourBase@hadesmem@@PAIIPAUCGItem_C@game@@_K@Z_NPAV12@PAIIPAU34@_K@std@@EAE_N$$QAPAVPatchDetourBase@hadesmem@@$$QAPAI$$QAI$$QAPAUCGItem_C@game@@$$QA_K@Z 1004e430 f i main.cpp.obj
 0001:0004d460       ?_Do_call@?$_Func_impl_no_alloc@P6A_NPAVPatchDetourBase@hadesmem@@PAUSpellRec@game@@PADHMMMMM@Z_NPAV12@PAU34@PADHMMMMM@std@@EAE_N$$QAPAVPatchDetourBase@hadesmem@@$$QAPAUSpellRec@game@@$$QAPAD$$QAH$$QAM4444@Z 1004e460 f i main.cpp.obj
 0001:0004d4d0       ?_Extract@?$_Tree_val@U?$_Tree_simple_types@K@std@@@std@@QAEPAU?$_Tree_node@KPAX@2@V?$_Tree_unchecked_const_iterator@V?$_Tree_val@U?$_Tree_simple_types@K@std@@@std@@U_Iterator_base0@2@@2@@Z 1004e4d0 f i main.cpp.obj
 0001:0004d4d0       ?_Extract@?$_Tree_val@U?$_Tree_simple_types@U?$pair@$$CBII@std@@@std@@@std@@QAEPAU?$_Tree_node@U?$pair@$$CBII@std@@PAX@2@V?$_Tree_unchecked_const_iterator@V?$_Tree_val@U?$_Tree_simple_types@U?$pair@$$CBII@std@@@std@@@std@@U_Iterator_base0@2@@2@@Z 1004e4d0 f i pet.cpp.obj
 0001:0004d7e0       ?_Ffmt@?$num_put@DV?$ostreambuf_iterator@DU?$char_traits@D@std@@@std@@@std@@ABAPADPADDH@Z 1004e7e0 f i main.cpp.obj
 0001:0004d8a0       ?_Get@?$_Func_impl_no_alloc@P6AHPAVPatchDetourBase@hadesmem@@IIIPAVCDataStore@Nampower@@@ZHPAV12@IIIPAV34@@std@@EBEPBXXZ 1004e8a0 f i main.cpp.obj
 0001:0004d8a0       ?_Get@?$_Func_impl_no_alloc@P6AHPAVPatchDetourBase@hadesmem@@PAI@ZHPAV12@PAI@std@@EBEPBXXZ 1004e8a0 f i main.cpp.obj
 0001:0004d8a0       ?_Get@?$_Func_impl_no_alloc@P6AHPAVPatchDetourBase@hadesmem@@PAIPAVCDataStore@Nampower@@@ZHPAV12@PAIPAV34@@std@@EBEPBXXZ 1004e8a0 f i main.cpp.obj
 0001:0004d8a0       ?_Get@?$_Func_impl_no_alloc@P6AHPAVPatchDetourBase@hadesmem@@PAX1IPAPAH2HHHHIPAPAPAPAH@ZHPAV12@PAXPAXIPAPAHPAPAHHHHHIPAPAPAPAH@std@@EBEPBXXZ 1004e8a0 f i main.cpp.obj
 0001:0004d8a0       ?_Get@?$_Func_impl_no_alloc@P6AHPAVPatchDetourBase@hadesmem@@_K@ZHPAV12@_K@std@@EBEPBXXZ 1004e8a0 f i main.cpp.obj
 0001:0004d8a0       ?_Get@?$_Func_impl_no_alloc@P6AIPAVPatchDetourBase@hadesmem@@PAI11@ZIPAV12@PAIPAIPAI@std@@EBEPBXXZ 1004e8a0 f i main.cpp.obj
 0001:0004d8a0       ?_Get@?$_Func_impl_no_alloc@P6AIPAVPatchDetourBase@hadesmem@@PAI@ZIPAV12@PAI@std@@EBEPBXXZ 1004e8a0 f i main.cpp.obj
 0001:0004d8a0       ?_Get@?$_Func_impl_no_alloc@P6AIPAVPatchDetourBase@hadesmem@@PAUCTerrainClickEvent@game@@@ZIPAV12@PAU34@@std@@EBEPBXXZ 1004e8a0 f i main.cpp.obj
 0001:0004d8a0       ?_Get@?$_Func_impl_no_alloc@P6APAHPAVPatchDetourBase@hadesmem@@PAI@ZPAHPAV12@PAI@std@@EBEPBXXZ 1004e8a0 f i main.cpp.obj
 0001:0004d8a0       ?_Get@?$_Func_impl_no_alloc@P6AXPAVPatchDetourBase@hadesmem@@@ZXPAV12@@std@@EBEPBXXZ 1004e8a0 f i main.cpp.obj
 0001:0004d8a0       ?_Get@?$_Func_impl_no_alloc@P6AXPAVPatchDetourBase@hadesmem@@EH@ZXPAV12@EH@std@@EBEPBXXZ 1004e8a0 f i main.cpp.obj
 0001:0004d8a0       ?_Get@?$_Func_impl_no_alloc@P6AXPAVPatchDetourBase@hadesmem@@HI@ZXPAV12@HI@std@@EBEPBXXZ 1004e8a0 f i main.cpp.obj
 0001:0004d8a0       ?_Get@?$_Func_impl_no_alloc@P6AXPAVPatchDetourBase@hadesmem@@I@ZXPAV12@I@std@@EBEPBXXZ 1004e8a0 f i main.cpp.obj
 0001:0004d8a0       ?_Get@?$_Func_impl_no_alloc@P6AXPAVPatchDetourBase@hadesmem@@IHH@ZXPAV12@IHH@std@@EBEPBXXZ 1004e8a0 f i main.cpp.obj
 0001:0004d8a0       ?_Get@?$_Func_impl_no_alloc@P6AXPAVPatchDetourBase@hadesmem@@IH_K@ZXPAV12@IH_K@std@@EBEPBXXZ 1004e8a0 f i main.cpp.obj
 0001:0004d8a0       ?_Get@?$_Func_impl_no_alloc@P6AXPAVPatchDetourBase@hadesmem@@IW4SpellCastResult@game@@HH_N@ZXPAV12@IW434@HH_N@std@@EBEPBXXZ 1004e8a0 f i main.cpp.obj
 0001:0004d8a0       ?_Get@?$_Func_impl_no_alloc@P6AXPAVPatchDetourBase@hadesmem@@PAI@ZXPAV12@PAI@std@@EBEPBXXZ 1004e8a0 f i main.cpp.obj
 0001:0004d8a0       ?_Get@?$_Func_impl_no_alloc@P6AXPAVPatchDetourBase@hadesmem@@PAIPAXHE@ZXPAV12@PAIPAXHE@std@@EBEPBXXZ 1004e8a0 f i main.cpp.obj
 0001:0004d8a0       ?_Get@?$_Func_impl_no_alloc@P6AXPAVPatchDetourBase@hadesmem@@PAIPAXHHHH@ZXPAV12@PAIPAXHHHH@std@@EBEPBXXZ 1004e8a0 f i main.cpp.obj
 0001:0004d8a0       ?_Get@?$_Func_impl_no_alloc@P6AXPAVPatchDetourBase@hadesmem@@PAIPAXII@ZXPAV12@PAIPAXII@std@@EBEPBXXZ 1004e8a0 f i main.cpp.obj
 0001:0004d8a0       ?_Get@?$_Func_impl_no_alloc@P6AXPAVPatchDetourBase@hadesmem@@PAIPAXW4CHAT_COMMAND_ID@game@@PAD@ZXPAV12@PAIPAXW434@PAD@std@@EBEPBXXZ 1004e8a0 f i main.cpp.obj
 0001:0004d8a0       ?_Get@?$_Func_impl_no_alloc@P6AXPAVPatchDetourBase@hadesmem@@PAIPA_K@ZXPAV12@PAIPA_K@std@@EBEPBXXZ 1004e8a0 f i main.cpp.obj
 0001:0004d8a0       ?_Get@?$_Func_impl_no_alloc@P6AXPAVPatchDetourBase@hadesmem@@PAUSpellCast@game@@D@ZXPAV12@PAU34@D@std@@EBEPBXXZ 1004e8a0 f i main.cpp.obj
 0001:0004d8a0       ?_Get@?$_Func_impl_no_alloc@P6AXPAVPatchDetourBase@hadesmem@@PAX1I@ZXPAV12@PAXPAXI@std@@EBEPBXXZ 1004e8a0 f i main.cpp.obj
 0001:0004d8a0       ?_Get@?$_Func_impl_no_alloc@P6AXPAVPatchDetourBase@hadesmem@@PAX1II@ZXPAV12@PAXPAXII@std@@EBEPBXXZ 1004e8a0 f i main.cpp.obj
 0001:0004d8a0       ?_Get@?$_Func_impl_no_alloc@P6AXPAVPatchDetourBase@hadesmem@@PAX1PAVCDataStore@Nampower@@@ZXPAV12@PAXPAXPAV34@@std@@EBEPBXXZ 1004e8a0 f i main.cpp.obj
 0001:0004d8a0       ?_Get@?$_Func_impl_no_alloc@P6AXPAVPatchDetourBase@hadesmem@@PAXHH@ZXPAV12@PAXHH@std@@EBEPBXXZ 1004e8a0 f i main.cpp.obj
 0001:0004d8a0       ?_Get@?$_Func_impl_no_alloc@P6AXPAVPatchDetourBase@hadesmem@@PA_K1I@ZXPAV12@PA_KPA_KI@std@@EBEPBXXZ 1004e8a0 f i main.cpp.obj
 0001:0004d8a0       ?_Get@?$_Func_impl_no_alloc@P6AXPAVPatchDetourBase@hadesmem@@PA_K1II@ZXPAV12@PA_KPA_KII@std@@EBEPBXXZ 1004e8a0 f i main.cpp.obj
 0001:0004d8a0       ?_Get@?$_Func_impl_no_alloc@P6AXPAVPatchDetourBase@hadesmem@@PA_K1IPAVCDataStore@Nampower@@@ZXPAV12@PA_KPA_KIPAV34@@std@@EBEPBXXZ 1004e8a0 f i main.cpp.obj
 0001:0004d8a0       ?_Get@?$_Func_impl_no_alloc@P6AXPAVPatchDetourBase@hadesmem@@PA_KI@ZXPAV12@PA_KI@std@@EBEPBXXZ 1004e8a0 f i main.cpp.obj
 0001:0004d8a0       ?_Get@?$_Func_impl_no_alloc@P6AXPAVPatchDetourBase@hadesmem@@PA_KPBDHHH@ZXPAV12@PA_KPBDHHH@std@@EBEPBXXZ 1004e8a0 f i main.cpp.obj
 0001:0004d8a0       ?_Get@?$_Func_impl_no_alloc@P6AXPAVPatchDetourBase@hadesmem@@_K@ZXPAV12@_K@std@@EBEPBXXZ 1004e8a0 f i main.cpp.obj
 0001:0004d8a0       ?_Get@?$_Func_impl_no_alloc@P6AXPAVPatchDetourBase@hadesmem@@_N1W4SpellCastResult@game@@@ZXPAV12@_N_NW434@@std@@EBEPBXXZ 1004e8a0 f i main.cpp.obj
 0001:0004d8a0       ?_Get@?$_Func_impl_no_alloc@P6A_KPAVPatchDetourBase@hadesmem@@PBD@Z_KPAV12@PBD@std@@EBEPBXXZ 1004e8a0 f i main.cpp.obj
 0001:0004d8a0       ?_Get@?$_Func_impl_no_alloc@P6A_NPAVPatchDetourBase@hadesmem@@PAI1IM@Z_NPAV12@PAIPAIIM@std@@EBEPBXXZ 1004e8a0 f i main.cpp.obj
 0001:0004d8a0       ?_Get@?$_Func_impl_no_alloc@P6A_NPAVPatchDetourBase@hadesmem@@PAIIPAUCGItem_C@game@@_K@Z_NPAV12@PAIIPAU34@_K@std@@EBEPBXXZ 1004e8a0 f i main.cpp.obj
 0001:0004d8a0       ?_Get@?$_Func_impl_no_alloc@P6A_NPAVPatchDetourBase@hadesmem@@PAUEVENT_DATA_KEY@@H@Z_NPAV12@PAU3@H@std@@EBEPBXXZ 1004e8a0 f i main.cpp.obj
 0001:0004d8a0       ?_Get@?$_Func_impl_no_alloc@P6A_NPAVPatchDetourBase@hadesmem@@PAUSpellRec@game@@PADHMMMMM@Z_NPAV12@PAU34@PADHMMMMM@std@@EBEPBXXZ 1004e8a0 f i main.cpp.obj
 0001:0004d8b0       ?_Get_deleter@_Ref_count_base@std@@UBEPAXABVtype_info@@@Z 1004e8b0 f i main.cpp.obj
 0001:0004d8b0       ?get_deleter@?$sp_counted_impl_p@V?$clone_impl@Ubad_alloc_@exception_detail@boost@@@exception_detail@boost@@@detail@boost@@UAEPAXABVtype_info@@@Z 1004e8b0 f i main.cpp.obj
 0001:0004d8b0       ?get_deleter@?$sp_counted_impl_p@V?$clone_impl@Ubad_exception_@exception_detail@boost@@@exception_detail@boost@@@detail@boost@@UAEPAXABVtype_info@@@Z 1004e8b0 f i main.cpp.obj
 0001:0004d8b0       ?get_deleter@?$sp_counted_impl_p@V?$error_info@UTagErrorCodeWinLast@hadesmem@@K@boost@@@detail@boost@@UAEPAXABVtype_info@@@Z 1004e8b0 f i main.cpp.obj
 0001:0004d8b0       ?get_deleter@?$sp_counted_impl_p@V?$error_info@UTagErrorString@hadesmem@@V?$basic_string@DU?$char_traits@D@std@@V?$allocator@D@2@@std@@@boost@@@detail@boost@@UAEPAXABVtype_info@@@Z 1004e8b0 f i main.cpp.obj
 0001:0004d8b0       ?get_deleter@?$sp_counted_impl_p@Verror_info_base@exception_detail@boost@@@detail@boost@@UAEPAXABVtype_info@@@Z 1004e8b0 f i main.cpp.obj
 0001:0004d8b0       ?get_local_deleter@?$sp_counted_impl_p@V?$clone_impl@Ubad_alloc_@exception_detail@boost@@@exception_detail@boost@@@detail@boost@@UAEPAXABVtype_info@@@Z 1004e8b0 f i main.cpp.obj
 0001:0004d8b0       ?get_local_deleter@?$sp_counted_impl_p@V?$clone_impl@Ubad_exception_@exception_detail@boost@@@exception_detail@boost@@@detail@boost@@UAEPAXABVtype_info@@@Z 1004e8b0 f i main.cpp.obj
 0001:0004d8b0       ?get_local_deleter@?$sp_counted_impl_p@V?$error_info@UTagErrorCodeWinLast@hadesmem@@K@boost@@@detail@boost@@UAEPAXABVtype_info@@@Z 1004e8b0 f i main.cpp.obj
 0001:0004d8b0       ?get_local_deleter@?$sp_counted_impl_p@V?$error_info@UTagErrorString@hadesmem@@V?$basic_string@DU?$char_traits@D@std@@V?$allocator@D@2@@std@@@boost@@@detail@boost@@UAEPAXABVtype_info@@@Z 1004e8b0 f i main.cpp.obj
 0001:0004d8b0       ?get_local_deleter@?$sp_counted_impl_p@Verror_info_base@exception_detail@boost@@@detail@boost@@UAEPAXABVtype_info@@@Z 1004e8b0 f i main.cpp.obj
 0001:0004d8c0       ?_Getcat@?$numpunct@D@std@@SAIPAPBVfacet@locale@2@PBV42@@Z 1004e8c0 f i main.cpp.obj
 0001:0004da40       ?_Insert_node@?$_Tree_val@U?$_Tree_simple_types@I@std@@@std@@QAEPAU?$_Tree_node@IPAX@2@U?$_Tree_id@PAU?$_Tree_node@IPAX@std@@@2@QAU32@@Z 1004ea40 f i spell_scripts.cpp.obj
 0001:0004da40       ?_Insert_node@?$_Tree_val@U?$_Tree_simple_types@K@std@@@std@@QAEPAU?$_Tree_node@KPAX@2@U?$_Tree_id@PAU?$_Tree_node@KPAX@std@@@2@QAU32@@Z 1004ea40 f i main.cpp.obj
 0001:0004da40       ?_Insert_node@?$_Tree_val@U?$_Tree_simple_types@U?$pair@$$CBII@std@@@std@@@std@@QAEPAU?$_Tree_node@U?$pair@$$CBII@std@@PAX@2@U?$_Tree_id@PAU?$_Tree_node@U?$pair@$$CBII@std@@PAX@std@@@2@QAU32@@Z 1004ea40 f i pet.cpp.obj
 0001:0004da40       ?_Insert_node@?$_Tree_val@U?$_Tree_simple_types@U?$pair@$$CBUtype_info_@exception_detail@boost@@V?$shared_ptr@Verror_info_base@exception_detail@boost@@@3@@std@@@std@@@std@@QAEPAU?$_Tree_node@U?$pair@$$CBUtype_info_@exception_detail@boost@@V?$shared_ptr@Verror_info_base@exception_detail@boost@@@3@@std@@PAX@2@U?$_Tree_id@PAU?$_Tree_node@U?$pair@$$CBUtype_info_@exception_detail@boost@@V?$shared_ptr@Verror_info_base@exception_detail@boost@@@3@@std@@PAX@std@@@2@QAU32@@Z 1004ea40 f i main.cpp.obj
 0001:0004dc30       ?_Iput@?$num_put@DV?$ostreambuf_iterator@DU?$char_traits@D@std@@@std@@@std@@ABA?AV?$ostreambuf_iterator@DU?$char_traits@D@std@@@2@V32@AAVios_base@2@DPADI@Z 1004ec30 f i main.cpp.obj
 0001:0004dfb0       ?_Lrotate@?$_Tree_val@U?$_Tree_simple_types@K@std@@@std@@QAEXPAU?$_Tree_node@KPAX@2@@Z 1004efb0 f i main.cpp.obj
 0001:0004dfb0       ?_Lrotate@?$_Tree_val@U?$_Tree_simple_types@U?$pair@$$CBII@std@@@std@@@std@@QAEXPAU?$_Tree_node@U?$pair@$$CBII@std@@PAX@2@@Z 1004efb0 f i pet.cpp.obj
 0001:0004e000       ?_Min@?$_Tree_val@U?$_Tree_simple_types@K@std@@@std@@SAPAU?$_Tree_node@KPAX@2@PAU32@@Z 1004f000 f i main.cpp.obj
 0001:0004e000       ?_Min@?$_Tree_val@U?$_Tree_simple_types@U?$pair@$$CBII@std@@@std@@@std@@SAPAU?$_Tree_node@U?$pair@$$CBII@std@@PAX@2@PAU32@@Z 1004f000 f i pet.cpp.obj
 0001:0004e020       ?_Osfx@?$basic_ostream@DU?$char_traits@D@std@@@std@@QAEXXZ 1004f020 f i main.cpp.obj
 0001:0004e100       ?_Put@?$num_put@DV?$ostreambuf_iterator@DU?$char_traits@D@std@@@std@@@std@@ABA?AV?$ostreambuf_iterator@DU?$char_traits@D@std@@@2@V32@PBDI@Z 1004f100 f i main.cpp.obj
 0001:0004e170       ?_Rep@?$num_put@DV?$ostreambuf_iterator@DU?$char_traits@D@std@@@std@@@std@@ABA?AV?$ostreambuf_iterator@DU?$char_traits@D@std@@@2@V32@DI@Z 1004f170 f i main.cpp.obj
 0001:0004e1e0       ?_Rrotate@?$_Tree_val@U?$_Tree_simple_types@K@std@@@std@@QAEXPAU?$_Tree_node@KPAX@2@@Z 1004f1e0 f i main.cpp.obj
 0001:0004e1e0       ?_Rrotate@?$_Tree_val@U?$_Tree_simple_types@U?$pair@$$CBII@std@@@std@@@std@@QAEXPAU?$_Tree_node@U?$pair@$$CBII@std@@PAX@2@@Z 1004f1e0 f i pet.cpp.obj
 0001:0004e240       ?_Target_type@?$_Func_impl_no_alloc@P6AHPAVPatchDetourBase@hadesmem@@IIIPAVCDataStore@Nampower@@@ZHPAV12@IIIPAV34@@std@@EBEABVtype_info@@XZ 1004f240 f i main.cpp.obj
 0001:0004e250       ?_Target_type@?$_Func_impl_no_alloc@P6AHPAVPatchDetourBase@hadesmem@@PAI@ZHPAV12@PAI@std@@EBEABVtype_info@@XZ 1004f250 f i main.cpp.obj
 0001:0004e260       ?_Target_type@?$_Func_impl_no_alloc@P6AHPAVPatchDetourBase@hadesmem@@PAIPAVCDataStore@Nampower@@@ZHPAV12@PAIPAV34@@std@@EBEABVtype_info@@XZ 1004f260 f i main.cpp.obj
 0001:0004e270       ?_Target_type@?$_Func_impl_no_alloc@P6AHPAVPatchDetourBase@hadesmem@@PAX1IPAPAH2HHHHIPAPAPAPAH@ZHPAV12@PAXPAXIPAPAHPAPAHHHHHIPAPAPAPAH@std@@EBEABVtype_info@@XZ 1004f270 f i main.cpp.obj
 0001:0004e280       ?_Target_type@?$_Func_impl_no_alloc@P6AHPAVPatchDetourBase@hadesmem@@_K@ZHPAV12@_K@std@@EBEABVtype_info@@XZ 1004f280 f i main.cpp.obj
 0001:0004e290       ?_Target_type@?$_Func_impl_no_alloc@P6AIPAVPatchDetourBase@hadesmem@@PAI11@ZIPAV12@PAIPAIPAI@std@@EBEABVtype_info@@XZ 1004f290 f i main.cpp.obj
 0001:0004e2a0       ?_Target_type@?$_Func_impl_no_alloc@P6AIPAVPatchDetourBase@hadesmem@@PAI@ZIPAV12@PAI@std@@EBEABVtype_info@@XZ 1004f2a0 f i main.cpp.obj
 0001:0004e2b0       ?_Target_type@?$_Func_impl_no_alloc@P6AIPAVPatchDetourBase@hadesmem@@PAUCTerrainClickEvent@game@@@ZIPAV12@PAU34@@std@@EBEABVtype_info@@XZ 1004f2b0 f i main.cpp.obj
 0001:0004e2c0       ?_Target_type@?$_Func_impl_no_alloc@P6APAHPAVPatchDetourBase@hadesmem@@PAI@ZPAHPAV12@PAI@std@@EBEABVtype_info@@XZ 1004f2c0 f i main.cpp.obj
 0001:0004e2d0       ?_Target_type@?$_Func_impl_no_alloc@P6AXPAVPatchDetourBase@hadesmem@@@ZXPAV12@@std@@EBEABVtype_info@@XZ 1004f2d0 f i main.cpp.obj
 0001:0004e2e0       ?_Target_type@?$_Func_impl_no_alloc@P6AXPAVPatchDetourBase@hadesmem@@EH@ZXPAV12@EH@std@@EBEABVtype_info@@XZ 1004f2e0 f i main.cpp.obj
 0001:0004e2f0       ?_Target_type@?$_Func_impl_no_alloc@P6AXPAVPatchDetourBase@hadesmem@@HI@ZXPAV12@HI@std@@EBEABVtype_info@@XZ 1004f2f0 f i main.cpp.obj
 0001:0004e300       ?_Target_type@?$_Func_impl_no_alloc@P6AXPAVPatchDetourBase@hadesmem@@I@ZXPAV12@I@std@@EBEABVtype_info@@XZ 1004f300 f i main.cpp.obj
 0001:0004e310       ?_Target_type@?$_Func_impl_no_alloc@P6AXPAVPatchDetourBase@hadesmem@@IHH@ZXPAV12@IHH@std@@EBEABVtype_info@@XZ 1004f310 f i main.cpp.obj
 0001:0004e320       ?_Target_type@?$_Func_impl_no_alloc@P6AXPAVPatchDetourBase@hadesmem@@IH_K@ZXPAV12@IH_K@std@@EBEABVtype_info@@XZ 1004f320 f i main.cpp.obj
 0001:0004e330       ?_Target_type@?$_Func_impl_no_alloc@P6AXPAVPatchDetourBase@hadesmem@@IW4SpellCastResult@game@@HH_N@ZXPAV12@IW434@HH_N@std@@EBEABVtype_info@@XZ 1004f330 f i main.cpp.obj
 0001:0004e340       ?_Target_type@?$_Func_impl_no_alloc@P6AXPAVPatchDetourBase@hadesmem@@PAI@ZXPAV12@PAI@std@@EBEABVtype_info@@XZ 1004f340 f i main.cpp.obj
 0001:0004e350       ?_Target_type@?$_Func_impl_no_alloc@P6AXPAVPatchDetourBase@hadesmem@@PAIPAXHE@ZXPAV12@PAIPAXHE@std@@EBEABVtype_info@@XZ 1004f350 f i main.cpp.obj
 0001:0004e360       ?_Target_type@?$_Func_impl_no_alloc@P6AXPAVPatchDetourBase@hadesmem@@PAIPAXHHHH@ZXPAV12@PAIPAXHHHH@std@@EBEABVtype_info@@XZ 1004f360 f i main.cpp.obj
 0001:0004e370       ?_Target_type@?$_Func_impl_no_alloc@P6AXPAVPatchDetourBase@hadesmem@@PAIPAXII@ZXPAV12@PAIPAXII@std@@EBEABVtype_info@@XZ 1004f370 f i main.cpp.obj
 0001:0004e380       ?_Target_type@?$_Func_impl_no_alloc@P6AXPAVPatchDetourBase@hadesmem@@PAIPAXW4CHAT_COMMAND_ID@game@@PAD@ZXPAV12@PAIPAXW434@PAD@std@@EBEABVtype_info@@XZ 1004f380 f i main.cpp.obj
 0001:0004e390       ?_Target_type@?$_Func_impl_no_alloc@P6AXPAVPatchDetourBase@hadesmem@@PAIPA_K@ZXPAV12@PAIPA_K@std@@EBEABVtype_info@@XZ 1004f390 f i main.cpp.obj
 0001:0004e3a0       ?_Target_type@?$_Func_impl_no_alloc@P6AXPAVPatchDetourBase@hadesmem@@PAUSpellCast@game@@D@ZXPAV12@PAU34@D@std@@EBEABVtype_info@@XZ 1004f3a0 f i main.cpp.obj
 0001:0004e3b0       ?_Target_type@?$_Func_impl_no_alloc@P6AXPAVPatchDetourBase@hadesmem@@PAX1I@ZXPAV12@PAXPAXI@std@@EBEABVtype_info@@XZ 1004f3b0 f i main.cpp.obj
 0001:0004e3c0       ?_Target_type@?$_Func_impl_no_alloc@P6AXPAVPatchDetourBase@hadesmem@@PAX1II@ZXPAV12@PAXPAXII@std@@EBEABVtype_info@@XZ 1004f3c0 f i main.cpp.obj
 0001:0004e3d0       ?_Target_type@?$_Func_impl_no_alloc@P6AXPAVPatchDetourBase@hadesmem@@PAX1PAVCDataStore@Nampower@@@ZXPAV12@PAXPAXPAV34@@std@@EBEABVtype_info@@XZ 1004f3d0 f i main.cpp.obj
 0001:0004e3e0       ?_Target_type@?$_Func_impl_no_alloc@P6AXPAVPatchDetourBase@hadesmem@@PAXHH@ZXPAV12@PAXHH@std@@EBEABVtype_info@@XZ 1004f3e0 f i main.cpp.obj
 0001:0004e3f0       ?_Target_type@?$_Func_impl_no_alloc@P6AXPAVPatchDetourBase@hadesmem@@PA_K1I@ZXPAV12@PA_KPA_KI@std@@EBEABVtype_info@@XZ 1004f3f0 f i main.cpp.obj
 0001:0004e400       ?_Target_type@?$_Func_impl_no_alloc@P6AXPAVPatchDetourBase@hadesmem@@PA_K1II@ZXPAV12@PA_KPA_KII@std@@EBEABVtype_info@@XZ 1004f400 f i main.cpp.obj
 0001:0004e410       ?_Target_type@?$_Func_impl_no_alloc@P6AXPAVPatchDetourBase@hadesmem@@PA_K1IPAVCDataStore@Nampower@@@ZXPAV12@PA_KPA_KIPAV34@@std@@EBEABVtype_info@@XZ 1004f410 f i main.cpp.obj
 0001:0004e420       ?_Target_type@?$_Func_impl_no_alloc@P6AXPAVPatchDetourBase@hadesmem@@PA_KI@ZXPAV12@PA_KI@std@@EBEABVtype_info@@XZ 1004f420 f i main.cpp.obj
 0001:0004e430       ?_Target_type@?$_Func_impl_no_alloc@P6AXPAVPatchDetourBase@hadesmem@@PA_KPBDHHH@ZXPAV12@PA_KPBDHHH@std@@EBEABVtype_info@@XZ 1004f430 f i main.cpp.obj
 0001:0004e440       ?_Target_type@?$_Func_impl_no_alloc@P6AXPAVPatchDetourBase@hadesmem@@_K@ZXPAV12@_K@std@@EBEABVtype_info@@XZ 1004f440 f i main.cpp.obj
 0001:0004e450       ?_Target_type@?$_Func_impl_no_alloc@P6AXPAVPatchDetourBase@hadesmem@@_N1W4SpellCastResult@game@@@ZXPAV12@_N_NW434@@std@@EBEABVtype_info@@XZ 1004f450 f i main.cpp.obj
 0001:0004e460       ?_Target_type@?$_Func_impl_no_alloc@P6A_KPAVPatchDetourBase@hadesmem@@PBD@Z_KPAV12@PBD@std@@EBEABVtype_info@@XZ 1004f460 f i main.cpp.obj
 0001:0004e470       ?_Target_type@?$_Func_impl_no_alloc@P6A_NPAVPatchDetourBase@hadesmem@@PAI1IM@Z_NPAV12@PAIPAIIM@std@@EBEABVtype_info@@XZ 1004f470 f i main.cpp.obj
 0001:0004e480       ?_Target_type@?$_Func_impl_no_alloc@P6A_NPAVPatchDetourBase@hadesmem@@PAIIPAUCGItem_C@game@@_K@Z_NPAV12@PAIIPAU34@_K@std@@EBEABVtype_info@@XZ 1004f480 f i main.cpp.obj
 0001:0004e490       ?_Target_type@?$_Func_impl_no_alloc@P6A_NPAVPatchDetourBase@hadesmem@@PAUEVENT_DATA_KEY@@H@Z_NPAV12@PAU3@H@std@@EBEABVtype_info@@XZ 1004f490 f i main.cpp.obj
 0001:0004e4a0       ?_Target_type@?$_Func_impl_no_alloc@P6A_NPAVPatchDetourBase@hadesmem@@PAUSpellRec@game@@PADHMMMMM@Z_NPAV12@PAU34@PADHMMMMM@std@@EBEABVtype_info@@XZ 1004f4a0 f i main.cpp.obj
 0001:0004e4b0       ?_Throw_tree_length_error@std@@YAXXZ 1004f4b0 f i main.cpp.obj
 0001:0004e4c0       ?_Tidy@?$vector@UCastSpellParams@@V?$allocator@UCastSpellParams@@@std@@@std@@AAEXXZ 1004f4c0 f i main.cpp.obj
 0001:0004e530       ?_Tidy@?$vector@VSuspendedThread@hadesmem@@V?$allocator@VSuspendedThread@hadesmem@@@std@@@std@@AAEXXZ 1004f530 f i main.cpp.obj
 0001:0004e590       ?_Xlength@?$vector@DV?$allocator@D@std@@@std@@CAXXZ 1004f590 f i main.cpp.obj
 0001:0004e590       ?_Xlength@?$vector@EV?$allocator@E@std@@@std@@CAXXZ 1004f590 f i main.cpp.obj
 0001:0004e590       ?_Xlength@?$vector@PAHV?$allocator@PAH@std@@@std@@CAXXZ 1004f590 f i lua_refs.cpp.obj
 0001:0004e590       ?_Xlength@?$vector@UCastSpellParams@@V?$allocator@UCastSpellParams@@@std@@@std@@CAXXZ 1004f590 f i main.cpp.obj
 0001:0004e590       ?_Xlength@?$vector@VSuspendedThread@hadesmem@@V?$allocator@VSuspendedThread@hadesmem@@@std@@@std@@CAXXZ 1004f590 f i main.cpp.obj
 0001:0004e5a0       ?addCustomEvent@Nampower@@YAXIPAD@Z 1004f5a0 f   main.cpp.obj
 0001:0004e6c0       ?add_ref@error_info_container_impl@exception_detail@boost@@EBEXXZ 1004f6c0 f i main.cpp.obj
 0001:0004e6d0       ?append@?$basic_string@DU?$char_traits@D@std@@V?$allocator@D@2@@std@@QAEAAV12@ID@Z 1004f6d0 f i main.cpp.obj
 0001:0004e830       ?assign@?$basic_string@DU?$char_traits@D@std@@V?$allocator@D@2@@std@@QAEAAV12@QBDI@Z 1004f830 f i main.cpp.obj
 0001:0004e920       ?begin@ThreadList@hadesmem@@QAE?AV?$ThreadIterator@VThreadEntry@hadesmem@@@2@XZ 1004f920 f i main.cpp.obj
 0001:0004eac0       ?checkForStopChanneling@Nampower@@YAXXZ 1004fac0 f   main.cpp.obj
 0001:0004edd0       ?clear@?$vector@V?$unique_ptr@VAllocator@hadesmem@@U?$default_delete@VAllocator@hadesmem@@@std@@@std@@V?$allocator@V?$unique_ptr@VAllocator@hadesmem@@U?$default_delete@VAllocator@hadesmem@@@std@@@std@@@2@@std@@QAEXXZ 1004fdd0 f i main.cpp.obj
 0001:0004edee       ?clone@?$clone_impl@Ubad_alloc_@exception_detail@boost@@@exception_detail@boost@@$0PPPPPPPM@A@BEPBVclone_base@23@XZ 1004fdee f i main.cpp.obj
 0001:0004ee00       ?clone@?$clone_impl@Ubad_alloc_@exception_detail@boost@@@exception_detail@boost@@EBEPBVclone_base@23@XZ 1004fe00 f i main.cpp.obj
 0001:0004eeda       ?clone@?$clone_impl@Ubad_exception_@exception_detail@boost@@@exception_detail@boost@@$0PPPPPPPM@A@BEPBVclone_base@23@XZ 1004feda f i main.cpp.obj
 0001:0004eef0       ?clone@?$clone_impl@Ubad_exception_@exception_detail@boost@@@exception_detail@boost@@EBEPBVclone_base@23@XZ 1004fef0 f i main.cpp.obj
 0001:0004efd0       ?clone@?$error_info@UTagErrorCodeWinLast@hadesmem@@K@boost@@EBEPAVerror_info_base@exception_detail@2@XZ 1004ffd0 f i main.cpp.obj
 0001:0004f000       ?clone@?$error_info@UTagErrorString@hadesmem@@V?$basic_string@DU?$char_traits@D@std@@V?$allocator@D@2@@std@@@boost@@EBEPAVerror_info_base@exception_detail@2@XZ 10050000 f i main.cpp.obj
 0001:0004f080       ?clone@?$wrapexcept@VError@hadesmem@@@boost@@UBEPBVclone_base@exception_detail@2@XZ 10050080 f i main.cpp.obj
 0001:0004f120       ?clone@error_info_container_impl@exception_detail@boost@@EBE?AV?$refcount_ptr@Uerror_info_container@exception_detail@boost@@@23@XZ 10050120 f i main.cpp.obj
 0001:0004f3e0       ?copy_boost_exception@exception_detail@boost@@YAXPAVexception@2@PBV32@@Z 100503e0 f i main.cpp.obj
 0001:0004f4b0       ?current_exception_diagnostic_information@boost@@YA?AV?$basic_string@DU?$char_traits@D@std@@V?$allocator@D@2@@std@@_N@Z 100504b0 f i main.cpp.obj
 0001:0004f550       ?deallocate@?$allocator@VSuspendedThread@hadesmem@@@std@@QAEXQAVSuspendedThread@hadesmem@@I@Z 10050550 f i main.cpp.obj
 0001:0004f590       ?dec@std@@YAAAVios_base@1@AAV21@@Z 10050590 f i main.cpp.obj
 0001:0004f5b0       ?destroy@sp_counted_base@detail@boost@@UAEXXZ 100505b0 f i main.cpp.obj
 0001:0004f5c0       ?diagnostic_information@error_info_container_impl@exception_detail@boost@@UBEPBDPBD@Z 100505c0 f i main.cpp.obj
 0001:0004f800       ?diagnostic_information_impl@exception_detail@boost@@YA?AV?$basic_string@DU?$char_traits@D@std@@V?$allocator@D@2@@std@@PBVexception@2@PBV54@_N2@Z 10050800 f i main.cpp.obj
 0001:0004fc60       ?dispose@?$sp_counted_impl_p@V?$clone_impl@Ubad_alloc_@exception_detail@boost@@@exception_detail@boost@@@detail@boost@@UAEXXZ 10050c60 f i main.cpp.obj
 0001:0004fc60       ?dispose@?$sp_counted_impl_p@V?$clone_impl@Ubad_exception_@exception_detail@boost@@@exception_detail@boost@@@detail@boost@@UAEXXZ 10050c60 f i main.cpp.obj
 0001:0004fc70       ?dispose@?$sp_counted_impl_p@V?$error_info@UTagErrorCodeWinLast@hadesmem@@K@boost@@@detail@boost@@UAEXXZ 10050c70 f i main.cpp.obj
 0001:0004fc70       ?dispose@?$sp_counted_impl_p@V?$error_info@UTagErrorString@hadesmem@@V?$basic_string@DU?$char_traits@D@std@@V?$allocator@D@2@@std@@@boost@@@detail@boost@@UAEXXZ 10050c70 f i main.cpp.obj
 0001:0004fc70       ?dispose@?$sp_counted_impl_p@Verror_info_base@exception_detail@boost@@@detail@boost@@UAEXXZ 10050c70 f i main.cpp.obj
 0001:0004fc80       ?do_falsename@?$numpunct@D@std@@MBE?AV?$basic_string@DU?$char_traits@D@std@@V?$allocator@D@2@@2@XZ 10050c80 f i main.cpp.obj
 0001:0004fcc0       ?do_grouping@?$numpunct@D@std@@MBE?AV?$basic_string@DU?$char_traits@D@std@@V?$allocator@D@2@@2@XZ 10050cc0 f i main.cpp.obj
 0001:0004fd00       ?do_put@?$num_put@DV?$ostreambuf_iterator@DU?$char_traits@D@std@@@std@@@std@@MBE?AV?$ostreambuf_iterator@DU?$char_traits@D@std@@@2@V32@AAVios_base@2@DJ@Z 10050d00 f i main.cpp.obj
 0001:0004fdd0       ?do_put@?$num_put@DV?$ostreambuf_iterator@DU?$char_traits@D@std@@@std@@@std@@MBE?AV?$ostreambuf_iterator@DU?$char_traits@D@std@@@2@V32@AAVios_base@2@DK@Z 10050dd0 f i main.cpp.obj
 0001:0004fea0       ?do_put@?$num_put@DV?$ostreambuf_iterator@DU?$char_traits@D@std@@@std@@@std@@MBE?AV?$ostreambuf_iterator@DU?$char_traits@D@std@@@2@V32@AAVios_base@2@DN@Z 10050ea0 f i main.cpp.obj
 0001:000500a0       ?do_put@?$num_put@DV?$ostreambuf_iterator@DU?$char_traits@D@std@@@std@@@std@@MBE?AV?$ostreambuf_iterator@DU?$char_traits@D@std@@@2@V32@AAVios_base@2@DO@Z 100510a0 f i main.cpp.obj
 0001:000502a0       ?do_put@?$num_put@DV?$ostreambuf_iterator@DU?$char_traits@D@std@@@std@@@std@@MBE?AV?$ostreambuf_iterator@DU?$char_traits@D@std@@@2@V32@AAVios_base@2@DPBX@Z 100512a0 f i main.cpp.obj
 0001:00050310       ?do_put@?$num_put@DV?$ostreambuf_iterator@DU?$char_traits@D@std@@@std@@@std@@MBE?AV?$ostreambuf_iterator@DU?$char_traits@D@std@@@2@V32@AAVios_base@2@D_J@Z 10051310 f i main.cpp.obj
 0001:000503f0       ?do_put@?$num_put@DV?$ostreambuf_iterator@DU?$char_traits@D@std@@@std@@@std@@MBE?AV?$ostreambuf_iterator@DU?$char_traits@D@std@@@2@V32@AAVios_base@2@D_K@Z 100513f0 f i main.cpp.obj
 0001:000504d0       ?do_put@?$num_put@DV?$ostreambuf_iterator@DU?$char_traits@D@std@@@std@@@std@@MBE?AV?$ostreambuf_iterator@DU?$char_traits@D@std@@@2@V32@AAVios_base@2@D_N@Z 100514d0 f i main.cpp.obj
 0001:000506d0       ?do_put@?$time_put@DV?$ostreambuf_iterator@DU?$char_traits@D@std@@@std@@@std@@MBE?AV?$ostreambuf_iterator@DU?$char_traits@D@std@@@2@V32@AAVios_base@2@DPBUtm@@DD@Z 100516d0 f i main.cpp.obj
 0001:00050a70       ?do_thousands_sep@?$numpunct@D@std@@MBEDXZ 10051a70 f i main.cpp.obj
 0001:00050a80       ?do_truename@?$numpunct@D@std@@MBE?AV?$basic_string@DU?$char_traits@D@std@@V?$allocator@D@2@@2@XZ 10051a80 f i main.cpp.obj
 0001:00050ac0       ?erase@?$_Tree@V?$_Tset_traits@KU?$less@K@std@@V?$allocator@K@2@$0A@@std@@@std@@QAE?AV?$_Tree_const_iterator@V?$_Tree_val@U?$_Tree_simple_types@K@std@@@std@@@2@V32@@Z 10051ac0 f i main.cpp.obj
 0001:00050b00       ?flush@?$basic_ostream@DU?$char_traits@D@std@@@std@@QAEAAV12@XZ 10051b00 f i main.cpp.obj
 0001:00050c50       ?get@error_info_container_impl@exception_detail@boost@@UBE?AV?$shared_ptr@Verror_info_base@exception_detail@boost@@@3@ABUtype_info_@23@@Z 10051c50 f i main.cpp.obj
 0001:00050cd0       ?get_diagnostic_information@exception_detail@boost@@YAPBDABVexception@2@PBD@Z 10051cd0 f i main.cpp.obj
 0001:00050d90       ?hex@std@@YAAAVios_base@1@AAV21@@Z 10051d90 f i main.cpp.obj
 0001:00050dc0       ?initCustomEvents@Nampower@@YAXXZ 10051dc0 f   main.cpp.obj
 0001:00051a70       ?initHooks@Nampower@@YAXXZ 10052a70 f   main.cpp.obj
 0001:00052be0       ?insert@?$basic_string@DU?$char_traits@D@std@@V?$allocator@D@2@@std@@QAEAAV12@IID@Z 10053be0 f i main.cpp.obj
 0001:00052d90       ?insert@?$basic_string@DU?$char_traits@D@std@@V?$allocator@D@2@@std@@QAEAAV12@IQBDI@Z 10053d90 f i main.cpp.obj
 0001:00052f90       ?loadConfig@Nampower@@YAXXZ 10053f90 f   main.cpp.obj
 0001:00054a00       ?loadUserVar@Nampower@@YAXPBD@Z 10055a00 f   main.cpp.obj
 0001:00054b90       ?name_value_string@?$error_info@UTagErrorCodeWinLast@hadesmem@@K@boost@@EBE?AV?$basic_string@DU?$char_traits@D@std@@V?$allocator@D@2@@std@@XZ 10055b90 f i main.cpp.obj
 0001:00054bb0       ?name_value_string@?$error_info@UTagErrorString@hadesmem@@V?$basic_string@DU?$char_traits@D@std@@V?$allocator@D@2@@std@@@boost@@EBE?AV?$basic_string@DU?$char_traits@D@std@@V?$allocator@D@2@@std@@XZ 10055bb0 f i main.cpp.obj
 0001:00054bd0       ?now@steady_clock@chrono@std@@SA?AV?$time_point@Usteady_clock@chrono@std@@V?$duration@_JU?$ratio@$00$0DLJKMKAA@@std@@@23@@23@XZ 10055bd0 f i main.cpp.obj
 0001:00054cd0       ?open@?$basic_ofstream@DU?$char_traits@D@std@@@std@@QAEXPBDHH@Z 10055cd0 f i main.cpp.obj
 0001:00054e50       ?overflow@?$basic_stringbuf@DU?$char_traits@D@std@@V?$allocator@D@2@@std@@MAEHH@Z 10055e50 f i main.cpp.obj
 0001:00054fa0       ?pbackfail@?$basic_stringbuf@DU?$char_traits@D@std@@V?$allocator@D@2@@std@@MAEHH@Z 10055fa0 f i main.cpp.obj
 0001:00054ff0       ?pop@CastQueue@Nampower@@QAE?AUCastSpellParams@@XZ 10055ff0 f i main.cpp.obj
 0001:00055090       ?processQueues@Nampower@@YA_NXZ 10056090 f   main.cpp.obj
 0001:00055390       ?put@?$basic_ostream@DU?$char_traits@D@std@@@std@@QAEAAV12@D@Z 10056390 f i main.cpp.obj
 0001:00055510       ?put@?$time_put@DV?$ostreambuf_iterator@DU?$char_traits@D@std@@@std@@@std@@QBE?AV?$ostreambuf_iterator@DU?$char_traits@D@std@@@2@V32@AAVios_base@2@DPBUtm@@PBD3@Z 10056510 f i main.cpp.obj
 0001:00055780       ?release@error_info_container_impl@exception_detail@boost@@EBE_NXZ 10056780 f i main.cpp.obj
 0001:00055820       ?reset@?$unique_ptr@VAllocator@hadesmem@@U?$default_delete@VAllocator@hadesmem@@@std@@@std@@QAEXPAVAllocator@hadesmem@@@Z 10056820 f i main.cpp.obj
 0001:00055843       ?rethrow@?$clone_impl@Ubad_alloc_@exception_detail@boost@@@exception_detail@boost@@$0PPPPPPPM@A@BEXXZ 10056843 f i main.cpp.obj
 0001:00055850       ?rethrow@?$clone_impl@Ubad_alloc_@exception_detail@boost@@@exception_detail@boost@@EBEXXZ 10056850 f i main.cpp.obj
 0001:00055871       ?rethrow@?$clone_impl@Ubad_exception_@exception_detail@boost@@@exception_detail@boost@@$0PPPPPPPM@A@BEXXZ 10056871 f i main.cpp.obj
 0001:00055880       ?rethrow@?$clone_impl@Ubad_exception_@exception_detail@boost@@@exception_detail@boost@@EBEXXZ 10056880 f i main.cpp.obj
 0001:000558b0       ?rethrow@?$wrapexcept@VError@hadesmem@@@boost@@UBEXXZ 100568b0 f i main.cpp.obj
 0001:000558d0       ?safeRename@Nampower@@YA_NPBD0@Z 100568d0 f   main.cpp.obj
 0001:00055960       ?seekoff@?$basic_stringbuf@DU?$char_traits@D@std@@V?$allocator@D@2@@std@@MAE?AV?$fpos@U_Mbstatet@@@2@_JHH@Z 10056960 f i main.cpp.obj
 0001:00055b50       ?seekpos@?$basic_stringbuf@DU?$char_traits@D@std@@V?$allocator@D@2@@std@@MAE?AV?$fpos@U_Mbstatet@@@2@V32@H@Z 10056b50 f i main.cpp.obj
 0001:00055cc0       ?set@error_info_container_impl@exception_detail@boost@@UAEXABV?$shared_ptr@Verror_info_base@exception_detail@boost@@@3@ABUtype_info_@23@@Z 10056cc0 f i main.cpp.obj
 0001:00055e00       ?stof@std@@YAMABV?$basic_string@DU?$char_traits@D@std@@V?$allocator@D@2@@1@PAI@Z 10056e00 f i main.cpp.obj
 0001:00055e70       ?str@?$basic_ostringstream@DU?$char_traits@D@std@@V?$allocator@D@2@@std@@QBE?AV?$basic_string@DU?$char_traits@D@std@@V?$allocator@D@2@@2@XZ 10056e70 f i main.cpp.obj
 0001:00055e90       ?str@?$basic_stringbuf@DU?$char_traits@D@std@@V?$allocator@D@2@@std@@QBE?AV?$basic_string@DU?$char_traits@D@std@@V?$allocator@D@2@@2@XZ 10056e90 f i main.cpp.obj
 0001:00055f70       ?underflow@?$basic_stringbuf@DU?$char_traits@D@std@@V?$allocator@D@2@@std@@MAEHXZ 10056f70 f i main.cpp.obj
 0001:00055fe0       ?updateFromCvar@Nampower@@YAXPBD0@Z 10056fe0 f   main.cpp.obj
 0001:000573d0       _Load                      100583d0 f   main.cpp.obj
 0001:00057550       __scprintf                 10058550 f i main.cpp.obj
 0001:00057580       __snprintf                 10058580 f i main.cpp.obj
 0001:000575c0       _sprintf_s                 100585c0 f i main.cpp.obj
 0001:000575f0       ?ApplyOnChatMessagePatch@Nampower@@YAXXZ 100585f0 f   chat.cpp.obj
 0001:00057810       ?CGUnit_C_AddChatBubbleHook@Nampower@@YAXPAVPatchDetourBase@hadesmem@@PAIPAXW4CHAT_COMMAND_ID@game@@PAD@Z 10058810 f   chat.cpp.obj
 0001:00057a10       ?OnChatMessagePatchFn@Nampower@@YAXXZ 10058a10 f   chat.cpp.obj
 0001:00057a40       ??$?8DU?$char_traits@D@std@@V?$allocator@D@1@@std@@YA_NABV?$basic_string@DU?$char_traits@D@std@@V?$allocator@D@2@@0@0@Z 10058a40 f i helper.cpp.obj
 0001:00057ad0       ??$?R_K@?$_Uhash_compare@_KU?$hash@_K@std@@U?$equal_to@_K@2@@std@@QBEIAB_K@Z 10058ad0 f i helper.cpp.obj
 0001:00057b40       ??$_Find_last@V?$basic_string@DU?$char_traits@D@std@@V?$allocator@D@2@@std@@@?$_Hash@V?$_Umap_traits@V?$basic_string@DU?$char_traits@D@std@@V?$allocator@D@2@@std@@USpellSlotCacheEntry@@V?$_Uhash_compare@V?$basic_string@DU?$char_traits@D@std@@V?$allocator@D@2@@std@@U?$hash@V?$basic_string@DU?$char_traits@D@std@@V?$allocator@D@2@@std@@@2@U?$equal_to@V?$basic_string@DU?$char_traits@D@std@@V?$allocator@D@2@@std@@@2@@2@V?$allocator@U?$pair@$$CBV?$basic_string@DU?$char_traits@D@std@@V?$allocator@D@2@@std@@USpellSlotCacheEntry@@@std@@@2@$0A@@std@@@std@@IBE?AU?$_Hash_find_last_result@PAU?$_List_node@U?$pair@$$CBV?$basic_string@DU?$char_traits@D@std@@V?$allocator@D@2@@std@@USpellSlotCacheEntry@@@std@@PAX@std@@@1@ABV?$basic_string@DU?$char_traits@D@std@@V?$allocator@D@2@@1@I@Z 10058b40 f i helper.cpp.obj
 0001:00057bc0       ??$_Find_last@_K@?$_Hash@V?$_Umap_traits@_KIV?$_Uhash_compare@_KU?$hash@_K@std@@U?$equal_to@_K@2@@std@@V?$allocator@U?$pair@$$CB_KI@std@@@2@$0A@@std@@@std@@IBE?AU?$_Hash_find_last_result@PAU?$_List_node@U?$pair@$$CB_KI@std@@PAX@std@@@1@AB_KI@Z 10058bc0 f i helper.cpp.obj
 0001:00057c30       ??$_Free_non_head@V?$allocator@U?$_List_node@U?$pair@$$CBV?$basic_string@DU?$char_traits@D@std@@V?$allocator@D@2@@std@@USpellSlotCacheEntry@@@std@@PAX@std@@@std@@@?$_List_node@U?$pair@$$CBV?$basic_string@DU?$char_traits@D@std@@V?$allocator@D@2@@std@@USpellSlotCacheEntry@@@std@@PAX@std@@SAXAAV?$allocator@U?$_List_node@U?$pair@$$CBV?$basic_string@DU?$char_traits@D@std@@V?$allocator@D@2@@std@@USpellSlotCacheEntry@@@std@@PAX@std@@@1@PAU01@@Z 10058c30 f i helper.cpp.obj
 0001:00057c80       ??$_Try_emplace@ABV?$basic_string@DU?$char_traits@D@std@@V?$allocator@D@2@@std@@$$V@?$_Hash@V?$_Umap_traits@V?$basic_string@DU?$char_traits@D@std@@V?$allocator@D@2@@std@@USpellSlotCacheEntry@@V?$_Uhash_compare@V?$basic_string@DU?$char_traits@D@std@@V?$allocator@D@2@@std@@U?$hash@V?$basic_string@DU?$char_traits@D@std@@V?$allocator@D@2@@std@@@2@U?$equal_to@V?$basic_string@DU?$char_traits@D@std@@V?$allocator@D@2@@std@@@2@@2@V?$allocator@U?$pair@$$CBV?$basic_string@DU?$char_traits@D@std@@V?$allocator@D@2@@std@@USpellSlotCacheEntry@@@std@@@2@$0A@@std@@@std@@IAE?AU?$pair@PAU?$_List_node@U?$pair@$$CBV?$basic_string@DU?$char_traits@D@std@@V?$allocator@D@2@@std@@USpellSlotCacheEntry@@@std@@PAX@std@@_N@1@ABV?$basic_string@DU?$char_traits@D@std@@V?$allocator@D@2@@1@@Z 10058c80 f i helper.cpp.obj
 0001:00057ee0       ??$_Try_emplace@AB_K$$V@?$_Hash@V?$_Umap_traits@_KIV?$_Uhash_compare@_KU?$hash@_K@std@@U?$equal_to@_K@2@@std@@V?$allocator@U?$pair@$$CB_KI@std@@@2@$0A@@std@@@std@@IAE?AU?$pair@PAU?$_List_node@U?$pair@$$CB_KI@std@@PAX@std@@_N@1@AB_K@Z 10058ee0 f i helper.cpp.obj
 0001:000580b0       ??$destroy@U?$pair@$$CBV?$basic_string@DU?$char_traits@D@std@@V?$allocator@D@2@@std@@USpellSlotCacheEntry@@@std@@@?$_Default_allocator_traits@V?$allocator@U?$_List_node@U?$pair@$$CBV?$basic_string@DU?$char_traits@D@std@@V?$allocator@D@2@@std@@USpellSlotCacheEntry@@@std@@PAX@std@@@std@@@std@@SAXAAV?$allocator@U?$_List_node@U?$pair@$$CBV?$basic_string@DU?$char_traits@D@std@@V?$allocator@D@2@@std@@USpellSlotCacheEntry@@@std@@PAX@std@@@1@QAU?$pair@$$CBV?$basic_string@DU?$char_traits@D@std@@V?$allocator@D@2@@std@@USpellSlotCacheEntry@@@1@@Z 100590b0 f i helper.cpp.obj
 0001:00058110       ??$fill@PAV?$_List_unchecked_const_iterator@V?$_List_val@U?$_List_simple_types@I@std@@@std@@U_Iterator_base0@2@@std@@V12@@std@@YAXQAV?$_List_unchecked_const_iterator@V?$_List_val@U?$_List_simple_types@I@std@@@std@@U_Iterator_base0@2@@0@0ABV10@@Z 10059110 f i items.cpp.obj
 0001:00058110       ??$fill@PAV?$_List_unchecked_iterator@V?$_List_val@U?$_List_simple_types@U?$pair@$$CBII@std@@@std@@@std@@@std@@V12@@std@@YAXQAV?$_List_unchecked_iterator@V?$_List_val@U?$_List_simple_types@U?$pair@$$CBII@std@@@std@@@std@@@0@0ABV10@@Z 10059110 f i tooltip.cpp.obj
 0001:00058110       ??$fill@PAV?$_List_unchecked_iterator@V?$_List_val@U?$_List_simple_types@U?$pair@$$CBIPAUItemStats_C@game@@@std@@@std@@@std@@@std@@V12@@std@@YAXQAV?$_List_unchecked_iterator@V?$_List_val@U?$_List_simple_types@U?$pair@$$CBIPAUItemStats_C@game@@@std@@@std@@@std@@@0@0ABV10@@Z 10059110 f i items.cpp.obj
 0001:00058110       ??$fill@PAV?$_List_unchecked_iterator@V?$_List_val@U?$_List_simple_types@U?$pair@$$CBV?$basic_string@DU?$char_traits@D@std@@V?$allocator@D@2@@std@@H@std@@@std@@@std@@@std@@V12@@std@@YAXQAV?$_List_unchecked_iterator@V?$_List_val@U?$_List_simple_types@U?$pair@$$CBV?$basic_string@DU?$char_traits@D@std@@V?$allocator@D@2@@std@@H@std@@@std@@@std@@@0@0ABV10@@Z 10059110 f i misc_scripts.cpp.obj
 0001:00058110       ??$fill@PAV?$_List_unchecked_iterator@V?$_List_val@U?$_List_simple_types@U?$pair@$$CBV?$basic_string@DU?$char_traits@D@std@@V?$allocator@D@2@@std@@I@std@@@std@@@std@@@std@@V12@@std@@YAXQAV?$_List_unchecked_iterator@V?$_List_val@U?$_List_simple_types@U?$pair@$$CBV?$basic_string@DU?$char_traits@D@std@@V?$allocator@D@2@@std@@I@std@@@std@@@std@@@0@0ABV10@@Z 10059110 f i items.cpp.obj
 0001:00058110       ??$fill@PAV?$_List_unchecked_iterator@V?$_List_val@U?$_List_simple_types@U?$pair@$$CBV?$basic_string@DU?$char_traits@D@std@@V?$allocator@D@2@@std@@USpellSlotCacheEntry@@@std@@@std@@@std@@@std@@V12@@std@@YAXQAV?$_List_unchecked_iterator@V?$_List_val@U?$_List_simple_types@U?$pair@$$CBV?$basic_string@DU?$char_traits@D@std@@V?$allocator@D@2@@std@@USpellSlotCacheEntry@@@std@@@std@@@std@@@0@0ABV10@@Z 10059110 f i helper.cpp.obj
 0001:00058110       ??$fill@PAV?$_List_unchecked_iterator@V?$_List_val@U?$_List_simple_types@U?$pair@$$CB_KI@std@@@std@@@std@@@std@@V12@@std@@YAXQAV?$_List_unchecked_iterator@V?$_List_val@U?$_List_simple_types@U?$pair@$$CB_KI@std@@@std@@@std@@@0@0ABV10@@Z 10059110 f i helper.cpp.obj
 0001:00058170       ??1?$_Alloc_construct_ptr@V?$allocator@U?$_List_node@U?$pair@$$CBV?$basic_string@DU?$char_traits@D@std@@V?$allocator@D@2@@std@@USpellSlotCacheEntry@@@std@@PAX@std@@@std@@@std@@QAE@XZ 10059170 f i helper.cpp.obj
 0001:00058190       ??1?$_Alloc_construct_ptr@V?$allocator@U?$_List_node@U?$pair@$$CB_KI@std@@PAX@std@@@std@@@std@@QAE@XZ 10059190 f i helper.cpp.obj
 0001:00058190       ??1?$_Alloc_construct_ptr@V?$allocator@U?$_Tree_node@U?$pair@$$CBII@std@@PAX@std@@@std@@@std@@QAE@XZ 10059190 f i pet.cpp.obj
 0001:00058190       ??1?$_List_node_emplace_op2@V?$allocator@U?$_List_node@U?$pair@$$CB_KI@std@@PAX@std@@@std@@@std@@QAE@XZ 10059190 f i helper.cpp.obj
 0001:000581b0       ??1?$_Hash@V?$_Umap_traits@V?$basic_string@DU?$char_traits@D@std@@V?$allocator@D@2@@std@@USpellSlotCacheEntry@@V?$_Uhash_compare@V?$basic_string@DU?$char_traits@D@std@@V?$allocator@D@2@@std@@U?$hash@V?$basic_string@DU?$char_traits@D@std@@V?$allocator@D@2@@std@@@2@U?$equal_to@V?$basic_string@DU?$char_traits@D@std@@V?$allocator@D@2@@std@@@2@@2@V?$allocator@U?$pair@$$CBV?$basic_string@DU?$char_traits@D@std@@V?$allocator@D@2@@std@@USpellSlotCacheEntry@@@std@@@2@$0A@@std@@@std@@QAE@XZ 100591b0 f i helper.cpp.obj
 0001:00058220       ??1?$_Hash@V?$_Umap_traits@_KIV?$_Uhash_compare@_KU?$hash@_K@std@@U?$equal_to@_K@2@@std@@V?$allocator@U?$pair@$$CB_KI@std@@@2@$0A@@std@@@std@@QAE@XZ 10059220 f i helper.cpp.obj
 0001:000582b0       ??1?$_Hash_vec@V?$allocator@V?$_List_unchecked_const_iterator@V?$_List_val@U?$_List_simple_types@I@std@@@std@@U_Iterator_base0@2@@std@@@std@@@std@@QAE@XZ 100592b0 f i items.cpp.obj
 0001:000582b0       ??1?$_Hash_vec@V?$allocator@V?$_List_unchecked_iterator@V?$_List_val@U?$_List_simple_types@U?$pair@$$CBII@std@@@std@@@std@@@std@@@std@@@std@@QAE@XZ 100592b0 f i tooltip.cpp.obj
 0001:000582b0       ??1?$_Hash_vec@V?$allocator@V?$_List_unchecked_iterator@V?$_List_val@U?$_List_simple_types@U?$pair@$$CBIPAUItemStats_C@game@@@std@@@std@@@std@@@std@@@std@@@std@@QAE@XZ 100592b0 f i items.cpp.obj
 0001:000582b0       ??1?$_Hash_vec@V?$allocator@V?$_List_unchecked_iterator@V?$_List_val@U?$_List_simple_types@U?$pair@$$CBV?$basic_string@DU?$char_traits@D@std@@V?$allocator@D@2@@std@@H@std@@@std@@@std@@@std@@@std@@@std@@QAE@XZ 100592b0 f i misc_scripts.cpp.obj
 0001:000582b0       ??1?$_Hash_vec@V?$allocator@V?$_List_unchecked_iterator@V?$_List_val@U?$_List_simple_types@U?$pair@$$CBV?$basic_string@DU?$char_traits@D@std@@V?$allocator@D@2@@std@@I@std@@@std@@@std@@@std@@@std@@@std@@QAE@XZ 100592b0 f i items.cpp.obj
 0001:000582b0       ??1?$_Hash_vec@V?$allocator@V?$_List_unchecked_iterator@V?$_List_val@U?$_List_simple_types@U?$pair@$$CBV?$basic_string@DU?$char_traits@D@std@@V?$allocator@D@2@@std@@USpellSlotCacheEntry@@@std@@@std@@@std@@@std@@@std@@@std@@QAE@XZ 100592b0 f i helper.cpp.obj
 0001:000582b0       ??1?$_Hash_vec@V?$allocator@V?$_List_unchecked_iterator@V?$_List_val@U?$_List_simple_types@U?$pair@$$CB_KI@std@@@std@@@std@@@std@@@std@@@std@@QAE@XZ 100592b0 f i helper.cpp.obj
 0001:00058310       ??1?$_List_node_emplace_op2@V?$allocator@U?$_List_node@U?$pair@$$CBV?$basic_string@DU?$char_traits@D@std@@V?$allocator@D@2@@std@@USpellSlotCacheEntry@@@std@@PAX@std@@@std@@@std@@QAE@XZ 10059310 f i helper.cpp.obj
 0001:00058340       ??1?$list@U?$pair@$$CBV?$basic_string@DU?$char_traits@D@std@@V?$allocator@D@2@@std@@USpellSlotCacheEntry@@@std@@V?$allocator@U?$pair@$$CBV?$basic_string@DU?$char_traits@D@std@@V?$allocator@D@2@@std@@USpellSlotCacheEntry@@@std@@@2@@std@@QAE@XZ 10059340 f i helper.cpp.obj
 0001:00058360       ??1?$list@U?$pair@$$CB_KI@std@@V?$allocator@U?$pair@$$CB_KI@std@@@2@@std@@QAE@XZ 10059360 f i helper.cpp.obj
 0001:00058430       ??1SpellSlotCacheEntry@@QAE@XZ 10059430 f i helper.cpp.obj
 0001:000586a0       ?ClearSpellSlotCaches@Nampower@@YAXXZ 100596a0 f   helper.cpp.obj
 0001:000587f0       ?ConvertGuidToString@Nampower@@YAPAD_K@Z 100597f0 f   helper.cpp.obj
 0001:00058830       ?ConvertSpellIdToSpellSlot@Nampower@@YAIII@Z 10059830 f   helper.cpp.obj
 0001:00058920       ?FreeGuidString@Nampower@@YAXPAD@Z 10059920 f   helper.cpp.obj
 0001:00058940       ?GetChatBubbleDistance@Nampower@@YAMXZ 10059940 f   helper.cpp.obj
 0001:00058990       ?GetGcdOrCooldownForSpell@Nampower@@YAII@Z 10059990 f   helper.cpp.obj
 0001:000589d0       ?GetNameplateDistance@Nampower@@YAMXZ 100599d0 f   helper.cpp.obj
 0001:00058a20       ?GetRemainingCooldownForSpell@Nampower@@YAII@Z 10059a20 f   helper.cpp.obj
 0001:00058a90       ?GetSpellIdFromSpellName@Nampower@@YAIPBD@Z 10059a90 f   helper.cpp.obj
 0001:00058ad0       ?GetSpellSlotAndTypeForName@Nampower@@YAHPBDPAI@Z 10059ad0 f   helper.cpp.obj
 0001:00058df0       ?GetUnitGuidFromLuaParam@Nampower@@YA_KPAIH@Z 10059df0 f   helper.cpp.obj
 0001:00058ed0       ?GetUnitGuidFromString@Nampower@@YA_KPBD@Z 10059ed0 f   helper.cpp.obj
 0001:00058f40       ?IsReadableMemory@Nampower@@YA_NPBXI@Z 10059f40 f   helper.cpp.obj
 0001:00058fd0       ?IsSpellOnCooldown@Nampower@@YA_NI@Z 10059fd0 f   helper.cpp.obj
 0001:00059030       ?IsTargetingTerrainSpell@Nampower@@YA_NXZ 1005a030 f   helper.cpp.obj
 0001:00059040       ?PushGuidString@Nampower@@YAXPAI_K@Z 1005a040 f   helper.cpp.obj
 0001:000590b0       ?SafeReadMemory@Nampower@@YA_NPBXPAXI@Z 1005a0b0 f   helper.cpp.obj
 0001:00059160       ?SetChatBubbleDistance@Nampower@@YAXM@Z 1005a160 f   helper.cpp.obj
 0001:000591a0       ?SetNameplateDistance@Nampower@@YAXM@Z 1005a1a0 f   helper.cpp.obj
 0001:000591c0       ?SpellIsAttackTradeskillOrEnchant@Nampower@@YA_NPBUSpellRec@game@@@Z 1005a1c0 f   helper.cpp.obj
 0001:00059210       ?SpellIsChanneling@Nampower@@YA_NPBUSpellRec@game@@@Z 1005a210 f   helper.cpp.obj
 0001:00059220       ?SpellIsMounting@Nampower@@YA_NPBUSpellRec@game@@@Z 1005a220 f   helper.cpp.obj
 0001:00059250       ?SpellIsOnGcd@Nampower@@YA_NPBUSpellRec@game@@@Z 1005a250 f   helper.cpp.obj
 0001:00059270       ?SpellIsOnSwing@Nampower@@YA_NPBUSpellRec@game@@@Z 1005a270 f   helper.cpp.obj
 0001:00059280       ?SpellIsTargeting@Nampower@@YA_NPBUSpellRec@game@@@Z 1005a280 f   helper.cpp.obj
 0001:00059290       ?_Assign_grow@?$_Hash_vec@V?$allocator@V?$_List_unchecked_const_iterator@V?$_List_val@U?$_List_simple_types@I@std@@@std@@U_Iterator_base0@2@@std@@@std@@@std@@QAEXIV?$_List_unchecked_const_iterator@V?$_List_val@U?$_List_simple_types@I@std@@@std@@U_Iterator_base0@2@@2@@Z 1005a290 f i items.cpp.obj
 0001:00059290       ?_Assign_grow@?$_Hash_vec@V?$allocator@V?$_List_unchecked_iterator@V?$_List_val@U?$_List_simple_types@U?$pair@$$CBII@std@@@std@@@std@@@std@@@std@@@std@@QAEXIV?$_List_unchecked_iterator@V?$_List_val@U?$_List_simple_types@U?$pair@$$CBII@std@@@std@@@std@@@2@@Z 1005a290 f i tooltip.cpp.obj
 0001:00059290       ?_Assign_grow@?$_Hash_vec@V?$allocator@V?$_List_unchecked_iterator@V?$_List_val@U?$_List_simple_types@U?$pair@$$CBIPAUItemStats_C@game@@@std@@@std@@@std@@@std@@@std@@@std@@QAEXIV?$_List_unchecked_iterator@V?$_List_val@U?$_List_simple_types@U?$pair@$$CBIPAUItemStats_C@game@@@std@@@std@@@std@@@2@@Z 1005a290 f i items.cpp.obj
 0001:00059290       ?_Assign_grow@?$_Hash_vec@V?$allocator@V?$_List_unchecked_iterator@V?$_List_val@U?$_List_simple_types@U?$pair@$$CBV?$basic_string@DU?$char_traits@D@std@@V?$allocator@D@2@@std@@H@std@@@std@@@std@@@std@@@std@@@std@@QAEXIV?$_List_unchecked_iterator@V?$_List_val@U?$_List_simple_types@U?$pair@$$CBV?$basic_string@DU?$char_traits@D@std@@V?$allocator@D@2@@std@@H@std@@@std@@@std@@@2@@Z 1005a290 f i misc_scripts.cpp.obj
 0001:00059290       ?_Assign_grow@?$_Hash_vec@V?$allocator@V?$_List_unchecked_iterator@V?$_List_val@U?$_List_simple_types@U?$pair@$$CBV?$basic_string@DU?$char_traits@D@std@@V?$allocator@D@2@@std@@I@std@@@std@@@std@@@std@@@std@@@std@@QAEXIV?$_List_unchecked_iterator@V?$_List_val@U?$_List_simple_types@U?$pair@$$CBV?$basic_string@DU?$char_traits@D@std@@V?$allocator@D@2@@std@@I@std@@@std@@@std@@@2@@Z 1005a290 f i items.cpp.obj
 0001:00059290       ?_Assign_grow@?$_Hash_vec@V?$allocator@V?$_List_unchecked_iterator@V?$_List_val@U?$_List_simple_types@U?$pair@$$CBV?$basic_string@DU?$char_traits@D@std@@V?$allocator@D@2@@std@@USpellSlotCacheEntry@@@std@@@std@@@std@@@std@@@std@@@std@@QAEXIV?$_List_unchecked_iterator@V?$_List_val@U?$_List_simple_types@U?$pair@$$CBV?$basic_string@DU?$char_traits@D@std@@V?$allocator@D@2@@std@@USpellSlotCacheEntry@@@std@@@std@@@std@@@2@@Z 1005a290 f i helper.cpp.obj
 0001:00059290       ?_Assign_grow@?$_Hash_vec@V?$allocator@V?$_List_unchecked_iterator@V?$_List_val@U?$_List_simple_types@U?$pair@$$CB_KI@std@@@std@@@std@@@std@@@std@@@std@@QAEXIV?$_List_unchecked_iterator@V?$_List_val@U?$_List_simple_types@U?$pair@$$CB_KI@std@@@std@@@std@@@2@@Z 1005a290 f i helper.cpp.obj
 0001:00059380       ?_Forced_rehash@?$_Hash@V?$_Umap_traits@V?$basic_string@DU?$char_traits@D@std@@V?$allocator@D@2@@std@@USpellSlotCacheEntry@@V?$_Uhash_compare@V?$basic_string@DU?$char_traits@D@std@@V?$allocator@D@2@@std@@U?$hash@V?$basic_string@DU?$char_traits@D@std@@V?$allocator@D@2@@std@@@2@U?$equal_to@V?$basic_string@DU?$char_traits@D@std@@V?$allocator@D@2@@std@@@2@@2@V?$allocator@U?$pair@$$CBV?$basic_string@DU?$char_traits@D@std@@V?$allocator@D@2@@std@@USpellSlotCacheEntry@@@std@@@2@$0A@@std@@@std@@IAEXI@Z 1005a380 f i helper.cpp.obj
 0001:00059510       ?_Forced_rehash@?$_Hash@V?$_Umap_traits@_KIV?$_Uhash_compare@_KU?$hash@_K@std@@U?$equal_to@_K@2@@std@@V?$allocator@U?$pair@$$CB_KI@std@@@2@$0A@@std@@@std@@IAEXI@Z 1005a510 f i helper.cpp.obj
 0001:00059650       ?_Unchecked_erase@?$_Hash@V?$_Umap_traits@V?$basic_string@DU?$char_traits@D@std@@V?$allocator@D@2@@std@@USpellSlotCacheEntry@@V?$_Uhash_compare@V?$basic_string@DU?$char_traits@D@std@@V?$allocator@D@2@@std@@U?$hash@V?$basic_string@DU?$char_traits@D@std@@V?$allocator@D@2@@std@@@2@U?$equal_to@V?$basic_string@DU?$char_traits@D@std@@V?$allocator@D@2@@std@@@2@@2@V?$allocator@U?$pair@$$CBV?$basic_string@DU?$char_traits@D@std@@V?$allocator@D@2@@std@@USpellSlotCacheEntry@@@std@@@2@$0A@@std@@@std@@AAEPAU?$_List_node@U?$pair@$$CBV?$basic_string@DU?$char_traits@D@std@@V?$allocator@D@2@@std@@USpellSlotCacheEntry@@@std@@PAX@2@PAU32@QAU32@@Z 1005a650 f i helper.cpp.obj
 0001:00059810       ?clear@?$_Hash@V?$_Umap_traits@V?$basic_string@DU?$char_traits@D@std@@V?$allocator@D@2@@std@@USpellSlotCacheEntry@@V?$_Uhash_compare@V?$basic_string@DU?$char_traits@D@std@@V?$allocator@D@2@@std@@U?$hash@V?$basic_string@DU?$char_traits@D@std@@V?$allocator@D@2@@std@@@2@U?$equal_to@V?$basic_string@DU?$char_traits@D@std@@V?$allocator@D@2@@std@@@2@@2@V?$allocator@U?$pair@$$CBV?$basic_string@DU?$char_traits@D@std@@V?$allocator@D@2@@std@@USpellSlotCacheEntry@@@std@@@2@$0A@@std@@@std@@QAEXXZ 1005a810 f i helper.cpp.obj
 0001:00059870       ?clear@?$_Hash@V?$_Umap_traits@_KIV?$_Uhash_compare@_KU?$hash@_K@std@@U?$equal_to@_K@2@@std@@V?$allocator@U?$pair@$$CB_KI@std@@@2@$0A@@std@@@std@@QAEXXZ 1005a870 f i helper.cpp.obj
 0001:00059a00       _snprintf                  1005aa00 f i helper.cpp.obj
 0001:00059a40       ??6?$basic_ostream@DU?$char_traits@D@std@@@std@@QAEAAV01@_K@Z 1005aa40 f i spellcast.cpp.obj
 0001:00059bf0       ?BeginCast@Nampower@@YAXIPBUSpellRec@game@@PBUSpellCast@3@@Z 1005abf0 f   spellcast.cpp.obj
 0001:0005a210       ?CGActionBar_UseActionHook@Nampower@@YAXPAVPatchDetourBase@hadesmem@@IHH@Z 1005b210 f   spellcast.cpp.obj
 0001:0005a390       ?CGSpellBook_CastSpellHook@Nampower@@YAXPAVPatchDetourBase@hadesmem@@IH_K@Z 1005b390 f   spellcast.cpp.obj
 0001:0005a510       ?CGWorldFrame_OnLayerTrackTerrainHook@Nampower@@YAXPAVPatchDetourBase@hadesmem@@PAXHH@Z 1005b510 f   spellcast.cpp.obj
 0001:0005a580       ?CancelSpellHook@Nampower@@YAXPAVPatchDetourBase@hadesmem@@_N1W4SpellCastResult@game@@@Z 1005b580 f   spellcast.cpp.obj
 0001:0005a740       ?CastQueuedNonGcdSpell@Nampower@@YAXXZ 1005b740 f   spellcast.cpp.obj
 0001:0005a930       ?CastQueuedNormalSpell@Nampower@@YAXXZ 1005b930 f   spellcast.cpp.obj
 0001:0005ab20       ?SaveCastParams@Nampower@@YAXPAUCastSpellParams@@PAIIPAUCGItem_C@game@@_KIIIW4CastType@@I@Z 1005bb20 f   spellcast.cpp.obj
 0001:0005ab70       ?SendCastHook@Nampower@@YAXPAVPatchDetourBase@hadesmem@@PAUSpellCast@game@@D@Z 1005bb70 f   spellcast.cpp.obj
 0001:0005abc0       ?Spell_C_CastSpellHook@Nampower@@YA_NPAVPatchDetourBase@hadesmem@@PAIIPAUCGItem_C@game@@_K@Z 1005bbc0 f   spellcast.cpp.obj
 0001:0005c200       ?Spell_C_HandleTerrainClickHook@Nampower@@YAIPAVPatchDetourBase@hadesmem@@PAUCTerrainClickEvent@game@@@Z 1005d200 f   spellcast.cpp.obj
 0001:0005c220       ?Spell_C_TargetSpellHook@Nampower@@YA_NPAVPatchDetourBase@hadesmem@@PAI1IM@Z 1005d220 f   spellcast.cpp.obj
 0001:0005c3a0       ?TriggerQuickcast@Nampower@@YAXXZ 1005d3a0 f   spellcast.cpp.obj
 0001:0005c500       ?TriggerSpellCastEvent@Nampower@@YAX_NIW4CastType@@_KI@Z 1005d500 f   spellcast.cpp.obj
 0001:0005c550       ?TriggerSpellQueuedEvent@Nampower@@YAXW4QueueEvents@@I@Z 1005d550 f   spellcast.cpp.obj
 0001:0005c570       ?findSpellId@CastQueue@Nampower@@QAEPAUCastSpellParams@@I@Z 1005d570 f i spellcast.cpp.obj
 0001:0005c5b0       ?push@CastQueue@Nampower@@QAEXABUCastSpellParams@@_N@Z 1005d5b0 f i spellcast.cpp.obj
 0001:0005c790       ?pushFront@CastQueue@Nampower@@QAEXABUCastSpellParams@@@Z 1005d790 f i spellcast.cpp.obj
 0001:0005c8b0       ??$Get@H@CDataStore@Nampower@@QAEXAAH@Z 1005d8b0 f i spellevents.cpp.obj
 0001:0005c8b0       ??$Get@I@CDataStore@Nampower@@QAEXAAI@Z 1005d8b0 f i spellchannel.cpp.obj
 0001:0005c910       ?SpellChannelStartHandlerHook@Nampower@@YAHPAVPatchDetourBase@hadesmem@@PAIPAVCDataStore@1@@Z 1005d910 f   spellchannel.cpp.obj
 0001:0005cf20       ?SpellChannelUpdateHandlerHook@Nampower@@YAHPAVPatchDetourBase@hadesmem@@PAIPAVCDataStore@1@@Z 1005df20 f   spellchannel.cpp.obj
 0001:0005d1d0       ??$Get@F@CDataStore@Nampower@@QAEXAAF@Z 1005e1d0 f i spellevents.cpp.obj
 0001:0005d230       ??$Get@_K@CDataStore@Nampower@@QAEXAA_K@Z 1005e230 f i spellevents.cpp.obj
 0001:0005d2a0       ?CastResultHandlerHook@Nampower@@YAHPAVPatchDetourBase@hadesmem@@PAIPAVCDataStore@1@@Z 1005e2a0 f   spellevents.cpp.obj
 0001:0005d7d0       ?PeriodicAuraLogHandlerHook@Nampower@@YAHPAVPatchDetourBase@hadesmem@@IIIPAVCDataStore@1@@Z 1005e7d0 f   spellevents.cpp.obj
 0001:0005d9e0       ?ProcResistHandlerHook@Nampower@@YAHPAVPatchDetourBase@hadesmem@@PAIPAVCDataStore@1@@Z 1005e9e0 f   spellevents.cpp.obj
 0001:0005da60       ?Script_SpellTargetUnitHook@Nampower@@YAIPAVPatchDetourBase@hadesmem@@PAI@Z 1005ea60 f   spellevents.cpp.obj
 0001:0005dbd0       ?SpellDelayedHook@Nampower@@YAHPAVPatchDetourBase@hadesmem@@PAIPAVCDataStore@1@@Z 1005ebd0 f   spellevents.cpp.obj
 0001:0005ddd0       ?SpellEnergizeLogHandlerHook@Nampower@@YAHPAVPatchDetourBase@hadesmem@@PAIPAVCDataStore@1@@Z 1005edd0 f   spellevents.cpp.obj
 0001:0005de70       ?SpellFailedOtherHandlerHook@Nampower@@YAHPAVPatchDetourBase@hadesmem@@PAIPAVCDataStore@1@@Z 1005ee70 f   spellevents.cpp.obj
 0001:0005dee0       ?SpellGoHook@Nampower@@YAXPAVPatchDetourBase@hadesmem@@PA_K1IPAVCDataStore@1@@Z 1005eee0 f   spellevents.cpp.obj
 0001:0005e690       ?SpellHealingLogHandlerHook@Nampower@@YAHPAVPatchDetourBase@hadesmem@@PAIPAVCDataStore@1@@Z 1005f690 f   spellevents.cpp.obj
 0001:0005e730       ?SpellLogMissHandlerHook@Nampower@@YAHPAVPatchDetourBase@hadesmem@@PAIPAVCDataStore@1@@Z 1005f730 f   spellevents.cpp.obj
 0001:0005e7d0       ?SpellNonMeleeDmgLogHandlerHook@Nampower@@YAHPAVPatchDetourBase@hadesmem@@IIIPAVCDataStore@1@@Z 1005f7d0 f   spellevents.cpp.obj
 0001:0005e8d0       ?SpellOrDamageImmuneHandlerHook@Nampower@@YAHPAVPatchDetourBase@hadesmem@@PAIPAVCDataStore@1@@Z 1005f8d0 f   spellevents.cpp.obj
 0001:0005e950       ?SpellStartHandlerHook@Nampower@@YAHPAVPatchDetourBase@hadesmem@@IIIPAVCDataStore@1@@Z 1005f950 f   spellevents.cpp.obj
 0001:0005efb0       ?Spell_C_SpellFailedHook@Nampower@@YAXPAVPatchDetourBase@hadesmem@@IW4SpellCastResult@game@@HH_N@Z 1005ffb0 f   spellevents.cpp.obj
 0001:0005fc90       ?TriggerAuraCastEvent@Nampower@@YAXPBUSpellRec@game@@_KQA_KE1_N@Z 10060c90 f   spellevents.cpp.obj
 0001:0005ff60       ?TriggerSpellDamageEvent@Nampower@@YAX_K0IIIIIHII@Z 10060f60 f   spellevents.cpp.obj
 0001:000602e0       ?TriggerSpellEnergizeEvent@Nampower@@YAX_K0IIIE@Z 100612e0 f   spellevents.cpp.obj
 0001:000603a0       ?TriggerSpellHealEvent@Nampower@@YAX_K0IIEE@Z 100613a0 f   spellevents.cpp.obj
 0001:00060460       ?TriggerSpellMissEvent@Nampower@@YAX_K0II@Z 10061460 f   spellevents.cpp.obj
 0001:000604d0       ?UnitCombatLogDispelledHook@Nampower@@YAXPAVPatchDetourBase@hadesmem@@PA_K1I@Z 100614d0 f   spellevents.cpp.obj
 0001:00060560       ?findOldestWaitingForServerSpellId@CastQueue@Nampower@@QAEPAUCastSpellParams@@I@Z 10061560 f i spellevents.cpp.obj
 0001:000605b0       ?triggerAuraCastEventOnTarget@Nampower@@YAXPBUSpellRec@game@@HPAD1_K2II@Z 100615b0 f   spellevents.cpp.obj
 0001:000606a0       ??$PushArrayFieldsToLuaWithRefs@UItemStats_C@game@@@Nampower@@YAXPAIPBUItemStats_C@game@@PBUArrayFieldDescriptor@0@IAAV?$unordered_map@V?$basic_string@DU?$char_traits@D@std@@V?$allocator@D@2@@std@@HU?$hash@V?$basic_string@DU?$char_traits@D@std@@V?$allocator@D@2@@std@@@2@U?$equal_to@V?$basic_string@DU?$char_traits@D@std@@V?$allocator@D@2@@std@@@2@V?$allocator@U?$pair@$$CBV?$basic_string@DU?$char_traits@D@std@@V?$allocator@D@2@@std@@H@std@@@2@@std@@@Z 100616a0 f i item_scripts.cpp.obj
 0001:000606a0       ??$PushArrayFieldsToLuaWithRefs@USpellRec@game@@@Nampower@@YAXPAIPBUSpellRec@game@@PBUArrayFieldDescriptor@0@IAAV?$unordered_map@V?$basic_string@DU?$char_traits@D@std@@V?$allocator@D@2@@std@@HU?$hash@V?$basic_string@DU?$char_traits@D@std@@V?$allocator@D@2@@std@@@2@U?$equal_to@V?$basic_string@DU?$char_traits@D@std@@V?$allocator@D@2@@std@@@2@V?$allocator@U?$pair@$$CBV?$basic_string@DU?$char_traits@D@std@@V?$allocator@D@2@@std@@H@std@@@2@@std@@@Z 100616a0 f i spell_scripts.cpp.obj
 0001:000606a0       ??$PushArrayFieldsToLuaWithRefs@UUnitFields@game@@@Nampower@@YAXPAIPBUUnitFields@game@@PBUArrayFieldDescriptor@0@IAAV?$unordered_map@V?$basic_string@DU?$char_traits@D@std@@V?$allocator@D@2@@std@@HU?$hash@V?$basic_string@DU?$char_traits@D@std@@V?$allocator@D@2@@std@@@2@U?$equal_to@V?$basic_string@DU?$char_traits@D@std@@V?$allocator@D@2@@std@@@2@V?$allocator@U?$pair@$$CBV?$basic_string@DU?$char_traits@D@std@@V?$allocator@D@2@@std@@H@std@@@2@@std@@@Z 100616a0 f i misc_scripts.cpp.obj
 0001:00060920       ??$_Find_last@V?$basic_string@DU?$char_traits@D@std@@V?$allocator@D@2@@std@@@?$_Hash@V?$_Umap_traits@V?$basic_string@DU?$char_traits@D@std@@V?$allocator@D@2@@std@@HV?$_Uhash_compare@V?$basic_string@DU?$char_traits@D@std@@V?$allocator@D@2@@std@@U?$hash@V?$basic_string@DU?$char_traits@D@std@@V?$allocator@D@2@@std@@@2@U?$equal_to@V?$basic_string@DU?$char_traits@D@std@@V?$allocator@D@2@@std@@@2@@2@V?$allocator@U?$pair@$$CBV?$basic_string@DU?$char_traits@D@std@@V?$allocator@D@2@@std@@H@std@@@2@$0A@@std@@@std@@IBE?AU?$_Hash_find_last_result@PAU?$_List_node@U?$pair@$$CBV?$basic_string@DU?$char_traits@D@std@@V?$allocator@D@2@@std@@H@std@@PAX@std@@@1@ABV?$basic_string@DU?$char_traits@D@std@@V?$allocator@D@2@@1@I@Z 10061920 f i misc_scripts.cpp.obj
 0001:00060920       ??$_Find_last@V?$basic_string@DU?$char_traits@D@std@@V?$allocator@D@2@@std@@@?$_Hash@V?$_Umap_traits@V?$basic_string@DU?$char_traits@D@std@@V?$allocator@D@2@@std@@IV?$_Uhash_compare@V?$basic_string@DU?$char_traits@D@std@@V?$allocator@D@2@@std@@U?$hash@V?$basic_string@DU?$char_traits@D@std@@V?$allocator@D@2@@std@@@2@U?$equal_to@V?$basic_string@DU?$char_traits@D@std@@V?$allocator@D@2@@std@@@2@@2@V?$allocator@U?$pair@$$CBV?$basic_string@DU?$char_traits@D@std@@V?$allocator@D@2@@std@@I@std@@@2@$0A@@std@@@std@@IBE?AU?$_Hash_find_last_result@PAU?$_List_node@U?$pair@$$CBV?$basic_string@DU?$char_traits@D@std@@V?$allocator@D@2@@std@@I@std@@PAX@std@@@1@ABV?$basic_string@DU?$char_traits@D@std@@V?$allocator@D@2@@1@I@Z 10061920 f i misc_scripts.cpp.obj
 0001:00060a10       ??$_Free_non_head@V?$allocator@U?$_List_node@U?$pair@$$CBV?$basic_string@DU?$char_traits@D@std@@V?$allocator@D@2@@std@@H@std@@PAX@std@@@std@@@?$_List_node@U?$pair@$$CBV?$basic_string@DU?$char_traits@D@std@@V?$allocator@D@2@@std@@H@std@@PAX@std@@SAXAAV?$allocator@U?$_List_node@U?$pair@$$CBV?$basic_string@DU?$char_traits@D@std@@V?$allocator@D@2@@std@@H@std@@PAX@std@@@1@PAU01@@Z 10061a10 f i misc_scripts.cpp.obj
 0001:00060a10       ??$_Free_non_head@V?$allocator@U?$_List_node@U?$pair@$$CBV?$basic_string@DU?$char_traits@D@std@@V?$allocator@D@2@@std@@I@std@@PAX@std@@@std@@@?$_List_node@U?$pair@$$CBV?$basic_string@DU?$char_traits@D@std@@V?$allocator@D@2@@std@@I@std@@PAX@std@@SAXAAV?$allocator@U?$_List_node@U?$pair@$$CBV?$basic_string@DU?$char_traits@D@std@@V?$allocator@D@2@@std@@I@std@@PAX@std@@@1@PAU01@@Z 10061a10 f i items.cpp.obj
 0001:00060a90       ??$_Try_emplace@V?$basic_string@DU?$char_traits@D@std@@V?$allocator@D@2@@std@@$$V@?$_Hash@V?$_Umap_traits@V?$basic_string@DU?$char_traits@D@std@@V?$allocator@D@2@@std@@HV?$_Uhash_compare@V?$basic_string@DU?$char_traits@D@std@@V?$allocator@D@2@@std@@U?$hash@V?$basic_string@DU?$char_traits@D@std@@V?$allocator@D@2@@std@@@2@U?$equal_to@V?$basic_string@DU?$char_traits@D@std@@V?$allocator@D@2@@std@@@2@@2@V?$allocator@U?$pair@$$CBV?$basic_string@DU?$char_traits@D@std@@V?$allocator@D@2@@std@@H@std@@@2@$0A@@std@@@std@@IAE?AU?$pair@PAU?$_List_node@U?$pair@$$CBV?$basic_string@DU?$char_traits@D@std@@V?$allocator@D@2@@std@@H@std@@PAX@std@@_N@1@$$QAV?$basic_string@DU?$char_traits@D@std@@V?$allocator@D@2@@1@@Z 10061a90 f i misc_scripts.cpp.obj
 0001:00060a90       ??$_Try_emplace@V?$basic_string@DU?$char_traits@D@std@@V?$allocator@D@2@@std@@$$V@?$_Hash@V?$_Umap_traits@V?$basic_string@DU?$char_traits@D@std@@V?$allocator@D@2@@std@@IV?$_Uhash_compare@V?$basic_string@DU?$char_traits@D@std@@V?$allocator@D@2@@std@@U?$hash@V?$basic_string@DU?$char_traits@D@std@@V?$allocator@D@2@@std@@@2@U?$equal_to@V?$basic_string@DU?$char_traits@D@std@@V?$allocator@D@2@@std@@@2@@2@V?$allocator@U?$pair@$$CBV?$basic_string@DU?$char_traits@D@std@@V?$allocator@D@2@@std@@I@std@@@2@$0A@@std@@@std@@IAE?AU?$pair@PAU?$_List_node@U?$pair@$$CBV?$basic_string@DU?$char_traits@D@std@@V?$allocator@D@2@@std@@I@std@@PAX@std@@_N@1@$$QAV?$basic_string@DU?$char_traits@D@std@@V?$allocator@D@2@@1@@Z 10061a90 f i dbc_fields.cpp.obj
 0001:00060cd0       ??$destroy@U?$pair@$$CBV?$basic_string@DU?$char_traits@D@std@@V?$allocator@D@2@@std@@H@std@@@?$_Default_allocator_traits@V?$allocator@U?$_List_node@U?$pair@$$CBV?$basic_string@DU?$char_traits@D@std@@V?$allocator@D@2@@std@@H@std@@PAX@std@@@std@@@std@@SAXAAV?$allocator@U?$_List_node@U?$pair@$$CBV?$basic_string@DU?$char_traits@D@std@@V?$allocator@D@2@@std@@H@std@@PAX@std@@@1@QAU?$pair@$$CBV?$basic_string@DU?$char_traits@D@std@@V?$allocator@D@2@@std@@H@1@@Z 10061cd0 f i misc_scripts.cpp.obj
 0001:00060cd0       ??$destroy@U?$pair@$$CBV?$basic_string@DU?$char_traits@D@std@@V?$allocator@D@2@@std@@I@std@@@?$_Default_allocator_traits@V?$allocator@U?$_List_node@U?$pair@$$CBV?$basic_string@DU?$char_traits@D@std@@V?$allocator@D@2@@std@@I@std@@PAX@std@@@std@@@std@@SAXAAV?$allocator@U?$_List_node@U?$pair@$$CBV?$basic_string@DU?$char_traits@D@std@@V?$allocator@D@2@@std@@I@std@@PAX@std@@@1@QAU?$pair@$$CBV?$basic_string@DU?$char_traits@D@std@@V?$allocator@D@2@@std@@I@1@@Z 10061cd0 f i items.cpp.obj
 0001:00060d20       ??$find@X@?$_Hash@V?$_Umap_traits@V?$basic_string@DU?$char_traits@D@std@@V?$allocator@D@2@@std@@IV?$_Uhash_compare@V?$basic_string@DU?$char_traits@D@std@@V?$allocator@D@2@@std@@U?$hash@V?$basic_string@DU?$char_traits@D@std@@V?$allocator@D@2@@std@@@2@U?$equal_to@V?$basic_string@DU?$char_traits@D@std@@V?$allocator@D@2@@std@@@2@@2@V?$allocator@U?$pair@$$CBV?$basic_string@DU?$char_traits@D@std@@V?$allocator@D@2@@std@@I@std@@@2@$0A@@std@@@std@@QAE?AV?$_List_iterator@V?$_List_val@U?$_List_simple_types@U?$pair@$$CBV?$basic_string@DU?$char_traits@D@std@@V?$allocator@D@2@@std@@I@std@@@std@@@std@@@1@ABV?$basic_string@DU?$char_traits@D@std@@V?$allocator@D@2@@1@@Z 10061d20 f i misc_scripts.cpp.obj
 0001:00060e20       ??0?$unordered_map@V?$basic_string@DU?$char_traits@D@std@@V?$allocator@D@2@@std@@HU?$hash@V?$basic_string@DU?$char_traits@D@std@@V?$allocator@D@2@@std@@@2@U?$equal_to@V?$basic_string@DU?$char_traits@D@std@@V?$allocator@D@2@@std@@@2@V?$allocator@U?$pair@$$CBV?$basic_string@DU?$char_traits@D@std@@V?$allocator@D@2@@std@@H@std@@@2@@std@@QAE@XZ 10061e20 f i misc_scripts.cpp.obj
 0001:00060e20       ??0?$unordered_map@V?$basic_string@DU?$char_traits@D@std@@V?$allocator@D@2@@std@@IU?$hash@V?$basic_string@DU?$char_traits@D@std@@V?$allocator@D@2@@std@@@2@U?$equal_to@V?$basic_string@DU?$char_traits@D@std@@V?$allocator@D@2@@std@@@2@V?$allocator@U?$pair@$$CBV?$basic_string@DU?$char_traits@D@std@@V?$allocator@D@2@@std@@I@std@@@2@@std@@QAE@XZ 10061e20 f i items.cpp.obj
 0001:00060ed0       ??1?$_Alloc_construct_ptr@V?$allocator@U?$_List_node@U?$pair@$$CBV?$basic_string@DU?$char_traits@D@std@@V?$allocator@D@2@@std@@H@std@@PAX@std@@@std@@@std@@QAE@XZ 10061ed0 f i misc_scripts.cpp.obj
 0001:00060ed0       ??1?$_Alloc_construct_ptr@V?$allocator@U?$_List_node@U?$pair@$$CBV?$basic_string@DU?$char_traits@D@std@@V?$allocator@D@2@@std@@I@std@@PAX@std@@@std@@@std@@QAE@XZ 10061ed0 f i items.cpp.obj
 0001:00060ef0       ??1?$_Hash@V?$_Umap_traits@V?$basic_string@DU?$char_traits@D@std@@V?$allocator@D@2@@std@@HV?$_Uhash_compare@V?$basic_string@DU?$char_traits@D@std@@V?$allocator@D@2@@std@@U?$hash@V?$basic_string@DU?$char_traits@D@std@@V?$allocator@D@2@@std@@@2@U?$equal_to@V?$basic_string@DU?$char_traits@D@std@@V?$allocator@D@2@@std@@@2@@2@V?$allocator@U?$pair@$$CBV?$basic_string@DU?$char_traits@D@std@@V?$allocator@D@2@@std@@H@std@@@2@$0A@@std@@@std@@QAE@XZ 10061ef0 f i misc_scripts.cpp.obj
 0001:00060ef0       ??1?$_Hash@V?$_Umap_traits@V?$basic_string@DU?$char_traits@D@std@@V?$allocator@D@2@@std@@IV?$_Uhash_compare@V?$basic_string@DU?$char_traits@D@std@@V?$allocator@D@2@@std@@U?$hash@V?$basic_string@DU?$char_traits@D@std@@V?$allocator@D@2@@std@@@2@U?$equal_to@V?$basic_string@DU?$char_traits@D@std@@V?$allocator@D@2@@std@@@2@@2@V?$allocator@U?$pair@$$CBV?$basic_string@DU?$char_traits@D@std@@V?$allocator@D@2@@std@@I@std@@@2@$0A@@std@@@std@@QAE@XZ 10061ef0 f i items.cpp.obj
 0001:00060f60       ??1?$_List_node_emplace_op2@V?$allocator@U?$_List_node@U?$pair@$$CBV?$basic_string@DU?$char_traits@D@std@@V?$allocator@D@2@@std@@H@std@@PAX@std@@@std@@@std@@QAE@XZ 10061f60 f i misc_scripts.cpp.obj
 0001:00060f60       ??1?$_List_node_emplace_op2@V?$allocator@U?$_List_node@U?$pair@$$CBV?$basic_string@DU?$char_traits@D@std@@V?$allocator@D@2@@std@@I@std@@PAX@std@@@std@@@std@@QAE@XZ 10061f60 f i items.cpp.obj
 0001:00060f90       ??1?$list@U?$pair@$$CBV?$basic_string@DU?$char_traits@D@std@@V?$allocator@D@2@@std@@H@std@@V?$allocator@U?$pair@$$CBV?$basic_string@DU?$char_traits@D@std@@V?$allocator@D@2@@std@@H@std@@@2@@std@@QAE@XZ 10061f90 f i misc_scripts.cpp.obj
 0001:00060f90       ??1?$list@U?$pair@$$CBV?$basic_string@DU?$char_traits@D@std@@V?$allocator@D@2@@std@@I@std@@V?$allocator@U?$pair@$$CBV?$basic_string@DU?$char_traits@D@std@@V?$allocator@D@2@@std@@I@std@@@2@@std@@QAE@XZ 10061f90 f i items.cpp.obj
 0001:00061010       ?CSimpleFrame_GetNameHook@Nampower@@YAIPAVPatchDetourBase@hadesmem@@PAI@Z 10062010 f   misc_scripts.cpp.obj
 0001:00061170       ?CSimpleTop_OnKeyDownHook@Nampower@@YA_NPAVPatchDetourBase@hadesmem@@PAUEVENT_DATA_KEY@@H@Z 10062170 f   misc_scripts.cpp.obj
 0001:000611d0       ?CSimpleTop_OnKeyUpHook@Nampower@@YA_NPAVPatchDetourBase@hadesmem@@PAUEVENT_DATA_KEY@@H@Z 100621d0 f   misc_scripts.cpp.obj
 0001:00061220       ?GetGUIDFromNameHook@Nampower@@YA_KPAVPatchDetourBase@hadesmem@@PBD@Z 10062220 f   misc_scripts.cpp.obj
 0001:00061560       ?PushTableValue@Nampower@@YAXPAIPAD1@Z 10062560 f i misc_scripts.cpp.obj
 0001:00061590       ?PushTableValue@Nampower@@YAXPAIPADI@Z 10062590 f i misc_scripts.cpp.obj
 0001:000615e0       ?RunQueuedScript@Nampower@@YA_NH@Z 100625e0 f   misc_scripts.cpp.obj
 0001:00061720       ?Script_CancelPlayerAuraSlot@Nampower@@YAIPAI@Z 10062720 f   misc_scripts.cpp.obj
 0001:000617c0       ?Script_CancelPlayerAuraSpellId@Nampower@@YAIPAI@Z 100627c0 f   misc_scripts.cpp.obj
 0001:00061890       ?Script_ChannelStopCastingNextTick@Nampower@@YAIPAI@Z 10062890 f   misc_scripts.cpp.obj
 0001:00061990       ?Script_CombatLogFlush@Nampower@@YAIPAI@Z 10062990 f   misc_scripts.cpp.obj
 0001:000619b0       ?Script_DisenchantAll@Nampower@@YAIPAI@Z 100629b0 f   misc_scripts.cpp.obj
 0001:00061da0       ?Script_GetCastInfo@Nampower@@YAIPAI@Z 10062da0 f   misc_scripts.cpp.obj
 0001:000620e0       ?Script_GetCurrentCastingInfo@Nampower@@YAIPAI@Z 100630e0 f   misc_scripts.cpp.obj
 0001:00062230       ?Script_GetItemIconTexture@Nampower@@YAIPAI@Z 10063230 f   misc_scripts.cpp.obj
 0001:000622d0       ?Script_GetNampowerVersion@Nampower@@YAIPAI@Z 100632d0 f   misc_scripts.cpp.obj
 0001:00062330       ?Script_GetPlayerAuraDuration@Nampower@@YAIPAI@Z 10063330 f   misc_scripts.cpp.obj
 0001:00062440       ?Script_GetSpellIconTexture@Nampower@@YAIPAI@Z 10063440 f   misc_scripts.cpp.obj
 0001:000624f0       ?Script_GetUnitData@Nampower@@YAIPAI@Z 100634f0 f   misc_scripts.cpp.obj
 0001:00062870       ?Script_GetUnitField@Nampower@@YAIPAI@Z 10063870 f   misc_scripts.cpp.obj
 0001:00062c20       ?Script_GetUnitGUID@Nampower@@YAIPAI@Z 10063c20 f   misc_scripts.cpp.obj
 0001:00062ca0       ?Script_IsAuraHidden@Nampower@@YAIPAI@Z 10063ca0 f   misc_scripts.cpp.obj
 0001:00062d30       ?Script_LearnTalentRank@Nampower@@YAIPAI@Z 10063d30 f   misc_scripts.cpp.obj
 0001:000630e0       ?Script_QueueScript@Nampower@@YAIPAI@Z 100640e0 f   misc_scripts.cpp.obj
 0001:000633e0       ?Script_SetMouseoverUnit@Nampower@@YAIPAI@Z 100643e0 f   misc_scripts.cpp.obj
 0001:00063480       ?TryDisenchant@Nampower@@YA_NXZ 10064480 f   misc_scripts.cpp.obj
 0001:00063810       ?_Forced_rehash@?$_Hash@V?$_Umap_traits@V?$basic_string@DU?$char_traits@D@std@@V?$allocator@D@2@@std@@HV?$_Uhash_compare@V?$basic_string@DU?$char_traits@D@std@@V?$allocator@D@2@@std@@U?$hash@V?$basic_string@DU?$char_traits@D@std@@V?$allocator@D@2@@std@@@2@U?$equal_to@V?$basic_string@DU?$char_traits@D@std@@V?$allocator@D@2@@std@@@2@@2@V?$allocator@U?$pair@$$CBV?$basic_string@DU?$char_traits@D@std@@V?$allocator@D@2@@std@@H@std@@@2@$0A@@std@@@std@@IAEXI@Z 10064810 f i misc_scripts.cpp.obj
 0001:00063810       ?_Forced_rehash@?$_Hash@V?$_Umap_traits@V?$basic_string@DU?$char_traits@D@std@@V?$allocator@D@2@@std@@IV?$_Uhash_compare@V?$basic_string@DU?$char_traits@D@std@@V?$allocator@D@2@@std@@U?$hash@V?$basic_string@DU?$char_traits@D@std@@V?$allocator@D@2@@std@@@2@U?$equal_to@V?$basic_string@DU?$char_traits@D@std@@V?$allocator@D@2@@std@@@2@@2@V?$allocator@U?$pair@$$CBV?$basic_string@DU?$char_traits@D@std@@V?$allocator@D@2@@std@@I@std@@@2@$0A@@std@@@std@@IAEXI@Z 10064810 f i items.cpp.obj
 0001:00063ad0       ??$_Allocate_for_capacity@$0A@@?$basic_string@_WU?$char_traits@_W@std@@V?$allocator@_W@2@@std@@CAPA_WAAV?$allocator@_W@1@AAI@Z 10064ad0 f i file_scripts.cpp.obj
 0001:00063b30       ??$_Construct@$00PB_W@?$basic_string@_WU?$char_traits@_W@std@@V?$allocator@_W@2@@std@@AAEXQB_WI@Z 10064b30 f i file_scripts.cpp.obj
 0001:00063bd0       ??$_Resize_reallocate@U_Value_init_tag@std@@@?$vector@EV?$allocator@E@std@@@std@@AAEXIABU_Value_init_tag@1@@Z 10064bd0 f i file_scripts.cpp.obj
 0001:00063ce0       ??0?$basic_ofstream@DU?$char_traits@D@std@@@std@@QAE@ABV?$basic_string@_WU?$char_traits@_W@std@@V?$allocator@_W@2@@1@HH@Z 10064ce0 f i file_scripts.cpp.obj
 0001:00063e50       ??0?$basic_string@_WU?$char_traits@_W@std@@V?$allocator@_W@2@@std@@QAE@I_W@Z 10064e50 f i file_scripts.cpp.obj
 0001:00063f50       ??0?$basic_string@_WU?$char_traits@_W@std@@V?$allocator@_W@2@@std@@QAE@U_String_constructor_concat_tag@1@ABV01@QB_WI2I@Z 10064f50 f i file_scripts.cpp.obj
 0001:00063ff0       ??1?$basic_string@_WU?$char_traits@_W@std@@V?$allocator@_W@2@@std@@QAE@XZ 10064ff0 f i file_scripts.cpp.obj
 0001:00064050       ??6?$basic_ostream@DU?$char_traits@D@std@@@std@@QAEAAV01@PAV?$basic_streambuf@DU?$char_traits@D@std@@@1@@Z 10065050 f i file_scripts.cpp.obj
 0001:00064320       ??_D?$basic_ifstream@DU?$char_traits@D@std@@@std@@QAEXXZ 10065320 f i file_scripts.cpp.obj
 0001:000643af       ??_E?$basic_ifstream@DU?$char_traits@D@std@@@std@@$4PPPPPPPM@A@AEPAXI@Z 100653af f i file_scripts.cpp.obj
 0001:000643c0       ??_E?$basic_ifstream@DU?$char_traits@D@std@@@std@@UAEPAXI@Z 100653c0 f i file_scripts.cpp.obj
 0001:000643c0       ??_G?$basic_ifstream@DU?$char_traits@D@std@@@std@@UAEPAXI@Z 100653c0 f i file_scripts.cpp.obj
 0001:00065270       ?Script_CustomFileExists@Nampower@@YAIPAI@Z 10066270 f   file_scripts.cpp.obj
 0001:000654d0       ?Script_EncryptPassword@Nampower@@YAIPAI@Z 100664d0 f   file_scripts.cpp.obj
 0001:00065840       ?Script_EncryptedServerLogin@Nampower@@YAIPAI@Z 10066840 f   file_scripts.cpp.obj
 0001:00065af0       ?Script_ExecuteCustomLuaFile@Nampower@@YAIPAI@Z 10066af0 f   file_scripts.cpp.obj
 0001:00065cf0       ?Script_ExportFile@Nampower@@YAIPAI@Z 10066cf0 f   file_scripts.cpp.obj
 0001:00065dc0       ?Script_ImportFile@Nampower@@YAIPAI@Z 10066dc0 f   file_scripts.cpp.obj
 0001:00065e40       ?Script_ReadCustomFile@Nampower@@YAIPAI@Z 10066e40 f   file_scripts.cpp.obj
 0001:00065ec0       ?Script_WriteCustomFile@Nampower@@YAIPAI@Z 10066ec0 f   file_scripts.cpp.obj
 0001:00066be0       ?compare@?$basic_string@DU?$char_traits@D@std@@V?$allocator@D@2@@std@@QBEHIIABV12@@Z 10067be0 f i file_scripts.cpp.obj
 0001:00066ca0       ?open@?$basic_filebuf@DU?$char_traits@D@std@@@std@@QAEPAV12@PB_WHH@Z 10067ca0 f i file_scripts.cpp.obj
 0001:00066d60       ??$_Find_hint@I@?$_Tree@V?$_Tset_traits@IU?$less@I@std@@V?$allocator@I@2@$0A@@std@@@std@@IBE?AU?$_Tree_find_hint_result@PAU?$_Tree_node@IPAX@std@@@1@QAU?$_Tree_node@IPAX@1@ABI@Z 10067d60 f i spell_scripts.cpp.obj
 0001:00066fa0       ??$_Find_lower_bound@I@?$_Tree@V?$_Tmap_traits@IIU?$less@I@std@@V?$allocator@U?$pair@$$CBII@std@@@2@$0A@@std@@@std@@IBE?AU?$_Tree_find_result@PAU?$_Tree_node@U?$pair@$$CBII@std@@PAX@std@@@1@ABI@Z 10067fa0 f i pet.cpp.obj
 0001:00066fa0       ??$_Find_lower_bound@I@?$_Tree@V?$_Tset_traits@IU?$less@I@std@@V?$allocator@I@2@$0A@@std@@@std@@IBE?AU?$_Tree_find_result@PAU?$_Tree_node@IPAX@std@@@1@ABI@Z 10067fa0 f i spell_scripts.cpp.obj
 0001:00066ff0       ?GetSpellSlotFromLuaHook@Nampower@@YAIPAVPatchDetourBase@hadesmem@@PAI11@Z 10067ff0 f   spell_scripts.cpp.obj
 0001:00067140       ?Script_CastSpellByNameHook@Nampower@@YAIPAVPatchDetourBase@hadesmem@@PAI@Z 10068140 f   spell_scripts.cpp.obj
 0001:00067200       ?Script_CastSpellByNameNoQueue@Nampower@@YAIPAI@Z 10068200 f   spell_scripts.cpp.obj
 0001:00067310       ?Script_CastSpellNoQueue@Nampower@@YAIPAI@Z 10068310 f   spell_scripts.cpp.obj
 0001:00067510       ?Script_GetSpellDuration@Nampower@@YAIPAI@Z 10068510 f   spell_scripts.cpp.obj
 0001:00067610       ?Script_GetSpellIdForName@Nampower@@YAIPAI@Z 10068610 f   spell_scripts.cpp.obj
 0001:00067680       ?Script_GetSpellModifiers@Nampower@@YAIPAI@Z 10068680 f   spell_scripts.cpp.obj
 0001:00067800       ?Script_GetSpellNameAndRankForId@Nampower@@YAIPAI@Z 10068800 f   spell_scripts.cpp.obj
 0001:00067950       ?Script_GetSpellPower@Nampower@@YAIPAI@Z 10068950 f   spell_scripts.cpp.obj
 0001:00067ac0       ?Script_GetSpellRangeData@Nampower@@YAIPAI@Z 10068ac0 f   spell_scripts.cpp.obj
 0001:00067be0       ?Script_GetSpellRec@Nampower@@YAIPAI@Z 10068be0 f   spell_scripts.cpp.obj
 0001:00068040       ?Script_GetSpellRecField@Nampower@@YAIPAI@Z 10069040 f   spell_scripts.cpp.obj
 0001:00068540       ?Script_GetSpellSlotTypeIdForName@Nampower@@YAIPAI@Z 10069540 f   spell_scripts.cpp.obj
 0001:000686b0       ?Script_IsSpellInRange@Nampower@@YAIPAI@Z 100696b0 f   spell_scripts.cpp.obj
 0001:000689c0       ?Script_IsSpellUsable@Nampower@@YAIPAI@Z 100699c0 f   spell_scripts.cpp.obj
 0001:00068b00       ?Script_QueueSpellByName@Nampower@@YAIPAI@Z 10069b00 f   spell_scripts.cpp.obj
 0001:00068c10       ?Script_SpellStopCastingHook@Nampower@@YAIPAVPatchDetourBase@hadesmem@@PAI@Z 10069c10 f   spell_scripts.cpp.obj
 0001:00068d30       ?GetCooldownFromSpellHistory@Nampower@@YA?AUCooldownDetail@1@III@Z 10069d30 f   cooldown_scripts.cpp.obj
 0001:00068ff0       ?GetItemCooldownDetail@Nampower@@YA?AUCooldownDetail@1@I@Z 10069ff0 f   cooldown_scripts.cpp.obj
 0001:00069280       ?GetItemSpellCooldownDetail@Nampower@@YA?AUCooldownDetail@1@II@Z 1006a280 f   cooldown_scripts.cpp.obj
 0001:00069460       ?PushCooldownDetailTable@Nampower@@YAXPAIABUCooldownDetail@1@@Z 1006a460 f   cooldown_scripts.cpp.obj
 0001:00069990       ?Script_GetItemIdCooldown@Nampower@@YAIPAI@Z 1006a990 f   cooldown_scripts.cpp.obj
 0001:00069a70       ?Script_GetSpellIdCooldown@Nampower@@YAIPAI@Z 1006aa70 f   cooldown_scripts.cpp.obj
 0001:00069b30       ?Script_GetTrinketCooldown@Nampower@@YAIPAI@Z 1006ab30 f   cooldown_scripts.cpp.obj
 0001:00069d50       ??0CachedItemData@Nampower@@QAE@XZ 1006ad50 f i item_scripts.cpp.obj
 0001:0006a1c0       ?ClearBagSlot@Nampower@@YAXPAIHI@Z 1006b1c0 f   item_scripts.cpp.obj
 0001:0006a2b0       ?CreateBasicItemInfoTable@Nampower@@YAXPAIPAUCGItem@game@@@Z 1006b2b0 f   item_scripts.cpp.obj
 0001:0006a3a0       ?CreateItemInfoTable@Nampower@@YAXPAIPAUCGItem_C@game@@@Z 1006b3a0 f   item_scripts.cpp.obj
 0001:0006a690       ?GetMaxSpellChargesRemaining@Nampower@@YAHPBH@Z 1006b690 f   item_scripts.cpp.obj
 0001:0006a6e0       ?GetSingleBagItems@Nampower@@YAIPAIH@Z 1006b6e0 f   item_scripts.cpp.obj
 0001:0006aad0       ?PushBagCGItemToTable@Nampower@@YAXPAIHIPAUCGItem_C@game@@@Z 1006bad0 f   item_scripts.cpp.obj
 0001:0006b080       ?Script_FindPlayerItemSlot@Nampower@@YAIPAI@Z 1006c080 f   item_scripts.cpp.obj
 0001:0006b1f0       ?Script_GetAmmo@Nampower@@YAIPAI@Z 1006c1f0 f   item_scripts.cpp.obj
 0001:0006b380       ?Script_GetBagItem@Nampower@@YAIPAI@Z 1006c380 f   item_scripts.cpp.obj
 0001:0006b650       ?Script_GetBagItems@Nampower@@YAIPAI@Z 1006c650 f   item_scripts.cpp.obj
 0001:0006b7f0       ?Script_GetEquippedItem@Nampower@@YAIPAI@Z 1006c7f0 f   item_scripts.cpp.obj
 0001:0006b970       ?Script_GetEquippedItems@Nampower@@YAIPAI@Z 1006c970 f   item_scripts.cpp.obj
 0001:0006baf0       ?Script_GetItemLevel@Nampower@@YAIPAI@Z 1006caf0 f   item_scripts.cpp.obj
 0001:0006bba0       ?Script_GetItemStats@Nampower@@YAIPAI@Z 1006cba0 f   item_scripts.cpp.obj
 0001:0006bf80       ?Script_GetItemStatsField@Nampower@@YAIPAI@Z 1006cf80 f   item_scripts.cpp.obj
 0001:0006c3d0       ?Script_GetTrinkets@Nampower@@YAIPAI@Z 1006d3d0 f   item_scripts.cpp.obj
 0001:0006c880       ?Script_StartItemExport@Nampower@@YAIPAI@Z 1006d880 f   item_scripts.cpp.obj
 0001:0006c890       ?Script_UseItemIdOrName@Nampower@@YAIPAI@Z 1006d890 f   item_scripts.cpp.obj
 0001:0006ca10       ?Script_UseTrinket@Nampower@@YAIPAI@Z 1006da10 f   item_scripts.cpp.obj
 0001:0006cc40       ??$_Find_last@I@?$_Hash@V?$_Umap_traits@IIV?$_Uhash_compare@IU?$hash@I@std@@U?$equal_to@I@2@@std@@V?$allocator@U?$pair@$$CBII@std@@@2@$0A@@std@@@std@@IBE?AU?$_Hash_find_last_result@PAU?$_List_node@U?$pair@$$CBII@std@@PAX@std@@@1@ABII@Z 1006dc40 f i tooltip.cpp.obj
 0001:0006cc40       ??$_Find_last@I@?$_Hash@V?$_Umap_traits@IPAUItemStats_C@game@@V?$_Uhash_compare@IU?$hash@I@std@@U?$equal_to@I@2@@std@@V?$allocator@U?$pair@$$CBIPAUItemStats_C@game@@@std@@@4@$0A@@std@@@std@@IBE?AU?$_Hash_find_last_result@PAU?$_List_node@U?$pair@$$CBIPAUItemStats_C@game@@@std@@PAX@std@@@1@ABII@Z 1006dc40 f i items.cpp.obj
 0001:0006cc40       ??$_Find_last@I@?$_Hash@V?$_Uset_traits@IV?$_Uhash_compare@IU?$hash@I@std@@U?$equal_to@I@2@@std@@V?$allocator@I@2@$0A@@std@@@std@@IBE?AU?$_Hash_find_last_result@PAU?$_List_node@IPAX@std@@@1@ABII@Z 1006dc40 f i items.cpp.obj
 0001:0006ccb0       ??$_Try_emplace@ABI$$V@?$_Hash@V?$_Umap_traits@IPAUItemStats_C@game@@V?$_Uhash_compare@IU?$hash@I@std@@U?$equal_to@I@2@@std@@V?$allocator@U?$pair@$$CBIPAUItemStats_C@game@@@std@@@4@$0A@@std@@@std@@IAE?AU?$pair@PAU?$_List_node@U?$pair@$$CBIPAUItemStats_C@game@@@std@@PAX@std@@_N@1@ABI@Z 1006dcb0 f i items.cpp.obj
 0001:0006ceb0       ??$_Try_emplace@ABV?$basic_string@DU?$char_traits@D@std@@V?$allocator@D@2@@std@@$$V@?$_Hash@V?$_Umap_traits@V?$basic_string@DU?$char_traits@D@std@@V?$allocator@D@2@@std@@IV?$_Uhash_compare@V?$basic_string@DU?$char_traits@D@std@@V?$allocator@D@2@@std@@U?$hash@V?$basic_string@DU?$char_traits@D@std@@V?$allocator@D@2@@std@@@2@U?$equal_to@V?$basic_string@DU?$char_traits@D@std@@V?$allocator@D@2@@std@@@2@@2@V?$allocator@U?$pair@$$CBV?$basic_string@DU?$char_traits@D@std@@V?$allocator@D@2@@std@@I@std@@@2@$0A@@std@@@std@@IAE?AU?$pair@PAU?$_List_node@U?$pair@$$CBV?$basic_string@DU?$char_traits@D@std@@V?$allocator@D@2@@std@@I@std@@PAX@std@@_N@1@ABV?$basic_string@DU?$char_traits@D@std@@V?$allocator@D@2@@1@@Z 1006deb0 f i items.cpp.obj
 0001:0006d0a0       ??$emplace@ABI@?$_Hash@V?$_Uset_traits@IV?$_Uhash_compare@IU?$hash@I@std@@U?$equal_to@I@2@@std@@V?$allocator@I@2@$0A@@std@@@std@@QAE?AU?$pair@V?$_List_const_iterator@V?$_List_val@U?$_List_simple_types@I@std@@@std@@@std@@_N@1@ABI@Z 1006e0a0 f i items.cpp.obj
 0001:0006d290       ??0?$basic_ofstream@DU?$char_traits@D@std@@@std@@QAE@PBDHH@Z 1006e290 f i items.cpp.obj
 0001:0006d430       ??1?$_Alloc_construct_ptr@V?$allocator@U?$_List_node@IPAX@std@@@std@@@std@@QAE@XZ 1006e430 f i items.cpp.obj
 0001:0006d430       ??1?$_List_node_emplace_op2@V?$allocator@U?$_List_node@IPAX@std@@@std@@@std@@QAE@XZ 1006e430 f i items.cpp.obj
 0001:0006d450       ??1?$_Alloc_construct_ptr@V?$allocator@U?$_List_node@U?$pair@$$CBII@std@@PAX@std@@@std@@@std@@QAE@XZ 1006e450 f i tooltip.cpp.obj
 0001:0006d450       ??1?$_Alloc_construct_ptr@V?$allocator@U?$_List_node@U?$pair@$$CBIPAUItemStats_C@game@@@std@@PAX@std@@@std@@@std@@QAE@XZ 1006e450 f i items.cpp.obj
 0001:0006d450       ??1?$_List_node_emplace_op2@V?$allocator@U?$_List_node@U?$pair@$$CBII@std@@PAX@std@@@std@@@std@@QAE@XZ 1006e450 f i tooltip.cpp.obj
 0001:0006d450       ??1?$_List_node_emplace_op2@V?$allocator@U?$_List_node@U?$pair@$$CBIPAUItemStats_C@game@@@std@@PAX@std@@@std@@@std@@QAE@XZ 1006e450 f i items.cpp.obj
 0001:0006d470       ??1?$_Hash@V?$_Umap_traits@IIV?$_Uhash_compare@IU?$hash@I@std@@U?$equal_to@I@2@@std@@V?$allocator@U?$pair@$$CBII@std@@@2@$0A@@std@@@std@@QAE@XZ 1006e470 f i tooltip.cpp.obj
 0001:0006d470       ??1?$_Hash@V?$_Umap_traits@IPAUItemStats_C@game@@V?$_Uhash_compare@IU?$hash@I@std@@U?$equal_to@I@2@@std@@V?$allocator@U?$pair@$$CBIPAUItemStats_C@game@@@std@@@4@$0A@@std@@@std@@QAE@XZ 1006e470 f i items.cpp.obj
 0001:0006d500       ??1?$_Hash@V?$_Uset_traits@IV?$_Uhash_compare@IU?$hash@I@std@@U?$equal_to@I@2@@std@@V?$allocator@I@2@$0A@@std@@@std@@QAE@XZ 1006e500 f i items.cpp.obj
 0001:0006d590       ??1?$list@IV?$allocator@I@std@@@std@@QAE@XZ 1006e590 f i items.cpp.obj
 0001:0006d5d0       ??1?$list@U?$pair@$$CBII@std@@V?$allocator@U?$pair@$$CBII@std@@@2@@std@@QAE@XZ 1006e5d0 f i tooltip.cpp.obj
 0001:0006d5d0       ??1?$list@U?$pair@$$CBIPAUItemStats_C@game@@@std@@V?$allocator@U?$pair@$$CBIPAUItemStats_C@game@@@std@@@2@@std@@QAE@XZ 1006e5d0 f i items.cpp.obj
 0001:0006d610       ??_H@YGXPAXIIP6EPAX0@Z@Z   1006e610 f i items.cpp.obj
 0001:0006d640       ?CacheItemNameToId@Nampower@@YAXPBDI@Z 1006e640 f   items.cpp.obj
 0001:0006d6d0       ?ClearItemCaches@Nampower@@YAXXZ 1006e6d0 f   items.cpp.obj
 0001:0006d840       ?DoesItemMatch@Nampower@@YA_NIIPBD@Z 1006e840 f   items.cpp.obj
 0001:0006d910       ?FindPlayerDisenchantItem@Nampower@@YA?AUPlayerItemSearchResult@1@I_N@Z 1006e910 f   items.cpp.obj
 0001:0006db20       ?FindPlayerItem@Nampower@@YA?AUPlayerItemSearchResult@1@IPBD@Z 1006eb20 f   items.cpp.obj
 0001:0006e160       ?GetBagPtrFromContainer@Nampower@@YAPAIPAI@Z 1006f160 f   items.cpp.obj
 0001:0006e180       ?GetItemIdFromCache@Nampower@@YAIPBD@Z 1006f180 f   items.cpp.obj
 0001:0006e270       ?GetItemStats@Nampower@@YAPAUItemStats_C@game@@I@Z 1006f270 f   items.cpp.obj
 0001:0006e2f0       ?ItemStatsCallback@Nampower@@YIXIPB_KPAX_N@Z 1006f2f0 f   items.cpp.obj
 0001:0006e510       ?LoadItem@Nampower@@YA_NI@Z 1006f510 f   items.cpp.obj
 0001:0006e5e0       ?ProcessItemExport@Nampower@@YA_NXZ 1006f5e0 f   items.cpp.obj
 0001:0006fa00       ?StartItemExport@Nampower@@YAXXZ 10070a00 f   items.cpp.obj
 0001:0006fa20       ?ToLowerCase@Nampower@@YA?AV?$basic_string@DU?$char_traits@D@std@@V?$allocator@D@2@@std@@PBD@Z 10070a20 f   items.cpp.obj
 0001:0006fbf0       ?_Forced_rehash@?$_Hash@V?$_Umap_traits@IIV?$_Uhash_compare@IU?$hash@I@std@@U?$equal_to@I@2@@std@@V?$allocator@U?$pair@$$CBII@std@@@2@$0A@@std@@@std@@IAEXI@Z 10070bf0 f i tooltip.cpp.obj
 0001:0006fbf0       ?_Forced_rehash@?$_Hash@V?$_Umap_traits@IPAUItemStats_C@game@@V?$_Uhash_compare@IU?$hash@I@std@@U?$equal_to@I@2@@std@@V?$allocator@U?$pair@$$CBIPAUItemStats_C@game@@@std@@@4@$0A@@std@@@std@@IAEXI@Z 10070bf0 f i items.cpp.obj
 0001:0006fd50       ?_Forced_rehash@?$_Hash@V?$_Uset_traits@IV?$_Uhash_compare@IU?$hash@I@std@@U?$equal_to@I@2@@std@@V?$allocator@I@2@$0A@@std@@@std@@IAEXI@Z 10070d50 f i items.cpp.obj
 0001:0006feb0       ?_Unchecked_erase@?$_Hash@V?$_Uset_traits@IV?$_Uhash_compare@IU?$hash@I@std@@U?$equal_to@I@2@@std@@V?$allocator@I@2@$0A@@std@@@std@@AAEPAU?$_List_node@IPAX@2@PAU32@QAU32@@Z 10070eb0 f i items.cpp.obj
 0001:00070060       ?clear@?$_Hash@V?$_Uset_traits@IV?$_Uhash_compare@IU?$hash@I@std@@U?$equal_to@I@2@@std@@V?$allocator@I@2@$0A@@std@@@std@@QAEXXZ 10071060 f i items.cpp.obj
 0001:000700e0       ?escapeJsonString@Nampower@@YA?AV?$basic_string@DU?$char_traits@D@std@@V?$allocator@D@2@@std@@PBD@Z 100710e0 f   items.cpp.obj
 0001:00070450       ?InitializeFieldMaps@Nampower@@YAXXZ 10071450 f   dbc_fields.cpp.obj
 0001:00070750       ?InitializeUnitFieldMaps@Nampower@@YAXXZ 10071750 f   unit_fields.cpp.obj
 0001:00070cc0       ?GetCGPartyMemberField@Nampower@@YAIPAIPBUCGPartyMemberInfo@game@@PBD_N@Z 10071cc0 f   party_member_fields.cpp.obj
 0001:00070d00       ?GetCGPartyMemberPetField@Nampower@@YAIPAIPBUCGPartyMemberPetInfo@game@@PBD_N@Z 10071d00 f   party_member_fields.cpp.obj
 0001:00070d40       ?InitializeCGPartyMemberFieldMaps@Nampower@@YAXXZ 10071d40 f   party_member_fields.cpp.obj
 0001:00071040       ?CGBuffBar_UpdateDurationHook@Nampower@@YAXPAVPatchDetourBase@hadesmem@@EH@Z 10072040 f   auras.cpp.obj
 0001:000710c0       ?CGUnit_C_OnAuraAddedHook@Nampower@@YAXPAVPatchDetourBase@hadesmem@@PAIPAXII@Z 100720c0 f   auras.cpp.obj
 0001:00071100       ?CGUnit_C_OnAuraRemovedHook@Nampower@@YAXPAVPatchDetourBase@hadesmem@@PAIPAXII@Z 10072100 f   auras.cpp.obj
 0001:00071140       ?CGUnit_C_OnAuraStacksChangedHook@Nampower@@YAXPAVPatchDetourBase@hadesmem@@PAIPAXHE@Z 10072140 f   auras.cpp.obj
 0001:000711f0       ?IsAuraHiddenForLua@Nampower@@YA_NI@Z 100721f0 f   auras.cpp.obj
 0001:00071250       ?TriggerAuraEvent@Nampower@@YAXPAIII_NI@Z 10072250 f   auras.cpp.obj
 0001:00071420       ?UnitCombatLogUnitDeadHook@Nampower@@YAXPAVPatchDetourBase@hadesmem@@_K@Z 10072420 f   auras.cpp.obj
 0001:00071460       ??$_Emplace_reallocate@ABQAH@?$vector@PAHV?$allocator@PAH@std@@@std@@AAEPAPAHQAPAHABQAH@Z 10072460 f i lua_refs.cpp.obj
 0001:000715c0       ?CleanupAllLuaTableRefs@Nampower@@YAXXZ 100725c0 f   lua_refs.cpp.obj
 0001:00071730       ?GetTableRef@Nampower@@YAXPAIAAH@Z 10072730 f   lua_refs.cpp.obj
 0001:000717b0       ?AttackRoundInfo_ReadPacketHook@Nampower@@YAXPAVPatchDetourBase@hadesmem@@PAX1PAVCDataStore@1@@Z 100727b0 f   autoattack.cpp.obj
 0001:00071b70       ?Script_PlayerIsMoving@Nampower@@YAIPAI@Z 10072b70 f   player_scripts.cpp.obj
 0001:00071bd0       ?Script_PlayerIsRooted@Nampower@@YAIPAI@Z 10072bd0 f   player_scripts.cpp.obj
 0001:00071c30       ?Script_PlayerIsSwimming@Nampower@@YAIPAI@Z 10072c30 f   player_scripts.cpp.obj
 0001:00071c90       ??$_Erase_tree@V?$allocator@U?$_Tree_node@U?$pair@$$CBII@std@@PAX@std@@@std@@@?$_Tree_val@U?$_Tree_simple_types@U?$pair@$$CBII@std@@@std@@@std@@QAEXAAV?$allocator@U?$_Tree_node@U?$pair@$$CBII@std@@PAX@std@@@1@PAU?$_Tree_node@U?$pair@$$CBII@std@@PAX@1@@Z 10072c90 f i pet.cpp.obj
 0001:00071cd0       ??1?$_Tree@V?$_Tmap_traits@IIU?$less@I@std@@V?$allocator@U?$pair@$$CBII@std@@@2@$0A@@std@@@std@@QAE@XZ 10072cd0 f i pet.cpp.obj
 0001:00071d10       ??1?$map@IIU?$less@I@std@@V?$allocator@U?$pair@$$CBII@std@@@2@@std@@QAE@XZ 10072d10 f i pet.cpp.obj
 0001:00071d20       ?CGPetInfo_GetPetSpellActionHook@Nampower@@YAXPAVPatchDetourBase@hadesmem@@PAI@Z 10072d20 f   pet.cpp.obj
 0001:00071e30       ?CGPetInfo_SendPetActionHook@Nampower@@YAXPAVPatchDetourBase@hadesmem@@PAIPA_K@Z 10072e30 f   pet.cpp.obj
 0001:00071f80       ?CGPetInfo_SetPetHook@Nampower@@YAXPAVPatchDetourBase@hadesmem@@PAX1II@Z 10072f80 f   pet.cpp.obj
 0001:00072100       ?ParseAutocastData@Nampower@@YAXABV?$basic_string@DU?$char_traits@D@std@@V?$allocator@D@2@@std@@AAV?$map@IIU?$less@I@std@@V?$allocator@U?$pair@$$CBII@std@@@2@@3@@Z 10073100 f   pet.cpp.obj
 0001:000724b0       ?RestoreGreaterDemonAutocastPreferences@Nampower@@YAXXZ 100734b0 f   pet.cpp.obj
 0001:00072b10       ?SaveGreaterDemonPreferences@Nampower@@YAXII@Z 10073b10 f   pet.cpp.obj
 0001:00073090       ?SerializeAutocastData@Nampower@@YA?AV?$basic_string@DU?$char_traits@D@std@@V?$allocator@D@2@@std@@ABV?$map@IIU?$less@I@std@@V?$allocator@U?$pair@$$CBII@std@@@2@@3@@Z 10074090 f   pet.cpp.obj
 0001:00073200       ?TogglePetSlotAutocastHook@Nampower@@YAXPAVPatchDetourBase@hadesmem@@I@Z 10074200 f   pet.cpp.obj
 0001:00073220       ?clear@?$_Tree@V?$_Tmap_traits@IIU?$less@I@std@@V?$allocator@U?$pair@$$CBII@std@@@2@$0A@@std@@@std@@QAEXXZ 10074220 f i pet.cpp.obj
 0001:00073270       ?erase@?$_Tree@V?$_Tmap_traits@IIU?$less@I@std@@V?$allocator@U?$pair@$$CBII@std@@@2@$0A@@std@@@std@@QAEIABI@Z 10074270 f i pet.cpp.obj
 0001:00073390       ?CGGameUI_ShowCombatFeedbackHook@Nampower@@YAXPAVPatchDetourBase@hadesmem@@PA_KPBDHHH@Z 10074390 f   unit.cpp.obj
 0001:00073610       ?CGUnit_C_HandleEnvironmentDamageHook@Nampower@@YAXPAVPatchDetourBase@hadesmem@@PAIPAXHHHH@Z 10074610 f   unit.cpp.obj
 0001:000736a0       ?GetUnitNames@Nampower@@YA?AUUnitNames@1@PA_K@Z 100746a0 f   unit.cpp.obj
 0001:00073860       ?SendUnitSignalHook@Nampower@@YAXPAVPatchDetourBase@hadesmem@@PA_KI@Z 10074860 f   unit.cpp.obj
 0001:000738b0       ?TriggerUnitEvents@Nampower@@YAXABUUnitNames@1@I@Z 100748b0 f   unit.cpp.obj
 0001:00073c00       ?UnitCombatLogDamageShieldHook@Nampower@@YAXPAVPatchDetourBase@hadesmem@@PA_K1II@Z 10074c00 f   unit.cpp.obj
 0001:00073ca0       ??$_Insert_range_unchecked@PBU?$pair@$$CBII@std@@PBU12@@?$_Hash@V?$_Umap_traits@IIV?$_Uhash_compare@IU?$hash@I@std@@U?$equal_to@I@2@@std@@V?$allocator@U?$pair@$$CBII@std@@@2@$0A@@std@@@std@@IAEXPBU?$pair@$$CBII@1@QBU21@@Z 10074ca0 f i tooltip.cpp.obj
 0001:00073ec0       ?CGTooltip_SetItemHook@Nampower@@YAHPAVPatchDetourBase@hadesmem@@PAX1IPAPAH2HHHHIPAPAPAPAH@Z 10074ec0 f   tooltip.cpp.obj
 0001:00073f10       ?SpellParserParseTextHook@Nampower@@YA_NPAVPatchDetourBase@hadesmem@@PAUSpellRec@game@@PADHMMMMM@Z 10074f10 f   tooltip.cpp.obj
 0001:00074447       __get_purecall_handler     10075447 f   libvcruntime:purevirt.obj
 0001:0007444e       __purecall                 1007544e f   libvcruntime:purevirt.obj
 0001:0007446a       ___DestructExceptionObject 1007546a f   libvcruntime:ehhelpers.obj
 0001:0007450b       ?_CallMemberFunction0@@YGXQAX0@Z 1007550b f i libvcruntime:ehhelpers.obj
 0001:00074570       __IsExceptionObjectToBeDestroyed 10075570 f   libvcruntime:ehhelpers.obj
 0001:00074596       ___AdjustPointer           10075596 f   libvcruntime:ehhelpers.obj
 0001:000745bb       ___FrameUnwindFilter       100755bb f   libvcruntime:ehhelpers.obj
 0001:00074611       ___std_terminate           10075611 f   libvcruntime:ehhelpers.obj
 0001:00074616       ___std_exception_copy      10075616 f   libvcruntime:std_exception.obj
 0001:00074679       ___std_exception_destroy   10075679 f   libvcruntime:std_exception.obj
 0001:00074698       __CxxThrowException@8      10075698 f   libvcruntime:throw.obj
 0001:00074704       ?GetRangeOfTrysToCheck@__FrameHandler3@@SA?AU?$pair@Viterator@TryBlockMap@__FrameHandler3@@V123@@std@@AAVTryBlockMap@1@HPAXPBU_s_FuncInfo@@H@Z 10075704 f   libvcruntime:trnsctrl.obj
 0001:00074773       ?_CallCatchBlock2@@YAPAXPAUEHRegistrationNode@@PBU_s_FuncInfo@@PAXHK@Z 10075773 f   libvcruntime:trnsctrl.obj
 0001:000747d0       ?_CallSETranslator@@YAHPAUEHExceptionRecord@@PAUEHRegistrationNode@@PAX2PBU_s_FuncInfo@@H1@Z 100757d0 f   libvcruntime:trnsctrl.obj
 0001:000748c0       ?_JumpToContinuation@@YGXPAXPAUEHRegistrationNode@@@Z 100758c0 f   libvcruntime:trnsctrl.obj
 0001:000748f0       ?_UnwindNestedFrames@@YGXPAUEHRegistrationNode@@PAUEHExceptionRecord@@@Z 100758f0 f   libvcruntime:trnsctrl.obj
 0001:00074944       __CatchGuardHandler        10075944 f   libvcruntime:trnsctrl.obj
 0001:00074975       __CreateFrameInfo          10075975 f   libvcruntime:trnsctrl.obj
 0001:00074999       __FindAndUnlinkFrame       10075999 f   libvcruntime:trnsctrl.obj
 0001:000749e1       __TranslatorGuardHandler   100759e1 f   libvcruntime:trnsctrl.obj
 0001:00074a80       ___CxxFrameHandler3        10075a80 f   libvcruntime:trnsctrl.obj
 0001:00074ac0       _memcpy                    10075ac0 f   libvcruntime:memcpy.obj
 0001:00074ac0       _memmove                   10075ac0 f   libvcruntime:memmove.obj
 0001:00075040       ??0__non_rtti_object@std@@QAE@ABV01@@Z 10076040 f i libvcruntime:rtti.obj
 0001:0007505b       ??0bad_typeid@std@@QAE@ABV01@@Z 1007605b f i libvcruntime:rtti.obj
 0001:00075076       ??_E__non_rtti_object@std@@UAEPAXI@Z 10076076 f i libvcruntime:rtti.obj
 0001:00075076       ??_Ebad_function_call@std@@UAEPAXI@Z 10076076 f i libcpmt:xthrow.obj
 0001:00075076       ??_Ebad_typeid@std@@UAEPAXI@Z 10076076 f i libvcruntime:rtti.obj
 0001:00075076       ??_Einvalid_argument@std@@UAEPAXI@Z 10076076 f i libcpmt:xthrow.obj
 0001:00075076       ??_Elength_error@std@@UAEPAXI@Z 10076076 f i libcpmt:xthrow.obj
 0001:00075076       ??_Elogic_error@std@@UAEPAXI@Z 10076076 f i libcpmt:xthrow.obj
 0001:00075076       ??_Eout_of_range@std@@UAEPAXI@Z 10076076 f i libcpmt:xthrow.obj
 0001:00075076       ??_G__non_rtti_object@std@@UAEPAXI@Z 10076076 f i libvcruntime:rtti.obj
 0001:00075076       ??_Gbad_function_call@std@@UAEPAXI@Z 10076076 f i libcpmt:xthrow.obj
 0001:00075076       ??_Gbad_typeid@std@@UAEPAXI@Z 10076076 f i libvcruntime:rtti.obj
 0001:00075076       ??_Ginvalid_argument@std@@UAEPAXI@Z 10076076 f i libcpmt:xthrow.obj
 0001:00075076       ??_Glength_error@std@@UAEPAXI@Z 10076076 f i libcpmt:xthrow.obj
 0001:00075076       ??_Glogic_error@std@@UAEPAXI@Z 10076076 f i libcpmt:xthrow.obj
 0001:00075076       ??_Gout_of_range@std@@UAEPAXI@Z 10076076 f i libcpmt:xthrow.obj
 0001:00075447       ?__construct_from_string_literal@__non_rtti_object@std@@SA?AV12@QBD@Z 10076447 f i libvcruntime:rtti.obj
 0001:00075463       ?__construct_from_string_literal@bad_cast@std@@SA?AV12@QBD@Z 10076463 f i libvcruntime:rtti.obj
 0001:0007547f       ?__construct_from_string_literal@bad_typeid@std@@SA?AV12@QBD@Z 1007647f f i libvcruntime:rtti.obj
 0001:0007549b       ___RTDynamicCast           1007649b f   libvcruntime:rtti.obj
 0001:0007558e       ___RTtypeid                1007658e f   libvcruntime:rtti.obj
 0001:00075624       ??3@YAXPAX@Z               10076624 f   LIBCMT:delete_scalar.obj
 0001:00075629       ___std_type_info_compare   10076629 f   libvcruntime:std_type_info.obj
 0001:00075665       ___std_type_info_destroy_list 10076665 f   libvcruntime:std_type_info.obj
 0001:00075688       ___std_type_info_name      10076688 f   libvcruntime:std_type_info.obj
 0001:00075750       _memset                    10076750 f   libvcruntime:memset.obj
 0001:000758b0       _strstr                    100768b0 f   libvcruntime:strstr.obj
 0001:00075b20       _memchr                    10076b20 f   libvcruntime:memchr.obj
 0001:00075bd0       _strrchr                   10076bd0 f   libvcruntime:strrchr.obj
 0001:00075d07       ___vcrt_freefls@4          10076d07 f   libvcruntime:per_thread_data.obj
 0001:00075d23       ___vcrt_freeptd_for_this_thread 10076d23 f   libvcruntime:per_thread_data.obj
 0001:00075d4e       ___vcrt_getptd             10076d4e f   libvcruntime:per_thread_data.obj
 0001:00075d5c       ___vcrt_getptd_noexit      10076d5c f   libvcruntime:per_thread_data.obj
 0001:00075dee       ___vcrt_getptd_noinit      10076dee f   libvcruntime:per_thread_data.obj
 0001:00075e25       ___vcrt_initialize_ptd     10076e25 f   libvcruntime:per_thread_data.obj
 0001:00075e58       ___vcrt_uninitialize_ptd   10076e58 f   libvcruntime:per_thread_data.obj
 0001:00075ec0       __except_handler4          10076ec0 f   libvcruntime:chandler4.obj
 0001:00076750       ??$TypeMatchHelper@V__FrameHandler3@@@@YAHPBU_s_HandlerType@@PBU_s_CatchableType@@PBU_s_ThrowInfo@@@Z 10077750 f i libvcruntime:frame.obj
 0001:000767de       ??$__InternalCxxFrameHandler@V__FrameHandler3@@@@YA?AW4_EXCEPTION_DISPOSITION@@PAUEHExceptionRecord@@PAUEHRegistrationNode@@PAU_CONTEXT@@PAXPBU_s_FuncInfo@@H1E@Z 100777de f i libvcruntime:frame.obj
 0001:000768e0       ??$__InternalCxxFrameHandlerWrapper@V__FrameHandler3@@@@YA?AW4_EXCEPTION_DISPOSITION@@PAUEHExceptionRecord@@PAUEHRegistrationNode@@PAU_CONTEXT@@PAXPBU_s_FuncInfo@@H1E@Z 100778e0 f i libvcruntime:frame.obj
 0001:00076b41       ?FrameUnwindToEmptyState@__FrameHandler3@@SAXPAUEHRegistrationNode@@PAXPBU_s_FuncInfo@@@Z 10077b41 f   libvcruntime:frame.obj
 0001:00076b59       ?FrameUnwindToState@__FrameHandler3@@SAXPAUEHRegistrationNode@@PAXPBU_s_FuncInfo@@H@Z 10077b59 f   libvcruntime:frame.obj
 0001:00076cdb       ?_CallMemberFunction1@@YGXQAX00@Z 10077cdb f i libvcruntime:frame.obj
 0001:00076ceb       ?_CallMemberFunction2@@YGXQAX00H@Z 10077ceb f i libvcruntime:frame.obj
 0001:00076cfe       ?getESTypes@__FrameHandler3@@SAPBU_s_ESTypeList@@PBU_s_FuncInfo@@@Z 10077cfe f i libvcruntime:frame.obj
 0001:00076d10       __CallSettingFrame@12      10077d10 f   libvcruntime:lowhelpr.obj
 0001:00076d37       __NLG_Return               10077d37     libvcruntime:lowhelpr.obj
 0001:00076d5c       ___except_validate_context_record 10077d5c f   libvcruntime:jbcxrval.obj
 0001:00076d8c       ??$?0$00@DName@@QAE@PBDU?$StringLifeSelector@$00@@@Z 10077d8c f i libvcruntime:undname.obj
 0001:00076dbf       ??$?0$01@DName@@QAE@PBDU?$StringLifeSelector@$01@@@Z 10077dbf f i libvcruntime:undname.obj
 0001:00076dbf       ??$?0$0A@@DName@@QAE@PBDU?$StringLifeSelector@$0A@@@@Z 10077dbf f i libvcruntime:undname.obj
 0001:00076df2       ??$?0$01@pcharNode@@QAE@PBDHU?$StringLifeSelector@$01@@@Z 10077df2 f i libvcruntime:undname.obj
 0001:00076df2       ??$?0$0A@@pcharNode@@QAE@PBDHU?$StringLifeSelector@$0A@@@@Z 10077df2 f i libvcruntime:undname.obj
 0001:00076e32       ??$append@VDNameNode@@@DName@@AAEXPBVDNameNode@@@Z 10077e32 f i libvcruntime:undname.obj
 0001:00076e32       ??$append@VDNameStatusNode@@@DName@@AAEXPBVDNameStatusNode@@@Z 10077e32 f i libvcruntime:undname.obj
 0001:00076e32       ??$append@VcharNode@@@DName@@AAEXPBVcharNode@@@Z 10077e32 f i libvcruntime:undname.obj
 0001:00076e32       ??$append@VpcharNode@@@DName@@AAEXPBVpcharNode@@@Z 10077e32 f i libvcruntime:undname.obj
 0001:00076e73       ??$doPchar@$00@DName@@AAEXPBDH@Z 10077e73 f i libvcruntime:undname.obj
 0001:00076edf       ??$doPchar@$01@DName@@AAEXPBDH@Z 10077edf f i libvcruntime:undname.obj
 0001:00076edf       ??$doPchar@$0A@@DName@@AAEXPBDH@Z 10077edf f i libvcruntime:undname.obj
 0001:0007700c       ??0DName@@QAE@AAPBDD@Z     1007800c f   libvcruntime:undname.obj
 0001:00077095       ??0DName@@QAE@ABUStringLiteral@@@Z 10078095 f   libvcruntime:undname.obj
 0001:000770bc       ??0DName@@QAE@PAV0@@Z      100780bc f   libvcruntime:undname.obj
 0001:00077103       ??0DName@@QAE@W4DNameStatus@@@Z 10078103 f   libvcruntime:undname.obj
 0001:00077143       ??0DName@@QAE@_J@Z         10078143 f   libvcruntime:undname.obj
 0001:000771cd       ??0DName@@QAE@_K@Z         100781cd f   libvcruntime:undname.obj
 0001:00077231       ??0DNameNode@@IAE@XZ       10078231 f i libvcruntime:undname.obj
 0001:0007723a       ??0UnDecorator@@QAE@PBDP6APADJ@ZK@Z 1007823a f i libvcruntime:undname.obj
 0001:0007729e       ??0pDNameNode@@QAE@PAVDName@@@Z 1007829e f   libvcruntime:undname.obj
 0001:000772c6       ??0pairNode@@QAE@PBVDNameNode@@0@Z 100782c6 f i libvcruntime:undname.obj
 0001:000772ec       ??2@YAPAXIAAV_HeapManager@@H@Z 100782ec f   libvcruntime:undname.obj
 0001:0007730b       ??4DName@@QAEAAV0@ABUStringLiteral@@@Z 1007830b f   libvcruntime:undname.obj
 0001:0007732c       ??4DName@@QAEAAV0@W4DNameStatus@@@Z 1007832c f   libvcruntime:undname.obj
 0001:0007735e       ??AReplicator@@QBE?AVDName@@H@Z 1007835e f   libvcruntime:undname.obj
 0001:0007739a       ??H@YA?AVDName@@ABUStringLiteral@@ABV0@@Z 1007839a f i libvcruntime:undname.obj
 0001:000773bc       ??H@YA?AVDName@@DABV0@@Z   100783bc f i libvcruntime:undname.obj
 0001:000773e7       ??H@YA?AVDName@@W4DNameStatus@@ABV0@@Z 100783e7 f i libvcruntime:undname.obj
 0001:00077409       ??HDName@@QBE?AV0@ABUStringLiteral@@@Z 10078409 f   libvcruntime:undname.obj
 0001:0007742b       ??HDName@@QBE?AV0@ABV0@@Z  1007842b f   libvcruntime:undname.obj
 0001:0007744d       ??HDName@@QBE?AV0@D@Z      1007844d f   libvcruntime:undname.obj
 0001:0007746f       ??HDName@@QBE?AV0@W4DNameStatus@@@Z 1007846f f   libvcruntime:undname.obj
 0001:00077491       ??YDName@@QAEAAV0@ABUStringLiteral@@@Z 10078491 f   libvcruntime:undname.obj
 0001:000774e9       ??YDName@@QAEAAV0@ABV0@@Z  100784e9 f   libvcruntime:undname.obj
 0001:00077540       ??YDName@@QAEAAV0@D@Z      10078540 f   libvcruntime:undname.obj
 0001:00077595       ??YDName@@QAEAAV0@W4DNameStatus@@@Z 10078595 f   libvcruntime:undname.obj
 0001:000775d5       ??YReplicator@@QAEAAV0@ABVDName@@@Z 100785d5 f   libvcruntime:undname.obj
 0001:00077615       ??_5DName@@QAEAAV0@ABV0@@Z 10078615 f   libvcruntime:undname.obj
 0001:00077634       ?Destructor@_HeapManager@@QAEXXZ 10078634 f i libvcruntime:undname.obj
 0001:00077669       ?UScore@UnDecorator@@SA?AUStringLiteral@@W4Tokens@@@Z 10078669 f   libvcruntime:undname.obj
 0001:00077690       ?composeDeclaration@UnDecorator@@CA?AVDName@@ABV2@@Z 10078690 f i libvcruntime:undname.obj
 0001:00078416       ?doPchar@DName@@AAEXD@Z    10079416 f   libvcruntime:undname.obj
 0001:0007844e       ?getAddressOf@UnDecorator@@CA?AVDName@@XZ 1007944e f   libvcruntime:undname.obj
 0001:000784b6       ?getArgumentList@UnDecorator@@CA?AVDName@@XZ 100794b6 f   libvcruntime:undname.obj
 0001:000785c3       ?getArgumentTypes@UnDecorator@@CA?AVDName@@XZ 100795c3 f   libvcruntime:undname.obj
 0001:000786cb       ?getArrayAccess@UnDecorator@@CA?AVDName@@XZ 100796cb f   libvcruntime:undname.obj
 0001:0007873f       ?getArrayObject@UnDecorator@@CA?AVDName@@XZ 1007973f f   libvcruntime:undname.obj
 0001:000787dd       ?getArrayType@UnDecorator@@CA?AVDName@@ABV2@@Z 100797dd f i libvcruntime:undname.obj
 0001:0007897a       ?getBasedType@UnDecorator@@CA?AVDName@@XZ 1007997a f   libvcruntime:undname.obj
 0001:00078a29       ?getBasicDataType@UnDecorator@@CA?AVDName@@ABV2@@Z 10079a29 f   libvcruntime:undname.obj
 0001:00078f85       ?getCallingConvention@UnDecorator@@CA?AVDName@@XZ 10079f85 f   libvcruntime:undname.obj
 0001:0007904f       ?getDataIndirectType@UnDecorator@@CA?AVDName@@ABV2@W4IndirectionKind@@0H@Z 1007a04f f   libvcruntime:undname.obj
 0001:0007970e       ?getDataIndirectType@UnDecorator@@CA?AVDName@@XZ 1007a70e f i libvcruntime:undname.obj
 0001:0007973c       ?getDataType@UnDecorator@@CA?AVDName@@PAV2@@Z 1007a73c f   libvcruntime:undname.obj
 0001:00079813       ?getDecoratedName@UnDecorator@@CA?AVDName@@XZ 1007a813 f   libvcruntime:undname.obj
 0001:00079a67       ?getDimension@UnDecorator@@CA?AVDName@@_N@Z 1007aa67 f   libvcruntime:undname.obj
 0001:00079b6e       ?getDispatchTarget@UnDecorator@@CA?AVDName@@XZ 1007ab6e f   libvcruntime:undname.obj
 0001:00079bbf       ?getECSUDataType@UnDecorator@@CA?AVDName@@XZ 1007abbf f   libvcruntime:undname.obj
 0001:00079d69       ?getEnumType@UnDecorator@@CA?AVDName@@XZ 1007ad69 f i libvcruntime:undname.obj
 0001:00079e7d       ?getExtendedDataIndirectType@UnDecorator@@CA?AVDName@@AAW4IndirectionKind@@AA_NH@Z 1007ae7d f   libvcruntime:undname.obj
 0001:0007a080       ?getExternalDataType@UnDecorator@@CA?AVDName@@ABV2@@Z 1007b080 f i libvcruntime:undname.obj
 0001:0007a0e5       ?getFloatingPoint@UnDecorator@@CA?AVDName@@H@Z 1007b0e5 f   libvcruntime:undname.obj
 0001:0007a1a8       ?getFunctionIndirectType@UnDecorator@@CA?AVDName@@ABV2@@Z 1007b1a8 f   libvcruntime:undname.obj
 0001:0007a552       ?getLastChar@DName@@QBEDXZ 1007b552 f i libvcruntime:undname.obj
 0001:0007a572       ?getLastChar@DNameStatusNode@@UBEDXZ 1007b572 f i libvcruntime:undname.obj
 0001:0007a57e       ?getLastChar@charNode@@UBEDXZ 1007b57e f i libvcruntime:undname.obj
 0001:0007a582       ?getLastChar@pDNameNode@@UBEDXZ 1007b582 f i libvcruntime:undname.obj
 0001:0007a590       ?getLastChar@pairNode@@UBEDXZ 1007b590 f i libvcruntime:undname.obj
 0001:0007a5c5       ?getLastChar@pcharNode@@UBEDXZ 1007b5c5 f i libvcruntime:undname.obj
 0001:0007a5d7       ?getLexicalFrame@UnDecorator@@CA?AVDName@@XZ 1007b5d7 f i libvcruntime:undname.obj
 0001:0007a608       ?getMemberAccess@UnDecorator@@CA?AVDName@@XZ 1007b608 f   libvcruntime:undname.obj
 0001:0007a678       ?getMemoryWithBuffer@_HeapManager@@QAEPAXI@Z 1007b678 f   libvcruntime:undname.obj
 0001:0007a6e2       ?getMemoryWithoutBuffer@_HeapManager@@QAEPAXI@Z 1007b6e2 f   libvcruntime:undname.obj
 0001:0007a702       ?getNoexcept@UnDecorator@@CA?AVDName@@XZ 1007b702 f   libvcruntime:undname.obj
 0001:0007a74a       ?getNumberOfDimensions@UnDecorator@@CAHXZ 1007b74a f   libvcruntime:undname.obj
 0001:0007a7a4       ?getOperatorName@UnDecorator@@CA?AVDName@@_NPA_N@Z 1007b7a4 f i libvcruntime:undname.obj
 0001:0007b06a       ?getPointerToMember@UnDecorator@@CA?AVDName@@XZ 1007c06a f   libvcruntime:undname.obj
 0001:0007b126       ?getPrimaryDataType@UnDecorator@@CA?AVDName@@ABV2@@Z 1007c126 f   libvcruntime:undname.obj
 0001:0007b374       ?getPtrRefDataType@UnDecorator@@CA?AVDName@@ABV2@H@Z 1007c374 f   libvcruntime:undname.obj
 0001:0007b4e1       ?getPtrRefType@UnDecorator@@CA?AVDName@@ABV2@0W4IndirectionKind@@@Z 1007c4e1 f   libvcruntime:undname.obj
 0001:0007b5f2       ?getRestrictionSpec@UnDecorator@@CA?AVDName@@XZ 1007c5f2 f   libvcruntime:undname.obj
 0001:0007b70b       ?getReturnType@UnDecorator@@CA?AVDName@@PAV2@@Z 1007c70b f   libvcruntime:undname.obj
 0001:0007b73a       ?getScope@UnDecorator@@CA?AVDName@@XZ 1007c73a f   libvcruntime:undname.obj
 0001:0007baf8       ?getScopedName@UnDecorator@@CA?AVDName@@XZ 1007caf8 f   libvcruntime:undname.obj
 0001:0007bbed       ?getSignedDimension@UnDecorator@@CA?AVDName@@XZ 1007cbed f   libvcruntime:undname.obj
 0001:0007bc3e       ?getString@DName@@QBEPADPAD0@Z 1007cc3e f i libvcruntime:undname.obj
 0001:0007bc6b       ?getString@DName@@QBEPADPADH@Z 1007cc6b f i libvcruntime:undname.obj
 0001:0007bcc0       ?getString@DNameStatusNode@@UBEPADPAD0@Z 1007ccc0 f i libvcruntime:undname.obj
 0001:0007bd07       ?getString@charNode@@UBEPADPAD0@Z 1007cd07 f i libvcruntime:undname.obj
 0001:0007bd1c       ?getString@pDNameNode@@UBEPADPAD0@Z 1007cd1c f i libvcruntime:undname.obj
 0001:0007bd33       ?getString@pairNode@@UBEPADPAD0@Z 1007cd33 f i libvcruntime:undname.obj
 0001:0007bd79       ?getString@pcharNode@@UBEPADPAD0@Z 1007cd79 f i libvcruntime:undname.obj
 0001:0007bd94       ?getStringEncoding@UnDecorator@@CA?AVDName@@W4PrefixKind@@H@Z 1007cd94 f   libvcruntime:undname.obj
 0001:0007be27       ?getStringHelper@@YAPADPADPBD1H@Z 1007ce27 f i libvcruntime:undname.obj
 0001:0007be51       ?getStringObject@UnDecorator@@CA?AVDName@@XZ 1007ce51 f   libvcruntime:undname.obj
 0001:0007bebd       ?getSymbolName@UnDecorator@@CA?AVDName@@XZ 1007cebd f i libvcruntime:undname.obj
 0001:0007bf05       ?getTemplateArgumentList@UnDecorator@@CA?AVDName@@XZ 1007cf05 f   libvcruntime:undname.obj
 0001:0007c0b5       ?getTemplateName@UnDecorator@@CA?AVDName@@_N@Z 1007d0b5 f   libvcruntime:undname.obj
 0001:0007c230       ?getTemplateNonTypeArgument@UnDecorator@@CA?AVDName@@XZ 1007d230 f   libvcruntime:undname.obj
 0001:0007c5f8       ?getTemplateTypeArgument@UnDecorator@@CA?AVDName@@XZ 1007d5f8 f   libvcruntime:undname.obj
 0001:0007c709       ?getThisType@UnDecorator@@CA?AVDName@@XZ 1007d709 f i libvcruntime:undname.obj
 0001:0007c738       ?getThrowTypes@UnDecorator@@CA?AVDName@@XZ 1007d738 f   libvcruntime:undname.obj
 0001:0007c757       ?getTypeEncoding@UnDecorator@@CAHXZ 1007d757 f i libvcruntime:undname.obj
 0001:0007ca93       ?getUndecoratedName@UnDecorator@@QAEPADPADH@Z 1007da93 f i libvcruntime:undname.obj
 0001:0007cbb4       ?getUnionObject@UnDecorator@@CA?AVDName@@XZ 1007dbb4 f   libvcruntime:undname.obj
 0001:0007cc5b       ?getVCallThunkType@UnDecorator@@CA?AVDName@@XZ 1007dc5b f i libvcruntime:undname.obj
 0001:0007cca5       ?getValue@UnDecorator@@CA?AV?$optional@_K@std@@XZ 1007dca5 f   libvcruntime:undname.obj
 0001:0007ccf5       ?getValueObject@UnDecorator@@CA?AVDName@@XZ 1007dcf5 f   libvcruntime:undname.obj
 0001:0007ce21       ?getVdispMapType@UnDecorator@@CA?AVDName@@ABV2@@Z 1007de21 f i libvcruntime:undname.obj
 0001:0007ce82       ?getVfTableType@UnDecorator@@CA?AVDName@@ABV2@@Z 1007de82 f i libvcruntime:undname.obj
 0001:0007cfd6       ?getZName@UnDecorator@@CA?AVDName@@_N0@Z 1007dfd6 f   libvcruntime:undname.obj
 0001:0007d1ef       ?get_current_character_and_increment_buffer@UnDecorator@@CADXZ 1007e1ef f i libvcruntime:undname.obj
 0001:0007d203       ?increment_buffer@UnDecorator@@CA_NI@Z 1007e203 f i libvcruntime:undname.obj
 0001:0007d22b       ?isEmpty@DName@@QBEHXZ     1007e22b f i libvcruntime:undname.obj
 0001:0007d233       ?isValid@DName@@QBEHXZ     1007e233 f i libvcruntime:undname.obj
 0001:0007d23d       ?length@DName@@QBEHXZ      1007e23d f i libvcruntime:undname.obj
 0001:0007d25c       ?length@DNameStatusNode@@UBEHXZ 1007e25c f i libvcruntime:undname.obj
 0001:0007d25c       ?length@pcharNode@@UBEHXZ  1007e25c f i libvcruntime:undname.obj
 0001:0007d25c       ?raw_length@DNameStatusNode@@UBEHXZ 1007e25c f i libvcruntime:undname.obj
 0001:0007d25c       ?raw_length@pcharNode@@UBEHXZ 1007e25c f i libvcruntime:undname.obj
 0001:0007d260       ?length@charNode@@UBEHXZ   1007e260 f i libvcruntime:undname.obj
 0001:0007d260       ?raw_length@charNode@@UBEHXZ 1007e260 f i libvcruntime:undname.obj
 0001:0007d260       __get_startup_argv_mode    1007e260 f i LIBCMT:argv_mode.obj
 0001:0007d264       ?length@pDNameNode@@UBEHXZ 1007e264 f i libvcruntime:undname.obj
 0001:0007d272       ?length@pairNode@@UBEHXZ   1007e272 f i libvcruntime:undname.obj
 0001:0007d2bb       ?make@DNameStatusNode@@SAPBV1@W4DNameStatus@@@Z 1007e2bb f i libvcruntime:undname.obj
 0001:0007d2d7       ?parseDecoratedName@UnDecorator@@CA?AVDName@@XZ 1007e2d7 f   libvcruntime:undname.obj
 0001:0007d3d2       ?raw_length@pairNode@@UBEHXZ 1007e3d2 f i libvcruntime:undname.obj
 0001:0007d428       ___unDName                 1007e428 f   libvcruntime:undname.obj
 0001:0007d44b       ___unDNameEx               1007e44b f   libvcruntime:undname.obj
 0001:0007d4f0       _strchr                    1007e4f0 f   libvcruntime:strchr.obj
 0001:0007d55e       ___from_strstr_to_strchr   1007e55e     libvcruntime:strchr.obj
 0001:0007d706       ___vcrt_FlsAlloc           1007e706 f   libvcruntime:winapi_downlevel.obj
 0001:0007d741       ___vcrt_FlsFree            1007e741 f   libvcruntime:winapi_downlevel.obj
 0001:0007d77c       ___vcrt_FlsGetValue        1007e77c f   libvcruntime:winapi_downlevel.obj
 0001:0007d7b7       ___vcrt_FlsSetValue        1007e7b7 f   libvcruntime:winapi_downlevel.obj
 0001:0007d7f5       ___vcrt_InitializeCriticalSectionEx 1007e7f5 f   libvcruntime:winapi_downlevel.obj
 0001:0007d840       __local_unwind4            1007e840 f   libvcruntime:exsup4.obj
 0001:0007d930       @_EH4_CallFilterFunc@8     1007e930 f   libvcruntime:exsup4.obj
 0001:0007d950       @_EH4_TransferToHandler@8  1007e950 f   libvcruntime:exsup4.obj
 0001:0007d970       @_EH4_GlobalUnwind2@8      1007e970 f   libvcruntime:exsup4.obj
 0001:0007d990       @_EH4_LocalUnwind@16       1007e990 f   libvcruntime:exsup4.obj
 0001:0007d9a7       _unexpected                1007e9a7 f   libvcruntime:unexpected.obj
 0001:0007d9c4       ?GetCurrentState@__FrameHandler3@@SAHPAUEHRegistrationNode@@PAXPBU_s_FuncInfo@@@Z 1007e9c4 f   libvcruntime:ehstate.obj
 0001:0007d9e1       ?SetState@__FrameHandler3@@SAXPAUEHRegistrationNode@@PBU_s_FuncInfo@@H@Z 1007e9e1 f   libvcruntime:ehstate.obj
 0001:0007d9f0       __NLG_Notify1              1007e9f0 f   libvcruntime:exsup.obj
 0001:0007da00       __NLG_Notify               1007ea00 f   libvcruntime:exsup.obj
 0001:0007da17       __NLG_Dispatch             1007ea17     libvcruntime:exsup.obj
 0001:0007da17       __NLG_Dispatch2            1007ea17     libvcruntime:exsup.obj
 0001:0007da20       __NLG_Call                 1007ea20 f   libvcruntime:exsup.obj
 0001:0007da22       __NLG_Return2              1007ea22     libvcruntime:exsup.obj
 0001:0007da23       ___vcrt_initialize_locks   1007ea23 f   libvcruntime:locks.obj
 0001:0007da5f       ___vcrt_lock               1007ea5f f   libvcruntime:locks.obj
 0001:0007da74       ___vcrt_uninitialize_locks 1007ea74 f   libvcruntime:locks.obj
 0001:0007daa3       ___vcrt_unlock             1007eaa3 f   libvcruntime:locks.obj
 0001:0007dab8       ??0__crt_cached_ptd_host@@QAE@QAU__crt_locale_pointers@@@Z 1007eab8 f i libucrt:invalid_parameter.obj
 0001:0007db00       ??1__crt_cached_ptd_host@@QAE@XZ 1007eb00 f i libucrt:invalid_parameter.obj
 0001:0007db3c       ?check_synchronize_global_state_index@__crt_cached_ptd_host@@AAEIXZ 1007eb3c f i libucrt:invalid_parameter.obj
 0001:0007db65       ?force_synchronize_per_thread_data@__crt_cached_ptd_host@@AAEPAU__acrt_ptd@@XZ 1007eb65 f i libucrt:invalid_parameter.obj
 0001:0007dbab       ?get_raw_ptd@__crt_cached_ptd_host@@QAEPAU__acrt_ptd@@XZ 1007ebab f i libucrt:invalid_parameter.obj
 0001:0007dbc8       ___acrt_call_reportfault   1007ebc8 f   libucrt:invalid_parameter.obj
 0001:0007dd01       ___acrt_initialize_invalid_parameter_handler 1007ed01 f   libucrt:invalid_parameter.obj
 0001:0007dd10       __invalid_parameter        1007ed10 f   libucrt:invalid_parameter.obj
 0001:0007dd47       __invalid_parameter_internal 1007ed47 f   libucrt:invalid_parameter.obj
 0001:0007ddc4       __invalid_parameter_noinfo 1007edc4 f   libucrt:invalid_parameter.obj
 0001:0007ddd4       __invalid_parameter_noinfo_noreturn 1007edd4 f   libucrt:invalid_parameter.obj
 0001:0007ddf1       __invoke_watson            1007edf1 f   libucrt:invalid_parameter.obj
 0001:0007de25       ___acrt_initialize_stdio   1007ee25 f   libucrt:_file.obj
 0001:0007deed       ___acrt_iob_func           1007eeed f   libucrt:_file.obj
 0001:0007defd       ___acrt_uninitialize_stdio 1007eefd f   libucrt:_file.obj
 0001:0007df49       __get_stream_buffer_pointers 1007ef49 f   libucrt:_file.obj
 0001:0007df8f       __lock_file                1007ef8f f   libucrt:_file.obj
 0001:0007dfa3       __unlock_file              1007efa3 f   libucrt:_file.obj
 0001:0007e0dc       _fclose                    1007f0dc f   libucrt:fclose.obj
 0001:0007e345       ___acrt_stdio_flush_nolock 1007f345 f   libucrt:fflush.obj
 0001:0007e3ae       __fflush_nolock            1007f3ae f   libucrt:fflush.obj
 0001:0007e413       __flushall                 1007f413 f   libucrt:fflush.obj
 0001:0007e41c       _fflush                    1007f41c f   libucrt:fflush.obj
 0001:0007e46f       __fgetc_nolock             1007f46f f   libucrt:fgetc.obj
 0001:0007e4ab       _fgetc                     1007f4ab f   libucrt:fgetc.obj
 0001:0007e5c4       _fgetpos                   1007f5c4 f   libucrt:fgetpos.obj
 0001:0007e753       __fputc_nolock_internal    1007f753 f   libucrt:fputc.obj
 0001:0007e780       _fputc                     1007f780 f   libucrt:fputc.obj
 0001:0007e7b4       __fread_nolock_s           1007f7b4 f   libucrt:fread.obj
 0001:0007e98d       _fread                     1007f98d f   libucrt:fread.obj
 0001:0007e9aa       _fread_s                   1007f9aa f   libucrt:fread.obj
 0001:0007eac8       _fsetpos                   1007fac8 f   libucrt:fsetpos.obj
 0001:0007eb03       ?LongLongSub@@YAJ_J0PA_J@Z 1007fb03 f i libucrt:fseek.obj
 0001:0007edec       __fseeki64                 1007fdec f   libucrt:fseek.obj
 0001:0007ee26       _fseek                     1007fe26 f   libucrt:fseek.obj
 0001:0007ef07       __fwrite_internal          1007ff07 f   libucrt:fwrite.obj
 0001:0007ef7e       __fwrite_nolock_internal   1007ff7e f   libucrt:fwrite.obj
 0001:0007f125       _fwrite                    10080125 f   libucrt:fwrite.obj
 0001:0007f323       _setvbuf                   10080323 f   libucrt:setvbuf.obj
 0001:0007f35d       __ungetc_nolock            1008035d f   libucrt:ungetc.obj
 0001:0007f451       _ungetc                    10080451 f   libucrt:ungetc.obj
 0001:0007f4c4       _free                      100804c4 f   libucrt:free.obj
 0001:0007f4df       ??$__acrt_convert_wcs_mbs_cp@D_WV<lambda_62f6974d9771e494a5ea317cc32e971c>@@U__crt_win32_buffer_internal_dynamic_resizing@@@@YAHQBDAAV?$__crt_win32_buffer@_WU__crt_win32_buffer_internal_dynamic_resizing@@@@ABV<lambda_62f6974d9771e494a5ea317cc32e971c>@@I@Z 100804df f i libucrt:rename.obj
 0001:0007f591       ??$__acrt_mbs_to_wcs_cp@U__crt_win32_buffer_internal_dynamic_resizing@@@@YAHQBDAAV?$__crt_win32_buffer@_WU__crt_win32_buffer_internal_dynamic_resizing@@@@I@Z 10080591 f i libucrt:rename.obj
 0001:0007f5ae       ??0_LocaleUpdate@@QAE@QAU__crt_locale_pointers@@@Z 100805ae f i libucrt:rename.obj
 0001:0007f630       ?__acrt_get_utf8_acp_compatibility_codepage@@YAIXZ 10080630 f i libucrt:rename.obj
 0001:0007f66f       ?_deallocate@?$__crt_win32_buffer@DU__crt_win32_buffer_internal_dynamic_resizing@@@@AAEXXZ 1008066f f i libucrt:argv_wildcards.obj
 0001:0007f66f       ?_deallocate@?$__crt_win32_buffer@_WU__crt_win32_buffer_internal_dynamic_resizing@@@@AAEXXZ 1008066f f i libucrt:rename.obj
 0001:0007f689       ?allocate@?$__crt_win32_buffer@_WU__crt_win32_buffer_internal_dynamic_resizing@@@@QAEHI@Z 10080689 f i libucrt:rename.obj
 0001:0007f6c8       ?allocate@__crt_win32_buffer_internal_dynamic_resizing@@SAHQAPAXIABV__crt_win32_buffer_empty_debug_info@@@Z 100806c8 f i libucrt:rename.obj
 0001:0007f6e7       _rename                    100806e7 f   libucrt:rename.obj
 0001:0007fb1c       ??$count@D@formatting_buffer@__crt_stdio_output@@QBEIXZ 10080b1c f i libucrt:output.obj
 0001:0007fb34       ??$ensure_buffer_is_big_enough@D@formatting_buffer@__crt_stdio_output@@QAE_NIAAV__crt_cached_ptd_host@@@Z 10080b34 f i libucrt:output.obj
 0001:0007fbb5       ??$is_overflow_condition@K@__crt_strtox@@YA_NIK@Z 10080bb5 f i libucrt:output.obj
 0001:0007fbe9       ??$is_wide_character_specifier@D@__crt_stdio_output@@YA_N_KDW4length_modifier@0@@Z 10080be9 f i libucrt:output.obj
 0001:0007fc1a       ??$make_c_string_character_source@DPAPAD@__crt_strtox@@YA?AV?$c_string_character_source@D@0@QBDQAPAD@Z 10080c1a f i libucrt:output.obj
 0001:0007fc1a       ??$make_c_string_character_source@_WPAPA_W@__crt_strtox@@YA?AV?$c_string_character_source@_W@0@QB_WQAPA_W@Z 10080c1a f i libucrt:output.obj
 0001:0007fc35       ??$parse_integer@KV?$c_string_character_source@D@__crt_strtox@@$0A@@__crt_strtox@@YAKAAV__crt_cached_ptd_host@@V?$c_string_character_source@D@0@H_N@Z 10080c35 f i libucrt:output.obj
 0001:0007fe44       ??$scratch_data@D@formatting_buffer@__crt_stdio_output@@QAEPADXZ 10080e44 f i libucrt:output.obj
 0001:0007fe62       ??$type_case_integer@$07@?$output_processor@DV?$string_output_adapter@D@__crt_stdio_output@@V?$format_validation_base@DV?$string_output_adapter@D@__crt_stdio_output@@@2@@__crt_stdio_output@@AAE_N_N@Z 10080e62 f i libucrt:output.obj
 0001:0007fe62       ??$type_case_integer@$07@?$output_processor@DV?$string_output_adapter@D@__crt_stdio_output@@V?$standard_base@DV?$string_output_adapter@D@__crt_stdio_output@@@2@@__crt_stdio_output@@AAE_N_N@Z 10080e62 f i libucrt:output.obj
 0001:0007ffef       ??$type_case_integer@$09@?$output_processor@DV?$string_output_adapter@D@__crt_stdio_output@@V?$format_validation_base@DV?$string_output_adapter@D@__crt_stdio_output@@@2@@__crt_stdio_output@@AAE_N_N@Z 10080fef f i libucrt:output.obj
 0001:0007ffef       ??$type_case_integer@$09@?$output_processor@DV?$string_output_adapter@D@__crt_stdio_output@@V?$standard_base@DV?$string_output_adapter@D@__crt_stdio_output@@@2@@__crt_stdio_output@@AAE_N_N@Z 10080fef f i libucrt:output.obj
 0001:0008017c       ??$type_case_integer@$0BA@@?$output_processor@DV?$string_output_adapter@D@__crt_stdio_output@@V?$format_validation_base@DV?$string_output_adapter@D@__crt_stdio_output@@@2@@__crt_stdio_output@@AAE_N_N@Z 1008117c f i libucrt:output.obj
 0001:0008017c       ??$type_case_integer@$0BA@@?$output_processor@DV?$string_output_adapter@D@__crt_stdio_output@@V?$standard_base@DV?$string_output_adapter@D@__crt_stdio_output@@@2@@__crt_stdio_output@@AAE_N_N@Z 1008117c f i libucrt:output.obj
 0001:00080309       ??$type_case_integer_parse_into_buffer@I$07@?$output_processor@DV?$string_output_adapter@D@__crt_stdio_output@@V?$format_validation_base@DV?$string_output_adapter@D@__crt_stdio_output@@@2@@__crt_stdio_output@@AAEXI_N@Z 10081309 f i libucrt:output.obj
 0001:00080309       ??$type_case_integer_parse_into_buffer@I$07@?$output_processor@DV?$string_output_adapter@D@__crt_stdio_output@@V?$standard_base@DV?$string_output_adapter@D@__crt_stdio_output@@@2@@__crt_stdio_output@@AAEXI_N@Z 10081309 f i libucrt:output.obj
 0001:0008036c       ??$type_case_integer_parse_into_buffer@I$09@?$output_processor@DV?$string_output_adapter@D@__crt_stdio_output@@V?$format_validation_base@DV?$string_output_adapter@D@__crt_stdio_output@@@2@@__crt_stdio_output@@AAEXI_N@Z 1008136c f i libucrt:output.obj
 0001:0008036c       ??$type_case_integer_parse_into_buffer@I$09@?$output_processor@DV?$string_output_adapter@D@__crt_stdio_output@@V?$standard_base@DV?$string_output_adapter@D@__crt_stdio_output@@@2@@__crt_stdio_output@@AAEXI_N@Z 1008136c f i libucrt:output.obj
 0001:000803f3       ??$type_case_integer_parse_into_buffer@I$0BA@@?$output_processor@DV?$string_output_adapter@D@__crt_stdio_output@@V?$format_validation_base@DV?$string_output_adapter@D@__crt_stdio_output@@@2@@__crt_stdio_output@@AAEXI_N@Z 100813f3 f i libucrt:output.obj
 0001:000803f3       ??$type_case_integer_parse_into_buffer@I$0BA@@?$output_processor@DV?$string_output_adapter@D@__crt_stdio_output@@V?$standard_base@DV?$string_output_adapter@D@__crt_stdio_output@@@2@@__crt_stdio_output@@AAEXI_N@Z 100813f3 f i libucrt:output.obj
 0001:00080470       ??$type_case_integer_parse_into_buffer@_K$07@?$output_processor@DV?$string_output_adapter@D@__crt_stdio_output@@V?$format_validation_base@DV?$string_output_adapter@D@__crt_stdio_output@@@2@@__crt_stdio_output@@AAEX_K_N@Z 10081470 f i libucrt:output.obj
 0001:00080470       ??$type_case_integer_parse_into_buffer@_K$07@?$output_processor@DV?$string_output_adapter@D@__crt_stdio_output@@V?$standard_base@DV?$string_output_adapter@D@__crt_stdio_output@@@2@@__crt_stdio_output@@AAEX_K_N@Z 10081470 f i libucrt:output.obj
 0001:000804e8       ??$type_case_integer_parse_into_buffer@_K$09@?$output_processor@DV?$string_output_adapter@D@__crt_stdio_output@@V?$format_validation_base@DV?$string_output_adapter@D@__crt_stdio_output@@@2@@__crt_stdio_output@@AAEX_K_N@Z 100814e8 f i libucrt:output.obj
 0001:000804e8       ??$type_case_integer_parse_into_buffer@_K$09@?$output_processor@DV?$string_output_adapter@D@__crt_stdio_output@@V?$standard_base@DV?$string_output_adapter@D@__crt_stdio_output@@@2@@__crt_stdio_output@@AAEX_K_N@Z 100814e8 f i libucrt:output.obj
 0001:0008058f       ??$type_case_integer_parse_into_buffer@_K$0BA@@?$output_processor@DV?$string_output_adapter@D@__crt_stdio_output@@V?$format_validation_base@DV?$string_output_adapter@D@__crt_stdio_output@@@2@@__crt_stdio_output@@AAEX_K_N@Z 1008158f f i libucrt:output.obj
 0001:0008058f       ??$type_case_integer_parse_into_buffer@_K$0BA@@?$output_processor@DV?$string_output_adapter@D@__crt_stdio_output@@V?$standard_base@DV?$string_output_adapter@D@__crt_stdio_output@@@2@@__crt_stdio_output@@AAEX_K_N@Z 1008158f f i libucrt:output.obj
 0001:00080619       ??0?$output_adapter_data@DV?$string_output_adapter@D@__crt_stdio_output@@@__crt_stdio_output@@IAE@ABV?$string_output_adapter@D@1@_KQBDAAV__crt_cached_ptd_host@@QAD@Z 10081619 f i libucrt:output.obj
 0001:00080680       ??1formatting_buffer@__crt_stdio_output@@QAE@XZ 10081680 f i libucrt:output.obj
 0001:0008069a       ??4?$__crt_unique_heap_ptr@DU__crt_internal_free_policy@@@@QAEAAV0@$$QAV0@@Z 1008169a f i libucrt:output.obj
 0001:000806be       ?crop_zeroes@__crt_stdio_output@@YAXPADQAU__crt_locale_pointers@@@Z 100816be f i libucrt:output.obj
 0001:0008071e       ?find_next_state@?$output_processor@DV?$string_output_adapter@D@__crt_stdio_output@@V?$format_validation_base@DV?$string_output_adapter@D@__crt_stdio_output@@@2@@__crt_stdio_output@@ABE?AW4state@2@DW432@@Z 1008171e f i libucrt:output.obj
 0001:0008075b       ?find_next_state@?$output_processor@DV?$string_output_adapter@D@__crt_stdio_output@@V?$standard_base@DV?$string_output_adapter@D@__crt_stdio_output@@@2@@__crt_stdio_output@@ABE?AW4state@2@DW432@@Z 1008175b f i libucrt:output.obj
 0001:00080796       ?force_decimal_point@__crt_stdio_output@@YAXPADQAU__crt_locale_pointers@@@Z 10081796 f i libucrt:output.obj
 0001:000807f2       ?parse_int_from_format_string@?$output_processor@DV?$string_output_adapter@D@__crt_stdio_output@@V?$format_validation_base@DV?$string_output_adapter@D@__crt_stdio_output@@@2@@__crt_stdio_output@@AAE_NQAH@Z 100817f2 f i libucrt:output.obj
 0001:000807f2       ?parse_int_from_format_string@?$output_processor@DV?$string_output_adapter@D@__crt_stdio_output@@V?$standard_base@DV?$string_output_adapter@D@__crt_stdio_output@@@2@@__crt_stdio_output@@AAE_NQAH@Z 100817f2 f i libucrt:output.obj
 0001:0008086a       ?process@?$output_processor@DV?$string_output_adapter@D@__crt_stdio_output@@V?$format_validation_base@DV?$string_output_adapter@D@__crt_stdio_output@@@2@@__crt_stdio_output@@QAEHXZ 1008186a f i libucrt:output.obj
 0001:00080b4e       ?process@?$output_processor@DV?$string_output_adapter@D@__crt_stdio_output@@V?$standard_base@DV?$string_output_adapter@D@__crt_stdio_output@@@2@@__crt_stdio_output@@QAEHXZ 10081b4e f i libucrt:output.obj
 0001:00080e22       ?state_case_size@?$output_processor@DV?$string_output_adapter@D@__crt_stdio_output@@V?$format_validation_base@DV?$string_output_adapter@D@__crt_stdio_output@@@2@@__crt_stdio_output@@AAE_NXZ 10081e22 f i libucrt:output.obj
 0001:00080e22       ?state_case_size@?$output_processor@DV?$string_output_adapter@D@__crt_stdio_output@@V?$standard_base@DV?$string_output_adapter@D@__crt_stdio_output@@@2@@__crt_stdio_output@@AAE_NXZ 10081e22 f i libucrt:output.obj
 0001:00080f7b       ?state_case_type@?$output_processor@DV?$string_output_adapter@D@__crt_stdio_output@@V?$format_validation_base@DV?$string_output_adapter@D@__crt_stdio_output@@@2@@__crt_stdio_output@@AAE_NXZ 10081f7b f i libucrt:output.obj
 0001:00080f7b       ?state_case_type@?$output_processor@DV?$string_output_adapter@D@__crt_stdio_output@@V?$standard_base@DV?$string_output_adapter@D@__crt_stdio_output@@@2@@__crt_stdio_output@@AAE_NXZ 10081f7b f i libucrt:output.obj
 0001:000812da       ?to_integer_size@__crt_stdio_output@@YAIW4length_modifier@1@@Z 100822da f i libucrt:output.obj
 0001:0008132e       ?type_case_Z@?$output_processor@DV?$string_output_adapter@D@__crt_stdio_output@@V?$format_validation_base@DV?$string_output_adapter@D@__crt_stdio_output@@@2@@__crt_stdio_output@@AAE_NXZ 1008232e f i libucrt:output.obj
 0001:0008132e       ?type_case_Z@?$output_processor@DV?$string_output_adapter@D@__crt_stdio_output@@V?$standard_base@DV?$string_output_adapter@D@__crt_stdio_output@@@2@@__crt_stdio_output@@AAE_NXZ 1008232e f i libucrt:output.obj
 0001:00081391       ?type_case_a@?$output_processor@DV?$string_output_adapter@D@__crt_stdio_output@@V?$format_validation_base@DV?$string_output_adapter@D@__crt_stdio_output@@@2@@__crt_stdio_output@@AAE_NXZ 10082391 f i libucrt:output.obj
 0001:00081391       ?type_case_a@?$output_processor@DV?$string_output_adapter@D@__crt_stdio_output@@V?$standard_base@DV?$string_output_adapter@D@__crt_stdio_output@@@2@@__crt_stdio_output@@AAE_NXZ 10082391 f i libucrt:output.obj
 0001:00081522       ?type_case_c_tchar@?$output_processor@DV?$string_output_adapter@D@__crt_stdio_output@@V?$format_validation_base@DV?$string_output_adapter@D@__crt_stdio_output@@@2@@__crt_stdio_output@@AAE_ND@Z 10082522 f i libucrt:output.obj
 0001:00081522       ?type_case_c_tchar@?$output_processor@DV?$string_output_adapter@D@__crt_stdio_output@@V?$standard_base@DV?$string_output_adapter@D@__crt_stdio_output@@@2@@__crt_stdio_output@@AAE_ND@Z 10082522 f i libucrt:output.obj
 0001:000815b7       ?type_case_n@?$output_processor@DV?$string_output_adapter@D@__crt_stdio_output@@V?$format_validation_base@DV?$string_output_adapter@D@__crt_stdio_output@@@2@@__crt_stdio_output@@AAE_NXZ 100825b7 f i libucrt:output.obj
 0001:000815b7       ?type_case_n@?$output_processor@DV?$string_output_adapter@D@__crt_stdio_output@@V?$standard_base@DV?$string_output_adapter@D@__crt_stdio_output@@@2@@__crt_stdio_output@@AAE_NXZ 100825b7 f i libucrt:output.obj
 0001:0008163c       ?type_case_o@?$output_processor@DV?$string_output_adapter@D@__crt_stdio_output@@V?$format_validation_base@DV?$string_output_adapter@D@__crt_stdio_output@@@2@@__crt_stdio_output@@AAE_NXZ 1008263c f i libucrt:output.obj
 0001:0008163c       ?type_case_o@?$output_processor@DV?$string_output_adapter@D@__crt_stdio_output@@V?$standard_base@DV?$string_output_adapter@D@__crt_stdio_output@@@2@@__crt_stdio_output@@AAE_NXZ 1008263c f i libucrt:output.obj
 0001:00081659       ?type_case_p@?$output_processor@DV?$string_output_adapter@D@__crt_stdio_output@@V?$format_validation_base@DV?$string_output_adapter@D@__crt_stdio_output@@@2@@__crt_stdio_output@@AAE_NXZ 10082659 f i libucrt:output.obj
 0001:00081659       ?type_case_p@?$output_processor@DV?$string_output_adapter@D@__crt_stdio_output@@V?$standard_base@DV?$string_output_adapter@D@__crt_stdio_output@@@2@@__crt_stdio_output@@AAE_NXZ 10082659 f i libucrt:output.obj
 0001:0008166f       ?type_case_s@?$output_processor@DV?$string_output_adapter@D@__crt_stdio_output@@V?$format_validation_base@DV?$string_output_adapter@D@__crt_stdio_output@@@2@@__crt_stdio_output@@AAE_NXZ 1008266f f i libucrt:output.obj
 0001:0008166f       ?type_case_s@?$output_processor@DV?$string_output_adapter@D@__crt_stdio_output@@V?$standard_base@DV?$string_output_adapter@D@__crt_stdio_output@@@2@@__crt_stdio_output@@AAE_NXZ 1008266f f i libucrt:output.obj
 0001:000816e1       ?unget@?$c_string_character_source@D@__crt_strtox@@QAEXD@Z 100826e1 f i libucrt:output.obj
 0001:0008170a       ?unget@?$c_string_character_source@_W@__crt_strtox@@QAEX_W@Z 1008270a f i libucrt:output.obj
 0001:00081740       ?update_locale_slow@__crt_cached_ptd_host@@AAEXXZ 10082740 f i libucrt:output.obj
 0001:0008179b       ?validate@?$c_string_character_source@D@__crt_strtox@@QBE_NXZ 1008279b f i libucrt:output.obj
 0001:0008179b       ?validate@?$c_string_character_source@_W@__crt_strtox@@QBE_NXZ 1008279b f i libucrt:output.obj
 0001:000817b6       ?validate@?$string_output_adapter@D@__crt_stdio_output@@QBE_NAAV__crt_cached_ptd_host@@@Z 100827b6 f i libucrt:output.obj
 0001:000817e7       ?write_string@?$string_output_adapter@D@__crt_stdio_output@@QBEXQBDHQAHAAV__crt_cached_ptd_host@@@Z 100827e7 f i libucrt:output.obj
 0001:0008184e       ___acrt_locale_get_ctype_array_value 1008284e f i libucrt:output.obj
 0001:00081870       ___stdio_common_vsprintf   10082870 f   libucrt:output.obj
 0001:000818b1       ___stdio_common_vsprintf_s 100828b1 f   libucrt:output.obj
 0001:000818f2       ___acrt_errno_from_os_error 100828f2 f   libucrt:errno.obj
 0001:00081935       ___acrt_errno_map_os_error 10082935 f   libucrt:errno.obj
 0001:00081958       ___acrt_errno_map_os_error_ptd 10082958 f   libucrt:errno.obj
 0001:0008197c       ___doserrno                1008297c f   libucrt:errno.obj
 0001:0008198f       __errno                    1008298f f   libucrt:errno.obj
 0001:000819a2       _frexp                     100829a2 f   libucrt:frexp.obj
 0001:00081a9c       _calloc                    10082a9c f   libucrt:calloc.obj
 0001:00081aa7       _abort                     10082aa7 f   libucrt:abort.obj
 0001:00081aeb       ??$is_overflow_condition@_K@__crt_strtox@@YA_NI_K@Z 10082aeb f i libucrt:atox.obj
 0001:00081b2c       ??$parse_integer@KV?$c_string_character_source@D@__crt_strtox@@$00@__crt_strtox@@YAKAAV__crt_cached_ptd_host@@V?$c_string_character_source@D@0@H_N@Z 10082b2c f i libucrt:atox.obj
 0001:00081d73       ??$parse_integer@KV?$c_string_character_source@_W@__crt_strtox@@$00@__crt_strtox@@YAKAAV__crt_cached_ptd_host@@V?$c_string_character_source@_W@0@H_N@Z 10082d73 f i libucrt:atox.obj
 0001:00082381       ??$parse_integer@_KV?$c_string_character_source@D@__crt_strtox@@$00@__crt_strtox@@YA_KAAV__crt_cached_ptd_host@@V?$c_string_character_source@D@0@H_N@Z 10083381 f i libucrt:atox.obj
 0001:00082649       __ischartype_l             10083649 f i libucrt:atox.obj
 0001:000826a0       __wtol                     100836a0 f   libucrt:atox.obj
 0001:000826df       _atoi                      100836df f   libucrt:atox.obj
 0001:000826df       _atol                      100836df f   libucrt:atox.obj
 0001:0008271e       ??$assemble_floating_point_value_t@M@__crt_strtox@@YA?AW4SLD_STATUS@@_NH_KAAM@Z 1008371e f i libucrt:strtod.obj
 0001:0008274e       ??$assemble_floating_point_value_t@N@__crt_strtox@@YA?AW4SLD_STATUS@@_NH_KAAN@Z 1008374e f i libucrt:strtod.obj
 0001:0008281f       ??$convert_decimal_string_to_floating_type@M@__crt_strtox@@YA?AW4SLD_STATUS@@ABUfloating_point_string@0@AAM@Z 1008381f f i libucrt:strtod.obj
 0001:00082840       ??$convert_hexadecimal_string_to_floating_type@M@__crt_strtox@@YA?AW4SLD_STATUS@@ABUfloating_point_string@0@AAM@Z 10083840 f i libucrt:strtod.obj
 0001:00082861       ??$parse_floating_point@V?$c_string_character_source@D@__crt_strtox@@M@__crt_strtox@@YA?AW4SLD_STATUS@@QAU__crt_locale_pointers@@V?$c_string_character_source@D@0@QAM@Z 10083861 f i libucrt:strtod.obj
 0001:000828e1       ??$parse_floating_point_from_source@V?$c_string_character_source@D@__crt_strtox@@@__crt_strtox@@YA?AW4floating_point_parse_result@0@QAU__crt_locale_pointers@@AAV?$c_string_character_source@D@0@AAUfloating_point_string@0@@Z 100838e1 f i libucrt:strtod.obj
 0001:00082cf9       ??$parse_floating_point_possible_infinity@DV?$c_string_character_source@D@__crt_strtox@@PBD@__crt_strtox@@YA?AW4floating_point_parse_result@0@AADAAV?$c_string_character_source@D@0@PBD@Z 10083cf9 f i libucrt:strtod.obj
 0001:00082dac       ??$parse_floating_point_possible_nan@DV?$c_string_character_source@D@__crt_strtox@@PBD@__crt_strtox@@YA?AW4floating_point_parse_result@0@AADAAV?$c_string_character_source@D@0@PBD@Z 10083dac f i libucrt:strtod.obj
 0001:00082eb0       ??$parse_floating_point_possible_nan_is_ind@DV?$c_string_character_source@D@__crt_strtox@@@__crt_strtox@@YA_NAADAAV?$c_string_character_source@D@0@@Z 10083eb0 f i libucrt:strtod.obj
 0001:00082eec       ??$parse_floating_point_possible_nan_is_snan@DV?$c_string_character_source@D@__crt_strtox@@@__crt_strtox@@YA_NAADAAV?$c_string_character_source@D@0@@Z 10083eec f i libucrt:strtod.obj
 0001:00082f28       ??$parse_floating_point_write_result@M@__crt_strtox@@YA?AW4SLD_STATUS@@W4floating_point_parse_result@0@ABUfloating_point_string@0@QAM@Z 10083f28 f i libucrt:strtod.obj
 0001:00083094       ??R<lambda_32aa245da1b5b882fa96db788295c8b2>@@QBE@XZ 10084094 f i libucrt:strtod.obj
 0001:00083094       ??R<lambda_690cf26ff5d754c94c32cf642e9f01bc>@@QBE@XZ 10084094 f i libucrt:strtod.obj
 0001:00083094       ??R<lambda_e51f7abad2595a5950d3223319845217>@@QBE@XZ 10084094 f i libucrt:strtod.obj
 0001:000830ba       ?as_double@floating_point_value@__crt_strtox@@QBEAANXZ 100840ba f i libucrt:strtod.obj
 0001:000830df       ?as_float@floating_point_value@__crt_strtox@@QBEAAMXZ 100840df f i libucrt:strtod.obj
 0001:00083104       ?assemble_floating_point_infinity@__crt_strtox@@YAX_NABVfloating_point_value@1@@Z 10084104 f i libucrt:strtod.obj
 0001:00083144       ?assemble_floating_point_value@__crt_strtox@@YA?AW4SLD_STATUS@@_KH_N1ABVfloating_point_value@1@@Z 10084144 f i libucrt:strtod.obj
 0001:0008349d       ?assemble_floating_point_value_from_big_integer@__crt_strtox@@YA?AW4SLD_STATUS@@ABUbig_integer@1@I_N1ABVfloating_point_value@1@@Z 1008449d f i libucrt:strtod.obj
 0001:0008362f       ?assemble_floating_point_zero@__crt_strtox@@YAX_NABVfloating_point_value@1@@Z 1008462f f i libucrt:strtod.obj
 0001:00083664       ?convert_decimal_string_to_floating_type_common@__crt_strtox@@YA?AW4SLD_STATUS@@ABUfloating_point_string@1@ABVfloating_point_value@1@@Z 10084664 f i libucrt:strtod.obj
 0001:0008540a       ?convert_hexadecimal_string_to_floating_type_common@__crt_strtox@@YA?AW4SLD_STATUS@@ABUfloating_point_string@1@ABVfloating_point_value@1@@Z 1008640a f i libucrt:strtod.obj
 0001:000854b0       ?denormal_mantissa_mask@floating_point_value@__crt_strtox@@QBE_KXZ 100864b0 f i libucrt:strtod.obj
 0001:000854d0       ?divide@__crt_strtox@@YA_KAAUbig_integer@1@ABU21@@Z 100864d0 f i libucrt:strtod.obj
 0001:0008597b       ?normal_mantissa_mask@floating_point_value@__crt_strtox@@QBE_KXZ 1008697b f i libucrt:strtod.obj
 0001:00085992       _strtof                    10086992 f   libucrt:strtod.obj
 0001:000859b0       _strcspn                   100869b0 f   libucrt:strcspn.obj
 0001:00085a00       _strncmp                   10086a00 f   libucrt:strncmp.obj
 0001:00085d09       __localtime64_s            10086d09 f   libucrt:localtime.obj
 0001:00085d14       _localeconv                10086d14 f   libucrt:localeconv.obj
 0001:00085d3c       ??$__acrt_convert_wcs_mbs_cp@_WDV<lambda_0fec1a7b3f42a53036604e18c2d5e07e>@@U__crt_win32_buffer_no_resizing@@@@YAHQB_WAAV?$__crt_win32_buffer@DU__crt_win32_buffer_no_resizing@@@@ABV<lambda_0fec1a7b3f42a53036604e18c2d5e07e>@@I@Z 10086d3c f i libucrt:strftime.obj
 0001:00085dfe       ??$__acrt_wcs_to_mbs_cp@U__crt_win32_buffer_no_resizing@@@@YAHQB_WAAV?$__crt_win32_buffer@DU__crt_win32_buffer_no_resizing@@@@I@Z 10086dfe f i libucrt:strftime.obj
 0001:00085e1b       ??R<lambda_0fec1a7b3f42a53036604e18c2d5e07e>@@QBE@IQB_WQADI@Z 10086e1b f i libucrt:strftime.obj
 0001:00085e1b       ??R<lambda_28bda7af82a03b66c1cb3803a755f95d>@@QBE@IQB_WQADI@Z 10086e1b f i libucrt:argv_wildcards.obj
 0001:00085e3f       ?allocate@?$__crt_win32_buffer@DU__crt_win32_buffer_no_resizing@@@@QAEHI@Z 10086e3f f i libucrt:strftime.obj
 0001:00085e66       ?set_to_nullptr@?$__crt_win32_buffer@DU__crt_win32_buffer_no_resizing@@@@QAEXXZ 10086e66 f i libucrt:strftime.obj
 0001:00085e7a       __Gettnames                10086e7a f   libucrt:strftime.obj
 0001:00085e7f       __Strftime                 10086e7f f   libucrt:strftime.obj
 0001:00085e9f       __Strftime_l               10086e9f f   libucrt:strftime.obj
 0001:00085f9a       __dclass                   10086f9a f   libucrt:nan.obj
 0001:00085fab       __dsign                    10086fab f   libucrt:nan.obj
 0001:00085fbb       __ldclass                  10086fbb f   libucrt:nanl.obj
 0001:00085fcc       _strtoul                   10086fcc f   libucrt:strtox.obj
 0001:00086012       _strtoull                  10087012 f   libucrt:strtox.obj
 0001:0008605e       _wcstol                    1008705e f   libucrt:strtox.obj
 0001:000860a4       __tolower_l                100870a4 f   libucrt:tolower_toupper.obj
 0001:000861a2       _tolower                   100871a2 f   libucrt:tolower_toupper.obj
 0001:000861e0       __libm_sse2_sqrt_precise   100871e0 f   libucrt:sqrt_sse2_precise.obj
 0001:000862e0       _ceil                      100872e0 f   libucrt:ceil_pentium4.obj
 0001:00086320       __ceil_pentium4            10087320 f   libucrt:ceil_pentium4.obj
 0001:00086400       _islower                   10087400 f   libucrt:_ctype.obj
 0001:00086490       _isupper                   10087490 f   libucrt:_ctype.obj
 0001:00086520       _isxdigit                  10087520 f   libucrt:_ctype.obj
 0001:000865ab       ___ascii_stricmp           100875ab f   libucrt:stricmp.obj
 0001:000865e4       __strcmpi                  100875e4 f   libucrt:stricmp.obj
 0001:000865e4       __stricmp                  100875e4 f   libucrt:stricmp.obj
 0001:0008662d       __stricmp_l                1008762d f   libucrt:stricmp.obj
 0001:000866bd       __strnicmp                 100876bd f   libucrt:strnicmp.obj
 0001:0008672a       __strnicmp_l               1008772a f   libucrt:strnicmp.obj
 0001:00086800       _strpbrk                   10087800 f   libucrt:strpbrk.obj
 0001:00086840       _strncat                   10087840 f   libucrt:strncat.obj
 0001:00086975       _terminate                 10087975 f   libucrt:terminate.obj
 0001:000869b1       _malloc                    100879b1 f   libucrt:malloc.obj
 0001:000869bc       _strcpy_s                  100879bc f   libucrt:strcpy_s.obj
 0001:00086a16       _wcsncmp                   10087a16 f   libucrt:wcsncmp.obj
 0001:00086d8e       ___acrt_freeptd            10087d8e f   libucrt:per_thread_data.obj
 0001:00086dba       ___acrt_getptd             10087dba f   libucrt:per_thread_data.obj
 0001:00086e75       ___acrt_getptd_head        10087e75 f   libucrt:per_thread_data.obj
 0001:00086f0b       ___acrt_getptd_noexit      10087f0b f   libucrt:per_thread_data.obj
 0001:00086fbc       ___acrt_getptd_noexit_explicit 10087fbc f   libucrt:per_thread_data.obj
 0001:0008705f       ___acrt_initialize_ptd     1008805f f   libucrt:per_thread_data.obj
 0001:0008708b       ___acrt_uninitialize_ptd   1008808b f   libucrt:per_thread_data.obj
 0001:000871a5       ??0_expandlocale_locale_name_cache@@QAE@QA_WIQAU__crt_qualified_locale_data@@@Z 100881a5 f i libucrt:wsetlocale.obj
 0001:000871ef       ??1_expandlocale_locale_name_cache@@QAE@XZ 100881ef f i libucrt:wsetlocale.obj
 0001:00087387       ?commit_locale_name@_expandlocale_locale_name_cache@@QAEXQB_WI@Z 10088387 f i libucrt:wsetlocale.obj
 0001:000873cb       ?commit_locale_name_cache_already_updated@_expandlocale_locale_name_cache@@QAEXQB_WI@Z 100883cb f i libucrt:wsetlocale.obj
 0001:00087400       ___acrt_copy_locale_name   10088400 f   libucrt:wsetlocale.obj
 0001:00087460       ___acrt_set_locale_changed 10088460 f   libucrt:wsetlocale.obj
 0001:0008746b       ___acrt_uninitialize_locale 1008846b f   libucrt:wsetlocale.obj
 0001:00087492       ___lc_lctowcs              10088492 f   libucrt:wsetlocale.obj
 0001:00087502       ___lc_wcstolc              10088502 f   libucrt:wsetlocale.obj
 0001:00087a34       __wcscats                  10088a34 f   libucrt:wsetlocale.obj
 0001:00087a75       __wsetlocale               10088a75 f   libucrt:wsetlocale.obj
 0001:0008876a       __calloc_base              1008976a f   libucrt:calloc_base.obj
 0001:000887c7       __free_base                100897c7 f   libucrt:free_base.obj
 0001:0008888a       ??$__crt_fast_encode_pointer@P6AHXZ@@YAP6AHXZQ6AHXZ@Z 1008988a f i libucrt:onexit.obj
 0001:0008888a       ??$__crt_fast_encode_pointer@P6GHPA_WKJ@Z@@YAP6GHPA_WKJ@ZQ6GH0KJ@Z@Z 1008988a f i libucrt:winapi_thunks.obj
 0001:0008888a       ??$__crt_fast_encode_pointer@PAP6AXXZ@@YAPAP6AXXZQAP6AXXZ@Z 1008988a f i libucrt:onexit.obj
 0001:0008888a       ??$__crt_fast_encode_pointer@PAX@@YAPAXQAX@Z 1008988a f i libucrt:winapi_thunks.obj
 0001:00088b4a       ___acrt_AppPolicyGetProcessTerminationMethodInternal@4 10089b4a f   libucrt:winapi_thunks.obj
 0001:00088b8a       ___acrt_AreFileApisANSI@0  10089b8a f   libucrt:winapi_thunks.obj
 0001:00088ba9       ___acrt_CompareStringEx@36 10089ba9 f   libucrt:winapi_thunks.obj
 0001:00088c06       ___acrt_EnumSystemLocalesEx@16 10089c06 f   libucrt:winapi_thunks.obj
 0001:00088c5a       ___acrt_FlsAlloc@4         10089c5a f   libucrt:winapi_thunks.obj
 0001:00088c99       ___acrt_FlsFree@4          10089c99 f   libucrt:winapi_thunks.obj
 0001:00088cd8       ___acrt_FlsGetValue@4      10089cd8 f   libucrt:winapi_thunks.obj
 0001:00088d17       ___acrt_FlsSetValue@8      10089d17 f   libucrt:winapi_thunks.obj
 0001:00088d59       ___acrt_GetDateFormatEx@28 10089d59 f   libucrt:winapi_thunks.obj
 0001:00088db0       ___acrt_GetLocaleInfoEx@16 10089db0 f   libucrt:winapi_thunks.obj
 0001:00088def       ___acrt_GetTimeFormatEx@24 10089def f   libucrt:winapi_thunks.obj
 0001:00088e34       ___acrt_GetUserDefaultLocaleName@8 10089e34 f   libucrt:winapi_thunks.obj
 0001:00088e70       ___acrt_InitializeCriticalSectionEx@12 10089e70 f   libucrt:winapi_thunks.obj
 0001:00088ebb       ___acrt_IsValidLocaleName@4 10089ebb f   libucrt:winapi_thunks.obj
 0001:00088ef3       ___acrt_LCIDToLocaleName@16 10089ef3 f   libucrt:winapi_thunks.obj
 0001:00088f32       ___acrt_LCMapStringEx@36   10089f32 f   libucrt:winapi_thunks.obj
 0001:00088f8f       ___acrt_LocaleNameToLCID@8 10089f8f f   libucrt:winapi_thunks.obj
 0001:00088fc0       ___acrt_can_use_vista_locale_apis 10089fc0 f   libucrt:winapi_thunks.obj
 0001:00088fcb       ___acrt_eagerly_load_locale_apis 10089fcb f   libucrt:winapi_thunks.obj
 0001:00089002       ___acrt_initialize_winapi_thunks 1008a002 f   libucrt:winapi_thunks.obj
 0001:00089016       ___acrt_uninitialize_winapi_thunks 1008a016 f   libucrt:winapi_thunks.obj
 0001:0008904c       __fcloseall                1008a04c f   libucrt:closeall.obj
 0001:000890f7       ___acrt_stdio_free_buffer_nolock 1008a0f7 f   libucrt:_freebuf.obj
 0001:0008929d       ___acrt_initialize_lowio   1008a29d f   libucrt:ioinit.obj
 0001:000892fd       ___acrt_uninitialize_lowio 1008a2fd f   libucrt:ioinit.obj
 0001:00089329       __fileno                   1008a329 f   libucrt:fileno.obj
 0001:000893e1       __close_internal           1008a3e1 f   libucrt:close.obj
 0001:00089484       __close_nolock             1008a484 f   libucrt:close.obj
 0001:000894b4       __close_nolock_internal    1008a4b4 f   libucrt:close.obj
 0001:00089554       ?__acrt_stdio_allocate_stream@@YA?AV__crt_stdio_stream@@XZ 1008a554 f   libucrt:stream.obj
 0001:000895bd       ?__acrt_stdio_free_stream@@YAXV__crt_stdio_stream@@@Z 1008a5bd f   libucrt:stream.obj
 0001:000896ba       ___acrt_initialize_locks   1008a6ba f   libucrt:locks.obj
 0001:000896fb       ___acrt_lock               1008a6fb f   libucrt:locks.obj
 0001:00089712       ___acrt_uninitialize_locks 1008a712 f   libucrt:locks.obj
 0001:00089743       ___acrt_unlock             1008a743 f   libucrt:locks.obj
 0001:0008975a       __lock_locales             1008a75a f   libucrt:locks.obj
 0001:00089768       __unlock_locales           1008a768 f   libucrt:locks.obj
 0001:00089813       __commit                   1008a813 f   libucrt:commit.obj
 0001:0008a032       __write                    1008b032 f   libucrt:write.obj
 0001:0008a069       __write_internal           1008b069 f   libucrt:write.obj
 0001:0008a17a       __write_nolock             1008b17a f   libucrt:write.obj
 0001:0008a525       ___acrt_stdio_refill_and_read_narrow_nolock 1008b525 f   libucrt:_filbuf.obj
 0001:0008ab27       __ftelli64                 1008bb27 f   libucrt:ftell.obj
 0001:0008ab5d       __ftelli64_nolock_internal 1008bb5d f   libucrt:ftell.obj
 0001:0008adb5       ___acrt_stdio_flush_and_write_narrow_nolock 1008bdb5 f   libucrt:_flsbuf.obj
 0001:0008b29c       __read                     1008c29c f   libucrt:read.obj
 0001:0008b3b5       __read_nolock              1008c3b5 f   libucrt:read.obj
 0001:0008b8e8       __lseeki64                 1008c8e8 f   libucrt:lseek.obj
 0001:0008b928       __lseeki64_internal        1008c928 f   libucrt:lseek.obj
 0001:0008b946       __lseeki64_nolock          1008c946 f   libucrt:lseek.obj
 0001:0008b986       __lseeki64_nolock_internal 1008c986 f   libucrt:lseek.obj
 0001:0008b9a4       ___acrt_should_use_temporary_buffer 1008c9a4 f   libucrt:_sftbuf.obj
 0001:0008b9e2       ___acrt_stdio_begin_temporary_buffering_nolock 1008c9e2 f   libucrt:_sftbuf.obj
 0001:0008ba8d       ___acrt_stdio_end_temporary_buffering_nolock 1008ca8d f   libucrt:_sftbuf.obj
 0001:0008bacb       ___acrt_stdio_allocate_buffer_nolock 1008cacb f   libucrt:_getbuf.obj
 0001:0008bb27       __malloc_base              1008cb27 f   libucrt:malloc_base.obj
 0001:0008bc0d       ___acrt_MultiByteToWideChar 1008cc0d f   libucrt:multibytetowidechar.obj
 0001:0008bc37       ___acrt_update_locale_info 1008cc37 f   libucrt:locale_update.obj
 0001:0008bc64       ___acrt_update_locale_info_explicit 1008cc64 f   libucrt:locale_update.obj
 0001:0008bc95       ___acrt_update_multibyte_info 1008cc95 f   libucrt:locale_update.obj
 0001:0008bcc2       ___acrt_update_multibyte_info_explicit 1008ccc2 f   libucrt:locale_update.obj
 0001:0008bcf3       __wrename                  1008ccf3 f   libucrt:wrename.obj
 0001:0008bd20       _strnlen                   1008cd20 f   libucrt:strnlen.obj
 0001:0008be42       _wcsnlen                   1008ce42 f   libucrt:strnlen.obj
 0001:0008bff2       ?__acrt_fp_classify@@YA?AW4__acrt_fp_class@@ABN@Z 1008cff2 f i libucrt:cvt.obj
 0001:0008c9ca       ___acrt_fp_format          1008d9ca f   libucrt:cvt.obj
 0001:0008cb4b       __wctomb_internal          1008db4b f   libucrt:wctomb.obj
 0001:0008ccb5       __mbtowc_internal          1008dcb5 f   libucrt:mbtowc.obj
 0001:0008cde8       __get_printf_count_output  1008dde8 f   libucrt:printf_count_output.obj
 0001:0008cdfd       __errcode                  1008ddfd f   libucrt:fpexcept.obj
 0001:0008ce31       __except1                  1008de31 f   libucrt:fpexcept.obj
 0001:0008ceff       __handle_exc               1008deff f   libucrt:fpexcept.obj
 0001:0008d17f       __raise_exc                1008e17f f   libucrt:fpexcept.obj
 0001:0008d1a2       __raise_exc_ex             1008e1a2 f   libucrt:fpexcept.obj
 0001:0008d493       __set_errno_from_matherr   1008e493 f   libucrt:fpexcept.obj
 0001:0008d4c4       __umatherr                 1008e4c4 f   libucrt:fpexcept.obj
 0001:0008d564       __decomp                   1008e564 f   libucrt:util.obj
 0001:0008d636       __set_exp                  1008e636 f   libucrt:util.obj
 0001:0008d663       __sptype                   1008e663 f   libucrt:util.obj
 0001:0008d6c6       ___set_fpsr_sse2           1008e6c6 f   libucrt:fpctrl.obj
 0001:0008d746       __clrfp                    1008e746 f   libucrt:fpctrl.obj
 0001:0008d757       __ctrlfp                   1008e757 f   libucrt:fpctrl.obj
 0001:0008d781       __set_statfp               1008e781 f   libucrt:fpctrl.obj
 0001:0008d7da       __statfp                   1008e7da f   libucrt:fpctrl.obj
 0001:0008d837       ??$__crt_fast_decode_pointer@P6AHI@Z@@YAP6AHI@ZQ6AHI@Z@Z 1008e837 f i libucrt:new_handler.obj
 0001:0008d837       ??$__crt_fast_decode_pointer@P6AXH@Z@@YAP6AXH@ZQ6AXH@Z@Z 1008e837 f i libucrt:signal.obj
 0001:0008d837       ??$__crt_fast_decode_pointer@P6GXPAXK0@Z@@YAP6GXPAXK0@ZQ6GX0K0@Z@Z 1008e837 f i libucrt:exit.obj
 0001:0008dadf       ___acrt_initialize_thread_local_exit_callback 1008eadf f   libucrt:exit.obj
 0001:0008daee       __cexit                    1008eaee f   libucrt:exit.obj
 0001:0008dafd       __exit                     1008eafd f   libucrt:exit.obj
 0001:0008db13       __is_c_termination_complete 1008eb13 f   libucrt:exit.obj
 0001:0008dbec       ___acrt_get_sigabrt_handler 1008ebec f   libucrt:signal.obj
 0001:0008dc13       ___acrt_initialize_signal_handlers 1008ec13 f   libucrt:signal.obj
 0001:0008dc31       _raise                     1008ec31 f   libucrt:signal.obj
 0001:0008de23       ___pctype_func             1008ee23 f   libucrt:ctype.obj
 0001:0008de47       _iswctype                  1008ee47 f   libucrt:iswctype.obj
 0001:0008deb0       __isctype_l                1008eeb0 f   libucrt:isctype.obj
 0001:0008df7b       _fegetround                1008ef7b f   libucrt:fegetround.obj
 0001:0008df88       ___acrt_initialize_timeset 1008ef88 f   libucrt:timeset.obj
 0001:0008dfbd       ___daylight                1008efbd f   libucrt:timeset.obj
 0001:0008dfc3       ___dstbias                 1008efc3 f   libucrt:timeset.obj
 0001:0008dfc9       ___timezone                1008efc9 f   libucrt:timeset.obj
 0001:0008dfcf       ___tzname                  1008efcf f   libucrt:timeset.obj
 0001:0008dfd5       ___wide_tzname             1008efd5 f   libucrt:timeset.obj
 0001:0008dfde       __get_daylight             1008efde f   libucrt:timeset.obj
 0001:0008e00a       __get_dstbias              1008f00a f   libucrt:timeset.obj
 0001:0008e036       __get_timezone             1008f036 f   libucrt:timeset.obj
 0001:0008e062       ??$__crt_time_elapsed_leap_years@H@@YAHH@Z 1008f062 f i libucrt:gmtime.obj
 0001:0008e09c       ??$__crt_time_is_leap_year@H@@YA_NH@Z 1008f09c f i libucrt:gmtime.obj
 0001:0008e2e2       __gmtime64_s               1008f2e2 f   libucrt:gmtime.obj
 0001:0008ebac       ___tzset                   1008fbac f   libucrt:tzset.obj
 0001:0008ec09       __isindst                  1008fc09 f   libucrt:tzset.obj
 0001:0008eced       ___acrt_WideCharToMultiByte 1008fced f   libucrt:widechartomultibyte.obj
 0001:0008ed59       ??1?$__crt_scoped_stack_ptr@_W@@QAE@XZ 1008fd59 f i libucrt:wcsftime.obj
 0001:0008fdbf       __W_Gettnames              10090dbf f   libucrt:wcsftime.obj
 0001:000904bb       __Wcsftime_l               100914bb f   libucrt:wcsftime.obj
 0001:0009061b       __freea_crt                1009161b f i libucrt:wcsftime.obj
 0001:0009063b       __dtest                    1009163b f   libucrt:_test.obj
 0001:0009069f       __ldtest                   1009169f f   libucrt:_test.obj
 0001:00090899       ___acrt_LCMapStringA       10091899 f   libucrt:lcmapstringa.obj
 0001:000908e2       ___libm_error_support      100918e2 f   libucrt:libm_error.obj
 0001:00090ae0       _sqrt                      10091ae0 f   libucrt:sqrt.obj
 0001:00090aee       ___acrt_initialize_sse2    10091aee f   libucrt:mathfcns.obj
 0001:00090afe       __ceil_default             10091afe f   libucrt:ceil.obj
 0001:00090bc0       ___ascii_strnicmp          10091bc0 f   libucrt:_strnicm.obj
 0001:00090c21       ___acrt_add_locale_ref     10091c21 f   libucrt:locale_refcounting.obj
 0001:00090c9e       ___acrt_free_locale        10091c9e f   libucrt:locale_refcounting.obj
 0001:00090de6       ___acrt_locale_add_lc_time_reference 10091de6 f   libucrt:locale_refcounting.obj
 0001:00090e0f       ___acrt_locale_free_lc_time_if_unreferenced 10091e0f f   libucrt:locale_refcounting.obj
 0001:00090e40       ___acrt_locale_release_lc_time_reference 10091e40 f   libucrt:locale_refcounting.obj
 0001:00090e69       ___acrt_release_locale_ref 10091e69 f   libucrt:locale_refcounting.obj
 0001:00090eea       ___acrt_update_thread_locale_data 10091eea f   libucrt:locale_refcounting.obj
 0001:00090f6b       __updatetlocinfoEx_nolock  10091f6b f   libucrt:locale_refcounting.obj
 0001:00091537       ___acrt_initialize_multibyte 10092537 f   libucrt:mbctype.obj
 0001:0009157f       ___acrt_update_thread_multibyte_data 1009257f f   libucrt:mbctype.obj
 0001:00091592       __setmbcp_nolock           10092592 f   libucrt:mbctype.obj
 0001:00091797       __seh_filter_dll           10092797 f   libucrt:exception_filter.obj
 0001:000917b7       __seh_filter_exe           100927b7 f   libucrt:exception_filter.obj
 0001:000918fd       ____lc_codepage_func       100928fd f   libucrt:initctype.obj
 0001:00091922       ____lc_locale_name_func    10092922 f   libucrt:initctype.obj
 0001:00091949       ____mb_cur_max_func        10092949 f   libucrt:initctype.obj
 0001:0009196e       ___acrt_locale_initialize_ctype 1009296e f   libucrt:initctype.obj
 0001:00091dcb       ___acrt_locale_free_monetary 10092dcb f   libucrt:initmon.obj
 0001:00091ec9       ___acrt_locale_initialize_monetary 10092ec9 f   libucrt:initmon.obj
 0001:0009222a       ___acrt_locale_free_numeric 1009322a f   libucrt:initnum.obj
 0001:00092293       ___acrt_locale_initialize_numeric 10093293 f   libucrt:initnum.obj
 0001:00092751       ___acrt_locale_free_time   10093751 f   libucrt:inittime.obj
 0001:00092835       ___acrt_locale_initialize_time 10093835 f   libucrt:inittime.obj
 0001:000928b0       _wcscat_s                  100938b0 f   libucrt:wcscat_s.obj
 0001:0009291f       _wcscpy_s                  1009391f f   libucrt:wcscpy_s.obj
 0001:00092a6b       _wcsncat_s                 10093a6b f   libucrt:wcsncat_s.obj
 0001:00092b44       _wcsncpy_s                 10093b44 f   libucrt:wcsncpy_s.obj
 0001:00092b4f       _wcscspn                   10093b4f f   libucrt:wcscspn.obj
 0001:00092ba8       _wcspbrk                   10093ba8 f   libucrt:wcspbrk.obj
 0001:00092bf6       ___acrt_GetStringTypeA     10093bf6 f   libucrt:getstringtypea.obj
 0001:000933ee       ___acrt_get_qualified_locale 100943ee f   libucrt:get_qualified_locale.obj
 0001:00093d63       ___acrt_get_qualified_locale_downlevel 10094d63 f   libucrt:getqloc_downlevel.obj
 0001:00093f53       ___acrt_initialize_new_handler 10094f53 f   libucrt:new_handler.obj
 0001:00093f62       __callnewh                 10094f62 f   libucrt:new_handler.obj
 0001:00093f8e       __query_new_handler        10094f8e f   libucrt:new_handler.obj
 0001:00093fe5       __query_new_mode           10094fe5 f   libucrt:new_mode.obj
 0001:00093fec       ___acrt_initialize_heap    10094fec f   libucrt:heap_handle.obj
 0001:00093ffe       ___acrt_uninitialize_heap  10094ffe f   libucrt:heap_handle.obj
 0001:00094058       ___acrt_DownlevelLCIDToLocaleName 10095058 f   libucrt:lcidtoname_downlevel.obj
 0001:000940fb       ___acrt_DownlevelLocaleNameToLCID 100950fb f   libucrt:lcidtoname_downlevel.obj
 0001:00094127       ___acrt_get_process_end_policy 10095127 f   libucrt:win_policies.obj
 0001:0009414e       ___acrt_lowio_create_handle_array 1009514e f   libucrt:osfinfo.obj
 0001:000941c9       ___acrt_lowio_destroy_handle_array 100951c9 f   libucrt:osfinfo.obj
 0001:000941fe       ___acrt_lowio_ensure_fh_exists 100951fe f   libucrt:osfinfo.obj
 0001:0009429c       ___acrt_lowio_lock_fh      1009529c f   libucrt:osfinfo.obj
 0001:000942bf       ___acrt_lowio_set_os_handle 100952bf f   libucrt:osfinfo.obj
 0001:00094351       ___acrt_lowio_unlock_fh    10095351 f   libucrt:osfinfo.obj
 0001:00094374       __alloc_osfhnd             10095374 f   libucrt:osfinfo.obj
 0001:00094487       __free_osfhnd              10095487 f   libucrt:osfinfo.obj
 0001:00094518       __get_osfhandle            10095518 f   libucrt:osfinfo.obj
 0001:00094582       __isatty                   10095582 f   libucrt:isatty.obj
 0001:00094604       ?__mbrtowc_utf8@__crt_mbstring@@YAIPA_WPBDIPAU_Mbstatet@@AAV__crt_cached_ptd_host@@@Z 10095604 f   libucrt:mbrtowc.obj
 0001:00094647       ?__mbsrtowcs_utf8@__crt_mbstring@@YAIPA_WPAPBDIPAU_Mbstatet@@AAV__crt_cached_ptd_host@@@Z 10095647 f   libucrt:mbrtowc.obj
 0001:0009474f       __putwch_nolock            1009574f f   libucrt:putwch.obj
 0001:00094832       ___acrt_fp_strflt_to_string 10095832 f   libucrt:_fptostr.obj
 0001:0009492c       ___acrt_fltout             1009592c f   libucrt:cfout.obj
 0001:00095f14       ?__c32rtomb_utf8@__crt_mbstring@@YAIPAD_UPAU_Mbstatet@@AAV__crt_cached_ptd_host@@@Z 10096f14 f   libucrt:c32rtomb.obj
 0001:00095fc4       ___acrt_has_user_matherr   10096fc4 f   libucrt:matherr.obj
 0001:00095fe1       ___acrt_initialize_user_matherr 10096fe1 f   libucrt:matherr.obj
 0001:00095ff2       ___acrt_invoke_user_matherr 10096ff2 f   libucrt:matherr.obj
 0001:00096028       __initterm                 10097028 f   libucrt:initterm.obj
 0001:00096053       __initterm_e               10097053 f   libucrt:initterm.obj
 0001:00096313       __crt_atexit               10097313 f   libucrt:onexit.obj
 0001:00096329       __execute_onexit_table     10097329 f   libucrt:onexit.obj
 0001:00096367       __initialize_onexit_table  10097367 f   libucrt:onexit.obj
 0001:00096390       __register_onexit_function 10097390 f   libucrt:onexit.obj
 0001:000963c3       ___acrt_app_verifier_enabled 100973c3 f   libucrt:peb_access.obj
 0001:000963d5       ___acrt_is_secure_process  100973d5 f   libucrt:peb_access.obj
 0001:000963e8       ___acrt_GetStringTypeW     100973e8 f   libucrt:getstringtypew.obj
 0001:000966ca       ___acrt_fenv_get_common_round_control 100976ca f   libucrt:_fenvutils.obj
 0001:000966ec       ___acrt_fenv_get_control   100976ec f   libucrt:_fenvutils.obj
 0001:0009676c       ___acrt_fenv_get_status    1009776c f   libucrt:_fenvutils.obj
 0001:00096816       ___acrt_fenv_set_control   10097816 f   libucrt:_fenvutils.obj
 0001:00096891       ___acrt_fenv_set_status    10097891 f   libucrt:_fenvutils.obj
 0001:00096b1e       __wgetenv_s                10097b1e f   libucrt:getenv.obj
 0001:00096b29       ___ascii_wcsicmp           10097b29 f   libucrt:wcsicmp.obj
 0001:00096b66       __towlower_internal        10097b66 f i libucrt:wcsicmp.obj
 0001:00096ba5       __wcsicmp                  10097ba5 f   libucrt:wcsicmp.obj
 0001:00096bee       __wcsicmp_l                10097bee f   libucrt:wcsicmp.obj
 0001:00096ca6       ___strncnt                 10097ca6 f   libucrt:strncnt.obj
 0001:00096cd0       __twoToTOS                 10097cd0 f   libucrt:common.obj
 0001:00096ce5       __load_CW                  10097ce5 f   libucrt:common.obj
 0001:00096cfc       __convertTOStoQNaN         10097cfc f   libucrt:common.obj
 0001:00096d15       __fload_withFB             10097d15 f   libucrt:common.obj
 0001:00096d58       __checkTOS_withFB          10097d58 f   libucrt:common.obj
 0001:00096d6e       __fast_exit                10097d6e f   libucrt:common.obj
 0001:00096d7b       __math_exit                10097d7b f   libucrt:common.obj
 0001:00096da5       __check_overflow_exit      10097da5 f   libucrt:common.obj
 0001:00096db9       __check_range_exit         10097db9 f   libucrt:common.obj
 0001:00096e60       __CIsqrt                   10097e60 f   libucrt:sqrt_impl.obj
 0001:00096e74       __sqrt_common              10097e74     libucrt:sqrt_impl.obj
 0001:00096f11       __frnd                     10097f11 f   libucrt:frnd.obj
 0001:00097013       ___acrt_GetLocaleInfoA     10098013 f   libucrt:getlocaleinfoa.obj
 0001:000972f1       __itow_s                   100982f1 f   libucrt:xtoa.obj
 0001:00097324       ___ascii_wcsnicmp          10098324 f   libucrt:wcsnicmp.obj
 0001:00097373       __wcsnicmp                 10098373 f   libucrt:wcsnicmp.obj
 0001:000973bf       __wcsnicmp_l               100983bf f   libucrt:wcsnicmp.obj
 0001:00097492       __query_app_type           10098492 f   libucrt:report_runtime_error.obj
 0001:00097498       ?__mbrtoc32_utf8@__crt_mbstring@@YAIPA_UPBDIPAU_Mbstatet@@AAV__crt_cached_ptd_host@@@Z 10098498 f   libucrt:mbrtoc32.obj
 0001:00097668       ___dcrt_lowio_ensure_console_output_initialized 10098668 f   libucrt:initcon.obj
 0001:00097687       ___dcrt_terminate_console_output 10098687 f   libucrt:initcon.obj
 0001:0009769e       ___dcrt_write_console      1009869e f   libucrt:initcon.obj
 0001:000976f3       __controlfp_s              100986f3 f   libucrt:contrlfp.obj
 0001:00097752       _fegetenv                  10098752 f   libucrt:fegetenv.obj
 0001:0009776f       _fesetenv                  1009876f f   libucrt:fesetenv.obj
 0001:000977bb       _feholdexcept              100987bb f   libucrt:feholdexcept.obj
 0001:00097810       __CIlog10                  10098810 f   libucrt:log10_impl.obj
 0001:0009784b       __CIlog10_default          1009884b f   libucrt:log10_impl.obj
 0001:0009785f       __log10_default            1009885f     libucrt:log10_impl.obj
 0001:00097920       ?reset_and_return@__crt_mbstring@@YAIIPAU_Mbstatet@@@Z 10098920 f   libucrt:common_utf8.obj
 0001:00097934       ?return_illegal_sequence@__crt_mbstring@@YAIPAU_Mbstatet@@AAV__crt_cached_ptd_host@@@Z 10098934 f   libucrt:common_utf8.obj
 0001:00097956       __recalloc_base            10098956 f   libucrt:recalloc.obj
 0001:000979c3       __wcsnicoll                100989c3 f   libucrt:wcsnicol.obj
 0001:00097a30       __wcsnicoll_l              10098a30 f   libucrt:wcsnicol.obj
 0001:00097eb1       ___dcrt_get_or_create_wide_environment_nolock 10098eb1 f   libucrt:environment_initialization.obj
 0001:00097eb6       ___dcrt_uninitialize_environments_nolock 10098eb6 f   libucrt:environment_initialization.obj
 0001:00097f07       __initialize_narrow_environment 10098f07 f   libucrt:environment_initialization.obj
 0001:00097f0c       __towlower_l               10098f0c f   libucrt:towlower.obj
 0001:00097fe0       __startTwoArgErrorHandling 10098fe0 f   libucrt:genexcep.obj
 0001:00097ff7       __startOneArgErrorHandling 10098ff7 f   libucrt:genexcep.obj
 0001:00098040       __trandisp1                10099040 f   libucrt:87disp.obj
 0001:000980b5       __trandisp2                100990b5 f   libucrt:87disp.obj
 0001:0009814f       __rttospopde               1009914f     libucrt:87disp.obj
 0001:00098154       __rttospop                 10099154     libucrt:87disp.obj
 0001:00098160       __rtnospop                 10099160 f   libucrt:87disp.obj
 0001:00098170       __rttosnpop                10099170 f   libucrt:87disp.obj
 0001:00098171       __rtnospopde               10099171     libucrt:87disp.obj
 0001:00098178       __rtzeropop                10099178     libucrt:87disp.obj
 0001:0009817a       __rtzeronpop               1009917a     libucrt:87disp.obj
 0001:00098180       __rtzerospop               10099180 f   libucrt:87disp.obj
 0001:0009818d       __rtonepop                 1009918d     libucrt:87disp.obj
 0001:00098190       __rtonenpop                10099190 f   libucrt:87disp.obj
 0001:000981a0       __tosnan1                  100991a0 f   libucrt:87disp.obj
 0001:000981d0       __nosnan2                  100991d0 f   libucrt:87disp.obj
 0001:000981e0       __tosnan2                  100991e0 f   libucrt:87disp.obj
 0001:00098210       __nan2                     10099210 f   libucrt:87disp.obj
 0001:00098250       __rtindfpop                10099250 f   libucrt:87disp.obj
 0001:00098252       __rtindfnpop               10099252     libucrt:87disp.obj
 0001:00098263       __rttosnpopde              10099263     libucrt:87disp.obj
 0001:00098270       __rtatan2inf               10099270 f   libucrt:87disp.obj
 0001:0009828d       __rtchsifneg               1009928d     libucrt:87disp.obj
 0001:0009834b       _strncpy_s                 1009934b f   libucrt:strncpy_s.obj
 0001:000983fd       __clearfp                  100993fd f   libucrt:ieee87.obj
 0001:000984db       __control87                100994db f   libucrt:ieee87.obj
 0001:00098880       __CIlog10_pentium4         10099880 f   libucrt:log10_pentium4.obj
 0001:00098898       __log10_pentium4           10099898     libucrt:log10_pentium4.obj
 0001:00098b30       __fFEXP                    10099b30 f   libucrt:87tran.obj
 0001:00098b87       __rtinfpopse               10099b87     libucrt:87tran.obj
 0001:00098b89       __rtinfnpopse              10099b89     libucrt:87tran.obj
 0001:00098b99       __fFLN                     10099b99     libucrt:87tran.obj
 0001:00098c4e       __rtinfpop                 10099c4e     libucrt:87tran.obj
 0001:00098c50       __rtinfnpop                10099c50     libucrt:87tran.obj
 0001:00098c60       __rtforexpinf              10099c60 f   libucrt:87tran.obj
 0001:00098c6d       __ffexpm1                  10099c6d     libucrt:87tran.obj
 0001:00098d16       __msize_base               10099d16 f   libucrt:msize.obj
 0001:00098d49       __realloc_base             10099d49 f   libucrt:realloc_base.obj
 0001:00098db2       ___acrt_CompareStringW     10099db2 f   libucrt:comparestringw.obj
 0001:00098e4e       ___dcrt_get_narrow_environment_from_os 10099e4e f   libucrt:get_environment_from_os.obj
 0001:00098eee       ___dcrt_get_wide_environment_from_os 10099eee f   libucrt:get_environment_from_os.obj
 0001:000992f7       ___dcrt_set_variable_in_wide_environment_nolock 1009a2f7 f   libucrt:setenv.obj
 0001:00099302       ___acrt_LCMapStringW       1009a302 f   libucrt:lcmapstringw.obj
 0001:00099340       __87except                 1009a340 f   libucrt:87except.obj
 0001:00099450       __d_inttype                1009a450 f   libucrt:powhlp.obj
 0001:000994b8       __powhlp                   1009a4b8 f   libucrt:powhlp.obj
 0001:00099886       _mbstowcs_s                1009a886 f   libucrt:mbstowcs.obj
 0001:000998c3       __fpclass                  1009a8c3 f   libucrt:ieeemisc.obj
 0001:00099967       _CreateToolhelp32Snapshot@8 1009a967 f   kernel32:KERNEL32.dll
 0001:0009996d       _Thread32First@8           1009a96d f   kernel32:KERNEL32.dll
 0001:00099973       _Thread32Next@8            1009a973 f   kernel32:KERNEL32.dll
 0001:00099979       ??0_Init_locks@std@@QAE@XZ 1009a979 f   libcpmt:xlock.obj
 0001:000999a6       ??0_Lockit@std@@QAE@H@Z    1009a9a6 f   libcpmt:xlock.obj
 0001:000999d7       ??1_Init_locks@std@@QAE@XZ 1009a9d7 f   libcpmt:xlock.obj
 0001:000999fe       ??1_Lockit@std@@QAE@XZ     1009a9fe f   libcpmt:xlock.obj
 0001:00099a1d       ??0bad_function_call@std@@QAE@ABV01@@Z 1009aa1d f i libcpmt:xthrow.obj
 0001:00099a38       ??0bad_function_call@std@@QAE@XZ 1009aa38 f i libcpmt:xthrow.obj
 0001:00099a49       ??0invalid_argument@std@@QAE@ABV01@@Z 1009aa49 f i libcpmt:xthrow.obj
 0001:00099a64       ??0invalid_argument@std@@QAE@PBD@Z 1009aa64 f i libcpmt:xthrow.obj
 0001:00099a83       ??0length_error@std@@QAE@ABV01@@Z 1009aa83 f i libcpmt:xthrow.obj
 0001:00099a9e       ??0length_error@std@@QAE@PBD@Z 1009aa9e f i libcpmt:xthrow.obj
 0001:00099abd       ??0logic_error@std@@QAE@ABV01@@Z 1009aabd f i libcpmt:xthrow.obj
 0001:00099ad8       ??0out_of_range@std@@QAE@ABV01@@Z 1009aad8 f i libcpmt:xthrow.obj
 0001:00099af3       ??0out_of_range@std@@QAE@PBD@Z 1009aaf3 f i libcpmt:xthrow.obj
 0001:00099b12       ??0runtime_error@std@@QAE@PBD@Z 1009ab12 f i libcpmt:xthrow.obj
 0001:00099b31       ?_Xbad_alloc@std@@YAXXZ    1009ab31 f   libcpmt:xthrow.obj
 0001:00099b31       ?__scrt_throw_std_bad_alloc@@YAXXZ 1009ab31 f   LIBCMT:throw_bad_alloc.obj
 0001:00099b4e       ?_Xbad_function_call@std@@YAXXZ 1009ab4e f   libcpmt:xthrow.obj
 0001:00099b6b       ?_Xinvalid_argument@std@@YAXPBD@Z 1009ab6b f   libcpmt:xthrow.obj
 0001:00099b8b       ?_Xlength_error@std@@YAXPBD@Z 1009ab8b f   libcpmt:xthrow.obj
 0001:00099bab       ?_Xout_of_range@std@@YAXPBD@Z 1009abab f   libcpmt:xthrow.obj
 0001:00099bcb       ?_Xruntime_error@std@@YAXPBD@Z 1009abcb f   libcpmt:xthrow.obj
 0001:00099beb       ?what@bad_function_call@std@@UBEPBDXZ 1009abeb f i libcpmt:xthrow.obj
 0001:00099bf1       ?_Syserror_map@std@@YAPBDH@Z 1009abf1 f   libcpmt:syserror.obj
 0001:00099c16       ??0_Locimp@locale@std@@AAE@_N@Z 1009ac16 f i libcpmt:locale0.obj
 0001:00099c57       ??1_Fac_node@std@@QAE@XZ   1009ac57 f i libcpmt:locale0.obj
 0001:00099c88       ??1_Fac_tidy_reg_t@std@@QAE@XZ 1009ac88 f i libcpmt:locale0.obj
 0001:00099caf       ??1_Locimp@locale@std@@MAE@XZ 1009acaf f i libcpmt:locale0.obj
 0001:00099cda       ??4?$_Yarn@D@std@@QAEAAV01@PBD@Z 1009acda f i libcpmt:locale0.obj
 0001:00099d2e       ??_E_Locimp@locale@std@@MAEPAXI@Z 1009ad2e f i libcpmt:locale0.obj
 0001:00099d2e       ??_G_Locimp@locale@std@@MAEPAXI@Z 1009ad2e f i libcpmt:locale0.obj
 0001:00099d50       ?_Facet_Register@std@@YAXPAV_Facet_base@1@@Z 1009ad50 f   libcpmt:locale0.obj
 0001:00099d7c       ?_Getgloballocale@locale@std@@CAPAV_Locimp@12@XZ 1009ad7c f   libcpmt:locale0.obj
 0001:00099d82       ?_Init@locale@std@@CAPAV_Locimp@12@_N@Z 1009ad82 f   libcpmt:locale0.obj
 0001:00099e0f       ?_Locimp_dtor@_Locimp@locale@std@@CAXPAV123@@Z 1009ae0f f   libcpmt:locale0.obj
 0001:00099e80       ?_Locinfo_ctor@_Locinfo@std@@SAXPAV12@PBD@Z 1009ae80 f   libcpmt:locale0.obj
 0001:00099ecb       ?_Locinfo_dtor@_Locinfo@std@@SAXPAV12@@Z 1009aecb f   libcpmt:locale0.obj
 0001:00099ee5       ?_New_Locimp@_Locimp@locale@std@@CAPAV123@_N@Z 1009aee5 f   libcpmt:locale0.obj
 0001:00099f08       ?_Setgloballocale@locale@std@@CAXPAX@Z 1009af08 f   libcpmt:locale0.obj
 0001:00099f30       __Deletegloballocale       1009af30 f   libcpmt:locale0.obj
 0001:00099f95       __Getctype                 1009af95 f   libcpmt:_tolower.obj
 0001:0009a000       __Tolower                  1009b000 f   libcpmt:_tolower.obj
 0001:0009a10c       __Toupper                  1009b10c f   libcpmt:_toupper.obj
 0001:0009a218       ?_Addstd@ios_base@std@@SAXPAV12@@Z 1009b218 f   libcpmt:ios.obj
 0001:0009a264       ?_Callfns@ios_base@std@@AAEXW4event@12@@Z 1009b264 f i libcpmt:ios.obj
 0001:0009a297       ?_Ios_base_dtor@ios_base@std@@CAXPAV12@@Z 1009b297 f   libcpmt:ios.obj
 0001:0009a2d7       ?_Tidy@ios_base@std@@AAEXXZ 1009b2d7 f i libcpmt:ios.obj
 0001:0009a352       ?uncaught_exception@std@@YA_NXZ 1009b352 f   libcpmt:uncaught_exception.obj
 0001:0009a357       ___std_init_once_link_alternate_names_and_abort@0 1009b357 f   libcpmt:xonce2.obj
 0001:0009a35c       __Query_perf_counter       1009b35c f   libcpmt:xtime.obj
 0001:0009a373       __Query_perf_frequency     1009b373 f   libcpmt:xtime.obj
 0001:0009a3b0       __Xtime_get_ticks          1009b3b0 f   libcpmt:xtime.obj
 0001:0009a3d7       __Getcvt                   1009b3d7 f   libcpmt:xwctomb.obj
 0001:0009a544       ?_Fiopen@std@@YAPAU_iobuf@@PBDHH@Z 1009b544 f   libcpmt:fiopen.obj
 0001:0009a54d       ?_Fiopen@std@@YAPAU_iobuf@@PB_WHH@Z 1009b54d f   libcpmt:fiopen.obj
 0001:0009a556       ?setw@std@@YA?AU?$_Smanip@_J@1@_J@Z 1009b556 f   libcpmt:iomanip.obj
 0001:0009a584       __Mtxdst                   1009b584 f   libcpmt:xmtx.obj
 0001:0009a592       __Mtxinit                  1009b592 f   libcpmt:xmtx.obj
 0001:0009a5a7       __Mtxlock                  1009b5a7 f   libcpmt:xmtx.obj
 0001:0009a5b5       __Mtxunlock                1009b5b5 f   libcpmt:xmtx.obj
 0001:0009a5c3       ??1_Init_atexit@@QAE@XZ    1009b5c3 f i libcpmt:iosptrs.obj
 0001:0009a62b       ?_Atexit@@YAXP6AXXZ@Z      1009b62b f   libcpmt:iosptrs.obj
 0001:0009a65a       ___crtLCMapStringA         1009b65a f   libcpmt:StlLCMapStringA.obj
 0001:0009a86b       ___crtGetSystemTimePreciseAsFileTime 1009b86b f   libcpmt:winapisupp.obj
 0001:0009a8c0       ??2@YAPAXI@Z               1009b8c0 f   LIBCMT:new_scalar.obj
 0001:0009a8f0       ??3@YAXPAXI@Z              1009b8f0 f   LIBCMT:delete_scalar_size.obj
 0001:0009a8fe       ??_V@YAXPAX@Z              1009b8fe f   LIBCMT:delete_array.obj
 0001:0009a947       ___scrt_acquire_startup_lock 1009b947 f   LIBCMT:utility.obj
 0001:0009a979       ___scrt_dllmain_after_initialize_c 1009b979 f   LIBCMT:utility.obj
 0001:0009a9a4       ___scrt_dllmain_before_initialize_c 1009b9a4 f   LIBCMT:utility.obj
 0001:0009a9b2       ___scrt_dllmain_crt_thread_attach 1009b9b2 f   LIBCMT:utility.obj
 0001:0009a9d1       ___scrt_dllmain_crt_thread_detach 1009b9d1 f   LIBCMT:utility.obj
 0001:0009a9de       ___scrt_dllmain_exception_filter 1009b9de f   LIBCMT:utility.obj
 0001:0009aa12       ___scrt_dllmain_uninitialize_c 1009ba12 f   LIBCMT:utility.obj
 0001:0009aa35       ___scrt_dllmain_uninitialize_critical 1009ba35 f   LIBCMT:utility.obj
 0001:0009aa42       ___scrt_initialize_crt     1009ba42 f   LIBCMT:utility.obj
 0001:0009aa7b       ___scrt_initialize_onexit_tables 1009ba7b f   LIBCMT:utility.obj
 0001:0009ab02       ___scrt_is_nonwritable_in_current_image 1009bb02 f   LIBCMT:utility.obj
 0001:0009ab96       ___scrt_release_startup_lock 1009bb96 f   LIBCMT:utility.obj
 0001:0009abb3       ___scrt_uninitialize_crt   1009bbb3 f   LIBCMT:utility.obj
 0001:0009abdb       __onexit                   1009bbdb f   LIBCMT:utility.obj
 0001:0009ac08       _atexit                    1009bc08 f   LIBCMT:utility.obj
 0001:0009ac1d       @__security_check_cookie@4 1009bc1d f   LIBCMT:secchk.obj
 0001:0009ac2b       ??_Etype_info@@UAEPAXI@Z   1009bc2b f i LIBCMT:std_type_info_static.obj
 0001:0009ac2b       ??_Gtype_info@@UAEPAXI@Z   1009bc2b f i LIBCMT:std_type_info_static.obj
 0001:0009ac4e       ??_U@YAPAXI@Z              1009bc4e f   LIBCMT:new_array.obj
 0001:0009ac60       __allshl                   1009bc60 f   LIBCMT:llshl.obj
 0001:0009ac80       __aullshr                  1009bc80 f   LIBCMT:ullshr.obj
 0001:0009ac9f       __Init_thread_abort        1009bc9f f   LIBCMT:thread_safe_statics.obj
 0001:0009acca       __Init_thread_footer       1009bcca f   LIBCMT:thread_safe_statics.obj
 0001:0009ad1b       __Init_thread_header       1009bd1b f   LIBCMT:thread_safe_statics.obj
 0001:0009ad6a       __Init_thread_wait_v2      1009bd6a f   LIBCMT:thread_safe_statics.obj
 0001:0009ad80       __alldiv                   1009bd80 f   LIBCMT:lldiv.obj
 0001:0009ae30       __alldvrm                  1009be30 f   LIBCMT:lldvrm.obj
 0001:0009af10       __allmul                   1009bf10 f   LIBCMT:llmul.obj
 0001:0009af50       __allrem                   1009bf50 f   LIBCMT:llrem.obj
 0001:0009b002       ?__scrt_initialize_type_info@@YAXXZ 1009c002 f   LIBCMT:tncleanup.obj
 0001:0009b00e       ?__scrt_uninitialize_type_info@@YAXXZ 1009c00e f   LIBCMT:tncleanup.obj
 0001:0009b020       __ftol3                    1009c020 f   LIBCMT:ftol3.obj
 0001:0009b090       __dtoul3                   1009c090 f   LIBCMT:ftol3.obj
 0001:0009b140       __dtoul3_legacy            1009c140 f   LIBCMT:ftol3.obj
 0001:0009b170       __dtol3                    1009c170 f   LIBCMT:ftol3.obj
 0001:0009b220       __ultod3                   1009c220 f   LIBCMT:ftol3.obj
 0001:0009b270       __ltod3                    1009c270 f   LIBCMT:ftol3.obj
 0001:0009b5f2       __DllMainCRTStartup@12     1009c5f2 f   LIBCMT:dll_dllmain.obj
 0001:0009b620       __SEH_prolog4              1009c620 f   LIBCMT:sehprolg4.obj
 0001:0009b665       @_guard_check_icall@4      1009c665 f i LIBCMT:checkcfg.obj
 0001:0009b66b       ___isa_available_init      1009c66b f   LIBCMT:cpu_disp.obj
 0001:0009b9a0       __FindPESection            1009c9a0 f   LIBCMT:pesect.obj
 0001:0009b9f0       __IsNonwritableInCurrentImage 1009c9f0 f   LIBCMT:pesect.obj
 0001:0009bab0       __ValidateImageBase        1009cab0 f   LIBCMT:pesect.obj
 0001:0009bae1       __EH_epilog3               1009cae1 f   LIBCMT:ehprolg3.obj
 0001:0009baf5       __EH_prolog3               1009caf5 f   LIBCMT:ehprolg3.obj
 0001:0009bb28       __EH_prolog3_catch         1009cb28 f   LIBCMT:ehprolg3.obj
 0001:0009bb60       __aulldvrm                 1009cb60 f   LIBCMT:ulldvrm.obj
 0001:0009bbf5       ___scrt_fastfail           1009cbf5 f   LIBCMT:utility_desktop.obj
 0001:0009bd0a       __crt_debugger_hook        1009cd0a f   LIBCMT:utility_desktop.obj
 0001:0009bd20       __aulldiv                  1009cd20 f   LIBCMT:ulldiv.obj
 0001:0009bd90       __aullrem                  1009cd90 f   LIBCMT:ullrem.obj
 0001:0009be05       ___raise_securityfailure   1009ce05 f   LIBCMT:gs_report.obj
 0001:0009be2d       ___report_gsfailure        1009ce2d f   LIBCMT:gs_report.obj
 0001:0009bf28       ___report_rangecheckfailure 1009cf28 f   LIBCMT:gs_report.obj
 0001:0009bf35       ___report_securityfailure  1009cf35 f   LIBCMT:gs_report.obj
 0001:0009c010       __alloca_probe             1009d010 f   LIBCMT:chkstk.obj
 0001:0009c010       __chkstk                   1009d010 f   LIBCMT:chkstk.obj
 0001:0009c040       __alloca_probe_16          1009d040 f   LIBCMT:alloca16.obj
 0001:0009c056       __alloca_probe_8           1009d056     LIBCMT:alloca16.obj
 0001:0009c070       __ftol2_sse                1009d070 f   LIBCMT:ftol2.obj
 0001:0009c080       __ftoi2                    1009d080 f   LIBCMT:ftol2.obj
 0001:0009c0fc       ?__scrt_throw_std_bad_array_new_length@@YAXXZ 1009d0fc f   LIBCMT:throw_bad_alloc.obj
 0001:0009c119       ___scrt_is_ucrt_dll_in_use 1009d119 f   LIBCMT:ucrt_detection.obj
 0001:0009c172       ___security_init_cookie    1009d172 f   LIBCMT:gs_support.obj
 0001:0009c1bd       _DllMain@12                1009d1bd f   LIBCMT:dll_dllmain_stub.obj
 0001:0009c1c3       ___local_stdio_scanf_options 1009d1c3 f i LIBCMT:default_local_stdio_options.obj
 0001:0009c1c9       ___scrt_initialize_default_local_stdio_options 1009d1c9 f   LIBCMT:default_local_stdio_options.obj
 0001:0009c1e6       ___scrt_get_dyn_tls_init_callback 1009d1e6 f   LIBCMT:dyn_tls_init.obj
 0001:0009c1ec       __RTC_Initialize           1009d1ec f   LIBCMT:initsect.obj
 0001:0009c218       __RTC_Terminate            1009d218 f   LIBCMT:initsect.obj
 0001:0009c244       _CryptProtectData@28       1009d244 f   Crypt32:CRYPT32.dll
 0001:0009c24a       _CryptUnprotectData@28     1009d24a f   Crypt32:CRYPT32.dll
 0001:0009c250       _memcmp                    1009d250 f   libvcruntime:memcmp.obj
 0001:0009d8d8       _wcschr                    1009e8d8 f   libvcruntime:wcschr.obj
 0001:0009d979       ___uncaught_exception      1009e979 f   libvcruntime:uncaught_exception.obj
 0001:0009d98d       ___vcrt_initialize         1009e98d f   libvcruntime:initialization.obj
 0001:0009d9ac       ___vcrt_thread_attach      1009e9ac f   libvcruntime:initialization.obj
 0001:0009d9b7       ___vcrt_thread_detach      1009e9b7 f   libvcruntime:initialization.obj
 0001:0009d9bf       ___vcrt_uninitialize       1009e9bf f   libvcruntime:initialization.obj
 0001:0009d9d6       ___vcrt_uninitialize_critical 1009e9d6 f   libvcruntime:initialization.obj
 0001:0009dc33       _setlocale                 1009ec33 f   libucrt:setlocale.obj
 0001:0009dc6b       __wcsdup                   1009ec6b f   libucrt:wcsdup.obj
 0001:0009de37       __fsopen                   1009ee37 f   libucrt:fopen.obj
 0001:0009de42       __wfsopen                  1009ee42 f   libucrt:fopen.obj
 0001:0009e0fe       ___acrt_allocate_buffer_for_argv 1009f0fe f   libucrt:argv_parsing.obj
 0001:0009e14d       __configure_narrow_argv    1009f14d f   libucrt:argv_parsing.obj
 0001:0009e253       ___acrt_initialize         1009f253 f   libucrt:initialization.obj
 0001:0009e265       ___acrt_thread_attach      1009f265 f   libucrt:initialization.obj
 0001:0009e270       ___acrt_thread_detach      1009f270 f   libucrt:initialization.obj
 0001:0009e278       ___acrt_uninitialize       1009f278 f   libucrt:initialization.obj
 0001:0009e2a8       ___acrt_uninitialize_critical 1009f2a8 f   libucrt:initialization.obj
 0001:0009e636       __wcstombs_s_l             1009f636 f   libucrt:wcstombs.obj
 0001:0009e674       ??$__acrt_stdio_parse_mode@D@@YA?AU__acrt_stdio_stream_mode@@QBD@Z 1009f674 f i libucrt:openfile.obj
 0001:0009e89e       ??$__acrt_stdio_parse_mode@_W@@YA?AU__acrt_stdio_stream_mode@@QB_W@Z 1009f89e f i libucrt:openfile.obj
 0001:0009ec0f       ?__acrt_stdio_parse_mode_D@@YA_NAAU__acrt_stdio_stream_mode@@@Z 1009fc0f f i libucrt:openfile.obj
 0001:0009ec2a       ?__acrt_stdio_parse_mode_T@@YA_NAAU__acrt_stdio_stream_mode@@@Z 1009fc2a f i libucrt:openfile.obj
 0001:0009ec49       ?__acrt_stdio_parse_mode_b@@YA_NAAU__acrt_stdio_stream_mode@@@Z 1009fc49 f i libucrt:openfile.obj
 0001:0009ec69       ?__acrt_stdio_parse_mode_c@@YA_NAAU__acrt_stdio_stream_mode@@AA_N@Z 1009fc69 f i libucrt:openfile.obj
 0001:0009ec8b       ?__acrt_stdio_parse_mode_n@@YA_NAAU__acrt_stdio_stream_mode@@AA_N@Z 1009fc8b f i libucrt:openfile.obj
 0001:0009ecad       ?__acrt_stdio_parse_mode_plus@@YA_NAAU__acrt_stdio_stream_mode@@AA_N@Z 1009fcad f i libucrt:openfile.obj
 0001:0009ece3       ?__acrt_stdio_parse_mode_t@@YA_NAAU__acrt_stdio_stream_mode@@@Z 1009fce3 f i libucrt:openfile.obj
 0001:0009ed03       ?__acrt_stdio_parse_mode_x@@YA_NAAU__acrt_stdio_stream_mode@@@Z 1009fd03 f i libucrt:openfile.obj
 0001:0009ed23       __openfile                 1009fd23 f   libucrt:openfile.obj
 0001:0009ed2e       __wopenfile                1009fd2e f   libucrt:openfile.obj
 0001:0009ed51       ??$__acrt_convert_wcs_mbs_cp@_WDV<lambda_28bda7af82a03b66c1cb3803a755f95d>@@U__crt_win32_buffer_internal_dynamic_resizing@@@@YAHQB_WAAV?$__crt_win32_buffer@DU__crt_win32_buffer_internal_dynamic_resizing@@@@ABV<lambda_28bda7af82a03b66c1cb3803a755f95d>@@I@Z 1009fd51 f i libucrt:argv_wildcards.obj
 0001:0009f2ef       ?allocate@?$__crt_win32_buffer@DU__crt_win32_buffer_internal_dynamic_resizing@@@@QAEHI@Z 100a02ef f i libucrt:argv_wildcards.obj
 0001:0009f3b2       ___acrt_expand_narrow_argv_wildcards 100a03b2 f   libucrt:argv_wildcards.obj
 0001:0009f3bd       ___acrt_GetModuleFileNameA 100a03bd f   libucrt:getmodulefilenamea.obj
 0001:0009f4ae       __ismbblead                100a04ae f   libucrt:ismbbyte.obj
 0001:0009f4c6       ___acrt_initialize_command_line 100a04c6 f   libucrt:argv_data.obj
 0001:0009f4df       ___acrt_execute_initializers 100a04df f   libucrt:shared_initialization.obj
 0001:0009f547       ___acrt_execute_uninitializers 100a0547 f   libucrt:shared_initialization.obj
 0001:0009f578       ?__wcsrtombs_utf8@__crt_mbstring@@YAIPADPAPB_WIPAU_Mbstatet@@AAV__crt_cached_ptd_host@@@Z 100a0578 f   libucrt:wcrtomb.obj
 0001:0009fd4c       __sopen_nolock             100a0d4c f   libucrt:open.obj
 0001:0009fdba       __sopen_s                  100a0dba f   libucrt:open.obj
 0001:0009fdda       __wsopen_nolock            100a0dda f   libucrt:open.obj
 0001:000a0104       __wsopen_s                 100a1104 f   libucrt:open.obj
 0001:000a0130       _qsort                     100a1130 f   libucrt:qsort.obj
 0001:000a061e       __mbsdec                   100a161e f   libucrt:mbsdec.obj
 0001:000a0635       __mbsdec_l                 100a1635 f   libucrt:mbsdec.obj
 0001:000a06c2       ?__c16rtomb_utf8@__crt_mbstring@@YAIPAD_SPAU_Mbstatet@@AAV__crt_cached_ptd_host@@@Z 100a16c2 f   libucrt:c16rtomb.obj
 0001:000a076c       __get_fmode                100a176c f   libucrt:setmode.obj
 0001:000a0799       __setmode_nolock           100a1799 f   libucrt:setmode.obj
 0001:000a0868       ??0__crt_seek_guard@@QAE@H_J@Z 100a1868 f i libucrt:chsize.obj
 0001:000a08b5       __chsize_nolock            100a18b5 f   libucrt:chsize.obj
 0001:000a08ec       __chsize_nolock_internal   100a18ec f   libucrt:chsize.obj
 0001:000a0a83       ___acrt_initialize_fmode   100a1a83 f   libucrt:txtmode.obj
 0001:000a0a99       __filter_x86_sse2_floating_point_exception 100a1a99 f   LIBCMT:x86_exception_filter.obj
 0001:000a0a99       __filter_x86_sse2_floating_point_exception_default 100a1a99 f   LIBCMT:x86_exception_filter.obj
 0002:00000000       __imp__CryptProtectData@28 100aa000     Crypt32:CRYPT32.dll
 0002:00000004       __imp__CryptBinaryToStringA@20 100aa004     Crypt32:CRYPT32.dll
 0002:00000008       __imp__CryptStringToBinaryA@28 100aa008     Crypt32:CRYPT32.dll
 0002:0000000c       __imp__CryptUnprotectData@28 100aa00c     Crypt32:CRYPT32.dll
 0002:00000010       \177CRYPT32_NULL_THUNK_DATA 100aa010     Crypt32:CRYPT32.dll
 0002:00000014       __imp__OutputDebugStringA@4 100aa014     kernel32:KERNEL32.dll
 0002:00000018       __imp__CloseHandle@4       100aa018     kernel32:KERNEL32.dll
 0002:0000001c       __imp__DuplicateHandle@28  100aa01c     kernel32:KERNEL32.dll
 0002:00000020       __imp__GetLastError@0      100aa020     kernel32:KERNEL32.dll
 0002:00000024       __imp__Sleep@4             100aa024     kernel32:KERNEL32.dll
 0002:00000028       __imp__GetCurrentProcess@0 100aa028     kernel32:KERNEL32.dll
 0002:0000002c       __imp__GetCurrentProcessId@0 100aa02c     kernel32:KERNEL32.dll
 0002:00000030       __imp__GetCurrentThread@0  100aa030     kernel32:KERNEL32.dll
 0002:00000034       __imp__GetCurrentThreadId@0 100aa034     kernel32:KERNEL32.dll
 0002:00000038       __imp__OpenThread@12       100aa038     kernel32:KERNEL32.dll
 0002:0000003c       __imp__SuspendThread@4     100aa03c     kernel32:KERNEL32.dll
 0002:00000040       __imp__ResumeThread@4      100aa040     kernel32:KERNEL32.dll
 0002:00000044       __imp__GetProcessIdOfThread@4 100aa044     kernel32:KERNEL32.dll
 0002:00000048       __imp__GetThreadContext@8  100aa048     kernel32:KERNEL32.dll
 0002:0000004c       __imp__FlushInstructionCache@12 100aa04c     kernel32:KERNEL32.dll
 0002:00000050       __imp__OpenProcess@12      100aa050     kernel32:KERNEL32.dll
 0002:00000054       __imp__GetSystemInfo@4     100aa054     kernel32:KERNEL32.dll
 0002:00000058       __imp__VirtualQuery@12     100aa058     kernel32:KERNEL32.dll
 0002:0000005c       __imp__VirtualAllocEx@20   100aa05c     kernel32:KERNEL32.dll
 0002:00000060       __imp__VirtualProtectEx@20 100aa060     kernel32:KERNEL32.dll
 0002:00000064       __imp__VirtualQueryEx@16   100aa064     kernel32:KERNEL32.dll
 0002:00000068       __imp__ReadProcessMemory@20 100aa068     kernel32:KERNEL32.dll
 0002:0000006c       __imp__WriteProcessMemory@20 100aa06c     kernel32:KERNEL32.dll
 0002:00000070       __imp__VirtualFreeEx@16    100aa070     kernel32:KERNEL32.dll
 0002:00000074       __imp__IsWow64Process@8    100aa074     kernel32:KERNEL32.dll
 0002:00000078       __imp__CreateToolhelp32Snapshot@8 100aa078     kernel32:KERNEL32.dll
 0002:0000007c       __imp__Thread32First@8     100aa07c     kernel32:KERNEL32.dll
 0002:00000080       __imp__Thread32Next@8      100aa080     kernel32:KERNEL32.dll
 0002:00000084       __imp__VirtualProtect@16   100aa084     kernel32:KERNEL32.dll
 0002:00000088       __imp__GetEnvironmentVariableA@12 100aa088     kernel32:KERNEL32.dll
 0002:0000008c       __imp__CreateDirectoryW@8  100aa08c     kernel32:KERNEL32.dll
 0002:00000090       __imp__DeleteFileW@4       100aa090     kernel32:KERNEL32.dll
 0002:00000094       __imp__GetFileAttributesW@4 100aa094     kernel32:KERNEL32.dll
 0002:00000098       __imp__GetFullPathNameW@16 100aa098     kernel32:KERNEL32.dll
 0002:0000009c       __imp__LocalFree@4         100aa09c     kernel32:KERNEL32.dll
 0002:000000a0       __imp__MoveFileExW@12      100aa0a0     kernel32:KERNEL32.dll
 0002:000000a4       __imp__MultiByteToWideChar@24 100aa0a4     kernel32:KERNEL32.dll
 0002:000000a8       __imp__WideCharToMultiByte@32 100aa0a8     kernel32:KERNEL32.dll
 0002:000000ac       __imp__RaiseException@16   100aa0ac     kernel32:KERNEL32.dll
 0002:000000b0       __imp__RtlUnwind@16        100aa0b0     kernel32:KERNEL32.dll
 0002:000000b4       __imp__InterlockedPushEntrySList@8 100aa0b4     kernel32:KERNEL32.dll
 0002:000000b8       __imp__InterlockedFlushSList@4 100aa0b8     kernel32:KERNEL32.dll
 0002:000000bc       __imp__SetLastError@4      100aa0bc     kernel32:KERNEL32.dll
 0002:000000c0       __imp__EncodePointer@4     100aa0c0     kernel32:KERNEL32.dll
 0002:000000c4       __imp__InitializeCriticalSectionAndSpinCount@8 100aa0c4     kernel32:KERNEL32.dll
 0002:000000c8       __imp__TlsAlloc@0          100aa0c8     kernel32:KERNEL32.dll
 0002:000000cc       __imp__TlsGetValue@4       100aa0cc     kernel32:KERNEL32.dll
 0002:000000d0       __imp__TlsSetValue@8       100aa0d0     kernel32:KERNEL32.dll
 0002:000000d4       __imp__TlsFree@4           100aa0d4     kernel32:KERNEL32.dll
 0002:000000d8       __imp__FreeLibrary@4       100aa0d8     kernel32:KERNEL32.dll
 0002:000000dc       __imp__GetProcAddress@8    100aa0dc     kernel32:KERNEL32.dll
 0002:000000e0       __imp__LoadLibraryExW@12   100aa0e0     kernel32:KERNEL32.dll
 0002:000000e4       __imp__EnterCriticalSection@4 100aa0e4     kernel32:KERNEL32.dll
 0002:000000e8       __imp__SetFileAttributesA@8 100aa0e8     kernel32:KERNEL32.dll
 0002:000000ec       __imp__DeleteCriticalSection@4 100aa0ec     kernel32:KERNEL32.dll
 0002:000000f0       __imp__IsDebuggerPresent@0 100aa0f0     kernel32:KERNEL32.dll
 0002:000000f4       __imp__UnhandledExceptionFilter@4 100aa0f4     kernel32:KERNEL32.dll
 0002:000000f8       __imp__SetUnhandledExceptionFilter@4 100aa0f8     kernel32:KERNEL32.dll
 0002:000000fc       __imp__TerminateProcess@8  100aa0fc     kernel32:KERNEL32.dll
 0002:00000100       __imp__IsProcessorFeaturePresent@4 100aa100     kernel32:KERNEL32.dll
 0002:00000104       __imp__HeapAlloc@12        100aa104     kernel32:KERNEL32.dll
 0002:00000108       __imp__HeapFree@12         100aa108     kernel32:KERNEL32.dll
 0002:0000010c       __imp__GetSystemTimeAsFileTime@4 100aa10c     kernel32:KERNEL32.dll
 0002:00000110       __imp__GetDateFormatW@24   100aa110     kernel32:KERNEL32.dll
 0002:00000114       __imp__GetTimeFormatW@24   100aa114     kernel32:KERNEL32.dll
 0002:00000118       __imp__CompareStringW@24   100aa118     kernel32:KERNEL32.dll
 0002:0000011c       __imp__LCMapStringW@24     100aa11c     kernel32:KERNEL32.dll
 0002:00000120       __imp__GetLocaleInfoW@16   100aa120     kernel32:KERNEL32.dll
 0002:00000124       __imp__IsValidLocale@8     100aa124     kernel32:KERNEL32.dll
 0002:00000128       __imp__GetUserDefaultLCID@0 100aa128     kernel32:KERNEL32.dll
 0002:0000012c       __imp__EnumSystemLocalesW@8 100aa12c     kernel32:KERNEL32.dll
 0002:00000130       __imp__GetStdHandle@4      100aa130     kernel32:KERNEL32.dll
 0002:00000134       __imp__GetFileType@4       100aa134     kernel32:KERNEL32.dll
 0002:00000138       __imp__GetStartupInfoW@4   100aa138     kernel32:KERNEL32.dll
 0002:0000013c       __imp__FlushFileBuffers@4  100aa13c     kernel32:KERNEL32.dll
 0002:00000140       __imp__WriteFile@20        100aa140     kernel32:KERNEL32.dll
 0002:00000144       __imp__GetConsoleOutputCP@0 100aa144     kernel32:KERNEL32.dll
 0002:00000148       __imp__GetConsoleMode@8    100aa148     kernel32:KERNEL32.dll
 0002:0000014c       __imp__ReadFile@20         100aa14c     kernel32:KERNEL32.dll
 0002:00000150       __imp__GetFileSizeEx@8     100aa150     kernel32:KERNEL32.dll
 0002:00000154       __imp__SetFilePointerEx@20 100aa154     kernel32:KERNEL32.dll
 0002:00000158       __imp__ReadConsoleW@20     100aa158     kernel32:KERNEL32.dll
 0002:0000015c       __imp__ExitProcess@4       100aa15c     kernel32:KERNEL32.dll
 0002:00000160       __imp__GetModuleHandleW@4  100aa160     kernel32:KERNEL32.dll
 0002:00000164       __imp__GetModuleHandleExW@12 100aa164     kernel32:KERNEL32.dll
 0002:00000168       __imp__GetTimeZoneInformation@4 100aa168     kernel32:KERNEL32.dll
 0002:0000016c       __imp__DecodePointer@4     100aa16c     kernel32:KERNEL32.dll
 0002:00000170       __imp__IsValidCodePage@4   100aa170     kernel32:KERNEL32.dll
 0002:00000174       __imp__GetACP@0            100aa174     kernel32:KERNEL32.dll
 0002:00000178       __imp__GetOEMCP@0          100aa178     kernel32:KERNEL32.dll
 0002:0000017c       __imp__GetCPInfo@8         100aa17c     kernel32:KERNEL32.dll
 0002:00000180       __imp__GetStringTypeW@16   100aa180     kernel32:KERNEL32.dll
 0002:00000184       __imp__GetProcessHeap@0    100aa184     kernel32:KERNEL32.dll
 0002:00000188       __imp__SetStdHandle@8      100aa188     kernel32:KERNEL32.dll
 0002:0000018c       __imp__GetModuleFileNameW@12 100aa18c     kernel32:KERNEL32.dll
 0002:00000190       __imp__CreateFileW@28      100aa190     kernel32:KERNEL32.dll
 0002:00000194       __imp__WriteConsoleW@20    100aa194     kernel32:KERNEL32.dll
 0002:00000198       __imp__HeapSize@12         100aa198     kernel32:KERNEL32.dll
 0002:0000019c       __imp__HeapReAlloc@16      100aa19c     kernel32:KERNEL32.dll
 0002:000001a0       __imp__GetEnvironmentStringsW@0 100aa1a0     kernel32:KERNEL32.dll
 0002:000001a4       __imp__FreeEnvironmentStringsW@4 100aa1a4     kernel32:KERNEL32.dll
 0002:000001a8       __imp__SetEnvironmentVariableW@8 100aa1a8     kernel32:KERNEL32.dll
 0002:000001ac       __imp__GetCommandLineW@0   100aa1ac     kernel32:KERNEL32.dll
 0002:000001b0       __imp__GetCommandLineA@0   100aa1b0     kernel32:KERNEL32.dll
 0002:000001b4       __imp__FindNextFileW@8     100aa1b4     kernel32:KERNEL32.dll
 0002:000001b8       __imp__GetFileAttributesA@4 100aa1b8     kernel32:KERNEL32.dll
 0002:000001bc       __imp__DeleteFileA@4       100aa1bc     kernel32:KERNEL32.dll
 0002:000001c0       __imp__CreateFileA@28      100aa1c0     kernel32:KERNEL32.dll
 0002:000001c4       __imp__LeaveCriticalSection@4 100aa1c4     kernel32:KERNEL32.dll
 0002:000001c8       __imp__CreateDirectoryA@8  100aa1c8     kernel32:KERNEL32.dll
 0002:000001cc       __imp__InitOnceBeginInitialize@16 100aa1cc     kernel32:KERNEL32.dll
 0002:000001cc       __imp____std_init_once_begin_initialize@16 100aa1cc     kernel32:KERNEL32.dll
 0002:000001d0       __imp__InitOnceComplete@12 100aa1d0     kernel32:KERNEL32.dll
 0002:000001d0       __imp____std_init_once_complete@12 100aa1d0     kernel32:KERNEL32.dll
 0002:000001d4       __imp__QueryPerformanceCounter@4 100aa1d4     kernel32:KERNEL32.dll
 0002:000001d8       __imp__QueryPerformanceFrequency@4 100aa1d8     kernel32:KERNEL32.dll
 0002:000001dc       __imp__InitializeCriticalSectionEx@12 100aa1dc     kernel32:KERNEL32.dll
 0002:000001e0       __imp__LCMapStringEx@36    100aa1e0     kernel32:KERNEL32.dll
 0002:000001e4       __imp__ReleaseSRWLockExclusive@4 100aa1e4     kernel32:KERNEL32.dll
 0002:000001e8       __imp__AcquireSRWLockExclusive@4 100aa1e8     kernel32:KERNEL32.dll
 0002:000001ec       __imp__WakeAllConditionVariable@4 100aa1ec     kernel32:KERNEL32.dll
 0002:000001f0       __imp__SleepConditionVariableSRW@16 100aa1f0     kernel32:KERNEL32.dll
 0002:000001f4       __imp__InitializeSListHead@4 100aa1f4     kernel32:KERNEL32.dll
 0002:000001f8       __imp__FindClose@4         100aa1f8     kernel32:KERNEL32.dll
 0002:000001fc       __imp__FindFirstFileExW@24 100aa1fc     kernel32:KERNEL32.dll
 0002:00000200       __imp__SetEndOfFile@4      100aa200     kernel32:KERNEL32.dll
 0002:00000204       \177KERNEL32_NULL_THUNK_DATA 100aa204     kernel32:KERNEL32.dll
 0002:00000208       __imp__MessageBoxA@16      100aa208     user32:USER32.dll
 0002:0000020c       \177USER32_NULL_THUNK_DATA 100aa20c     user32:USER32.dll
 0002:00000210       ___guard_check_icall_fptr  100aa210     libucrt:guard_support.obj
 0002:00000214       ___castguard_check_failure_os_handled_fptr 100aa214     libucrt:guard_support.obj
 0002:00000218       ___xc_a                    100aa218     LIBCMT:initializers.obj
 0002:000003c0       ___xc_z                    100aa3c0     LIBCMT:initializers.obj
 0002:000003c4       ___xi_a                    100aa3c4     LIBCMT:initializers.obj
 0002:000003c8       ___acrt_stdio_initializer  100aa3c8     libucrt:stdio_initializer.obj
 0002:000003cc       ___acrt_timeset_initializer 100aa3cc     libucrt:timeset_initializer.obj
 0002:000003d0       ___acrt_tran_sse2_initializer 100aa3d0     libucrt:sse2_initializer.obj
 0002:000003d4       ___acrt_multibyte_initializer 100aa3d4     libucrt:multibyte_initializer.obj
 0002:000003dc       ___acrt_fmode_initializer  100aa3dc     libucrt:fmode_initializer.obj
 0002:000003e0       ___xi_z                    100aa3e0     LIBCMT:initializers.obj
 0002:000003e4       ___xl_a                    100aa3e4     LIBCMT:tlssup.obj
 0002:000003e8       ___xl_z                    100aa3e8     LIBCMT:tlssup.obj
 0002:000003ec       ___xp_a                    100aa3ec     LIBCMT:initializers.obj
 0002:000003f0       ___acrt_locale_terminator  100aa3f0     libucrt:locale_initializer.obj
 0002:000003f4       ___dcrt_console_output_terminator 100aa3f4     libucrt:console_output_initializer.obj
 0002:000003f8       ___acrt_stdio_terminator   100aa3f8     libucrt:stdio_initializer.obj
 0002:000003fc       ___xp_z                    100aa3fc     LIBCMT:initializers.obj
 0002:00000400       ___xt_a                    100aa400     LIBCMT:initializers.obj
 0002:00000404       ___xt_z                    100aa404     LIBCMT:initializers.obj
 0002:00000428       ??_7exception@std@@6B@     100aa428     logging.cpp.obj
 0002:00000430       ??_C@_0BC@EOODALEL@Unknown?5exception@ 100aa430     logging.cpp.obj
 0002:00000448       ??_7bad_alloc@std@@6B@     100aa448     logging.cpp.obj
 0002:00000454       ??_7bad_array_new_length@std@@6B@ 100aa454     logging.cpp.obj
 0002:0000045c       ??_C@_0BF@KINCDENJ@bad?5array?5new?5length@ 100aa45c     logging.cpp.obj
 0002:00000474       ??_C@_0BA@JFNIOLAK@string?5too?5long@ 100aa474     logging.cpp.obj
 0002:00000488       ??_7runtime_error@std@@6B@ 100aa488     logging.cpp.obj
 0002:00000494       ??_7_System_error@std@@6B@ 100aa494     logging.cpp.obj
 0002:0000049c       ??_C@_02LMMGGCAJ@?3?5@     100aa49c     logging.cpp.obj
 0002:000004a4       ??_7system_error@std@@6B@  100aa4a4     logging.cpp.obj
 0002:000004b0       ??_7_Iostream_error_category2@std@@6B@ 100aa4b0     logging.cpp.obj
 0002:000004c8       ??_C@_08LLGCOLLL@iostream@ 100aa4c8     logging.cpp.obj
 0002:000004d4       ?_Iostream_error@?4??message@_Iostream_error_category2@std@@UBE?AV?$basic_string@DU?$char_traits@D@std@@V?$allocator@D@2@@3@H@Z@4QBDB 100aa4d4     logging.cpp.obj
 0002:000004f0       ??_7bad_cast@std@@6B@      100aa4f0     logging.cpp.obj
 0002:000004f8       ??_C@_08EPJLHIJG@bad?5cast@ 100aa4f8     logging.cpp.obj
 0002:00000508       ??_7_Facet_base@std@@6B@   100aa508     logging.cpp.obj
 0002:00000514       ??_C@_0BA@ELKIONDK@bad?5locale?5name@ 100aa514     logging.cpp.obj
 0002:00000524       ??_C@_00CNPNBAHC@@         100aa524     logging.cpp.obj
 0002:0000052c       ??_7?$ctype@D@std@@6B@     100aa52c     logging.cpp.obj
 0002:0000055c       ??_7failure@ios_base@std@@6B@ 100aa55c     logging.cpp.obj
 0002:00000568       ??_7ios_base@std@@6B@      100aa568     logging.cpp.obj
 0002:0000056c       ??_C@_0BF@PHHKMMFD@ios_base?3?3badbit?5set@ 100aa56c     logging.cpp.obj
 0002:00000584       ??_C@_0BG@FMKFHCIL@ios_base?3?3failbit?5set@ 100aa584     logging.cpp.obj
 0002:0000059c       ??_C@_0BF@OOHOMBOF@ios_base?3?3eofbit?5set@ 100aa59c     logging.cpp.obj
 0002:000005b8       ??_7?$basic_ios@DU?$char_traits@D@std@@@std@@6B@ 100aa5b8     logging.cpp.obj
 0002:000005c0       ??_7?$basic_ostream@DU?$char_traits@D@std@@@std@@6B@ 100aa5c0     logging.cpp.obj
 0002:000005c4       ??_8?$basic_ostream@DU?$char_traits@D@std@@@std@@7B@ 100aa5c4     logging.cpp.obj
 0002:000005d0       ??_7?$basic_streambuf@DU?$char_traits@D@std@@@std@@6B@ 100aa5d0     logging.cpp.obj
 0002:00000610       ??_7?$basic_filebuf@DU?$char_traits@D@std@@@std@@6B@ 100aa610     logging.cpp.obj
 0002:00000650       ??_7?$basic_ofstream@DU?$char_traits@D@std@@@std@@6B@ 100aa650     logging.cpp.obj
 0002:00000654       ??_8?$basic_ofstream@DU?$char_traits@D@std@@@std@@7B@ 100aa654     logging.cpp.obj
 0002:00000660       ??_7?$codecvt@DDU_Mbstatet@@@std@@6B@ 100aa660     logging.cpp.obj
 0002:00000688       ??_C@_0BI@CFPLBAOH@invalid?5string?5position@ 100aa688     logging.cpp.obj
 0002:000006a8       ??_7bad_exception@std@@6B@ 100aa6a8     main.cpp.obj
 0002:000006b0       ??_C@_0O@DPKOEFFH@bad?5exception@ 100aa6b0     main.cpp.obj
 0002:000006c0       ??_C@_0P@GHFPNOJB@bad?5allocation@ 100aa6c0     main.cpp.obj
 0002:000006d0       ??_C@_05LAPONLG@false@     100aa6d0     main.cpp.obj
 0002:000006d8       ??_C@_04LOAJBDKD@true@     100aa6d8     main.cpp.obj
 0002:000006e0       ??_C@_0BG@OFLLLHIE@invalid?5stof?5argument@ 100aa6e0     main.cpp.obj
 0002:000006f8       ??_C@_0BL@CGEIMNKL@stof?5argument?5out?5of?5range@ 100aa6f8     main.cpp.obj
 0002:00000714       ??_C@_02NJPGOMH@?$CFf@     100aa714     main.cpp.obj
 0002:00000718       ??_C@_0BB@GCADKGJO@map?1set?5too?5long@ 100aa718     main.cpp.obj
 0002:00000730       ??_7error_info_container@exception_detail@boost@@6B@ 100aa730     main.cpp.obj
 0002:0000074c       ??_7exception@boost@@6B@   100aa74c     main.cpp.obj
 0002:00000754       ??_7clone_base@exception_detail@boost@@6B@ 100aa754     main.cpp.obj
 0002:00000764       ??_7error_info_base@exception_detail@boost@@6B@ 100aa764     main.cpp.obj
 0002:00000774       ??_7sp_counted_base@detail@boost@@6B@ 100aa774     main.cpp.obj
 0002:00000790       ??_7error_info_container_impl@exception_detail@boost@@6B@ 100aa790     main.cpp.obj
 0002:000007ac       ??_7?$basic_stringbuf@DU?$char_traits@D@std@@V?$allocator@D@2@@std@@6B@ 100aa7ac     main.cpp.obj
 0002:000007ec       ??_7?$basic_ostringstream@DU?$char_traits@D@std@@V?$allocator@D@2@@std@@6B@ 100aa7ec     main.cpp.obj
 0002:000007f0       ??_8?$basic_ostringstream@DU?$char_traits@D@std@@V?$allocator@D@2@@std@@7B@ 100aa7f0     main.cpp.obj
 0002:000007f8       ??_C@_0CF@CFFMGBAP@No?5diagnostic?5information?5avail@ 100aa7f8     main.cpp.obj
 0002:00000820       ??_C@_0BD@OKEHHCDP@Unknown?5exception?4@ 100aa820     main.cpp.obj
 0002:00000834       ??_C@_0DP@GHFCDMCB@Throw?5location?5unknown?5?$CIconside@ 100aa834     main.cpp.obj
 0002:00000874       ??_C@_03LPPJIELD@?$CJ?3?5@ 100aa874     main.cpp.obj
 0002:00000878       ??_C@_0BD@FCCHBKHG@Throw?5in?5function?5@ 100aa878     main.cpp.obj
 0002:0000088c       ??_C@_09GPGAJHPD@?$CIunknown?$CJ@ 100aa88c     main.cpp.obj
 0002:00000898       ??_C@_0BJ@GCNBPHBB@Dynamic?5exception?5type?3?5@ 100aa898     main.cpp.obj
 0002:000008b4       ??_C@_06OJHGLDPL@?$CInull?$CJ@ 100aa8b4     main.cpp.obj
 0002:000008bc       ??_C@_0BH@IJDPHMMC@std?3?3exception?3?3what?3?5@ 100aa8bc     main.cpp.obj
 0002:000008d4       ??_C@_04OAFLPOMH@?$FN?5?$DN?5@ 100aa8d4     main.cpp.obj
 0002:000008e0       ??_7bad_alloc_@exception_detail@boost@@6Bexception@2@@ 100aa8e0     main.cpp.obj
 0002:000008e8       ??_7bad_alloc_@exception_detail@boost@@6Bbad_alloc@std@@@ 100aa8e8     main.cpp.obj
 0002:000008f4       ??_7bad_exception_@exception_detail@boost@@6Bexception@2@@ 100aa8f4     main.cpp.obj
 0002:000008fc       ??_7bad_exception_@exception_detail@boost@@6Bbad_exception@std@@@ 100aa8fc     main.cpp.obj
 0002:00000908       ??_7Error@hadesmem@@6Bexception@std@@@ 100aa908     main.cpp.obj
 0002:00000914       ??_7Error@hadesmem@@6Bexception@boost@@@ 100aa914     main.cpp.obj
 0002:00000918       ??_8Error@hadesmem@@7B@    100aa918     main.cpp.obj
 0002:00000928       ??_7?$error_info@UTagErrorString@hadesmem@@V?$basic_string@DU?$char_traits@D@std@@V?$allocator@D@2@@std@@@boost@@6B@ 100aa928     main.cpp.obj
 0002:00000938       ??_7?$error_info@UTagErrorCodeWinLast@hadesmem@@K@boost@@6B@ 100aa938     main.cpp.obj
 0002:00000944       ??_C@_0O@LHJCBCAJ@?$FL?$CFlu?$FN?5?$CFs?3?5?$CFs?6@ 100aa944     main.cpp.obj
 0002:00000954       ??_C@_0P@DMJNBGBJ@IsWoW64Process@ 100aa954     main.cpp.obj
 0002:00000968       ??_C@_0FC@HMKIBJE@C?3?2software?2hadesmem?9v142?9Relea@ 100aa968     main.cpp.obj
 0002:000009bc       ??_C@_0BH@CAHPBGBP@IsWoW64Process?5failed?4@ 100aa9bc     main.cpp.obj
 0002:000009d4       ??_C@_0M@MMCMKPDL@OpenProcess@ 100aa9d4     main.cpp.obj
 0002:000009e0       ??_C@_0BE@LHGDOJMK@OpenProcess?5failed?4@ 100aa9e0     main.cpp.obj
 0002:000009f4       ??_C@_0L@EHKLHJ@OpenThread@ 100aa9f4     main.cpp.obj
 0002:00000a00       ??_C@_0BD@GGECPCAK@OpenThread?5failed?4@ 100aaa00     main.cpp.obj
 0002:00000a14       ??_C@_0BA@KKBHKMMH@DuplicateHandle@ 100aaa14     main.cpp.obj
 0002:00000a24       ??_C@_0BI@FGIAIHNB@DuplicateHandle?5failed?4@ 100aaa24     main.cpp.obj
 0002:00000a3c       ??_C@_0L@BPDMILMI@CheckWoW64@ 100aaa3c     main.cpp.obj
 0002:00000a48       ??_C@_0EM@FPGLKILF@C?3?2software?2hadesmem?9v142?9Relea@ 100aaa48     main.cpp.obj
 0002:00000a94       ??_C@_0CN@CIONBDMF@x86?5?9?$DO?5x64?5process?5modification@ 100aaa94     main.cpp.obj
 0002:00000ac4       ??_C@_02DKCKIIND@?$CFs@    100aaac4     main.cpp.obj
 0002:00000ac8       ??_C@_0CE@NLAKHOBH@hadesmem?3?3Process?3?3CleanupUnche@ 100aaac8     main.cpp.obj
 0002:00000aec       ??_C@_05KKFAOBBL@Alloc@    100aaaec     main.cpp.obj
 0002:00000af8       ??_C@_0EK@ILAEBCGD@C?3?2software?2hadesmem?9v142?9Relea@ 100aaaf8     main.cpp.obj
 0002:00000b44       ??_C@_0BH@PKAGPCAJ@VirtualAllocEx?5failed?4@ 100aab44     main.cpp.obj
 0002:00000b5c       ??_C@_04HJMOFLDF@Free@     100aab5c     main.cpp.obj
 0002:00000b64       ??_C@_0BG@MMIHDGBH@VirtualFreeEx?5failed?4@ 100aab64     main.cpp.obj
 0002:00000b7c       ??_C@_0CD@GFAOAFIL@hadesmem?3?3Allocator?3?3FreeUnchec@ 100aab7c     main.cpp.obj
 0002:00000ba0       ??_C@_0CD@LNPEPGDL@hadesmem?3?3Thread?3?3CleanupUnchec@ 100aaba0     main.cpp.obj
 0002:00000bc4       ??_C@_0BJ@JEFKDHMD@CreateToolhelp32Snapshot@ 100aabc4     main.cpp.obj
 0002:00000be0       ??_C@_0FE@PMPDGIMA@C?3?2software?2hadesmem?9v142?9Relea@ 100aabe0     main.cpp.obj
 0002:00000c34       ??_C@_0CB@JCNCLELI@CreateToolhelp32Snapshot?5failed@ 100aac34     main.cpp.obj
 0002:00000c58       ??_C@_0BG@CIDIKHKO@Thread32First?5failed?4@ 100aac58     main.cpp.obj
 0002:00000c70       ??_C@_0BF@OOLHIKFH@Thread32Next?5failed?4@ 100aac70     main.cpp.obj
 0002:00000c88       ??_C@_0BB@MBPKHMON@GetThreadContext@ 100aac88     main.cpp.obj
 0002:00000ca0       ??_C@_0FD@GFMGBNPP@C?3?2software?2hadesmem?9v142?9Relea@ 100aaca0     main.cpp.obj
 0002:00000cf4       ??_C@_0CM@PMFHKMCF@GetThreadContext?5called?5for?5cur@ 100aacf4     main.cpp.obj
 0002:00000d20       ??_C@_0BJ@NBMNLEAK@GetThreadContext?5failed?4@ 100aad20     main.cpp.obj
 0002:00000d3c       ??_C@_0O@HMJOGGOE@SuspendThread@ 100aad3c     main.cpp.obj
 0002:00000d4c       ??_C@_0BG@HGBOONEI@SuspendThread?5failed?4@ 100aad4c     main.cpp.obj
 0002:00000d64       ??_C@_0N@JPHIGJOE@ResumeThread@ 100aad64     main.cpp.obj
 0002:00000d74       ??_C@_0BF@CPDPNIDB@ResumeThread?5failed?4@ 100aad74     main.cpp.obj
 0002:00000d8c       ??_C@_0CL@NOFNLPJH@hadesmem?3?3SuspendedThread?3?3Resu@ 100aad8c     main.cpp.obj
 0002:00000db8       ??_C@_0EB@CHHFMIFP@WARNING?$CB?5Error?5while?5suspending@ 100aadb8     main.cpp.obj
 0002:00000dfc       ??_C@_0CN@OAFEMMLD@hadesmem?3?3SuspendedProcess?3?3Sus@ 100aadfc     main.cpp.obj
 0002:00000e2c       ??_C@_0BB@CEKDJBHG@SuspendedProcess@ 100aae2c     main.cpp.obj
 0002:00000e40       ??_C@_0DN@FMFFEHNA@Failed?5to?5suspend?5all?5threads?5i@ 100aae40     main.cpp.obj
 0002:00000e80       ??_C@_09OJCFAFOB@VerifyPid@ 100aae80     main.cpp.obj
 0002:00000e8c       ??_C@_0BN@EEJAIICA@GetProcessIdOfThread?5failed?4@ 100aae8c     main.cpp.obj
 0002:00000eac       ??_C@_0BJ@PHFJBNAN@PID?5verification?5failed?4@ 100aaeac     main.cpp.obj
 0002:00000ec8       ??_C@_0BG@JNMEKNNO@FlushInstructionCache@ 100aaec8     main.cpp.obj
 0002:00000ee0       ??_C@_0EK@MAJFCFGD@C?3?2software?2hadesmem?9v142?9Relea@ 100aaee0     main.cpp.obj
 0002:00000f2c       ??_C@_0BO@BEKIKMHC@FlushInstructionCache?5failed?4@ 100aaf2c     main.cpp.obj
 0002:00000f4c       ??_C@_07EMMGCHGI@Protect@  100aaf4c     main.cpp.obj
 0002:00000f58       ??_C@_0FK@CJDMOKGD@C?3?2software?2hadesmem?9v142?9Relea@ 100aaf58     main.cpp.obj
 0002:00000fb4       ??_C@_0BJ@GOHMJHGO@VirtualProtectEx?5failed?4@ 100aafb4     main.cpp.obj
 0002:00000fd0       ??_C@_05BNKNJDAB@Query@    100aafd0     main.cpp.obj
 0002:00000fd8       ??_C@_0FI@NAPLGFGJ@C?3?2software?2hadesmem?9v142?9Relea@ 100aafd8     main.cpp.obj
 0002:00001030       ??_C@_0BH@JFGDHIMO@VirtualQueryEx?5failed?4@ 100ab030     main.cpp.obj
 0002:00001048       ??_C@_0N@KLFIJGGA@ProtectGuard@ 100ab048     main.cpp.obj
 0002:00001058       ??_C@_0FJ@OFKJBOII@C?3?2software?2hadesmem?9v142?9Relea@ 100ab058     main.cpp.obj
 0002:000010b4       ??_C@_0DF@BAHJNPFD@Attempt?5to?5access?5page?5with?5a?5?8@ 100ab0b4     main.cpp.obj
 0002:000010ec       ??_C@_0DB@CGKFDJFG@hadesmem?3?3detail?3?3ProtectGuard?3@ 100ab0ec     main.cpp.obj
 0002:00001120       ??_C@_0O@KAKHNDGG@ReadUnchecked@ 100ab120     main.cpp.obj
 0002:00001130       ??_C@_0FF@IFPHEENA@C?3?2software?2hadesmem?9v142?9Relea@ 100ab130     main.cpp.obj
 0002:00001188       ??_C@_0BK@NFNEHIDL@ReadProcessMemory?5failed?4@ 100ab188     main.cpp.obj
 0002:000011a4       ??_C@_0P@LBLMMGGB@WriteUnchecked@ 100ab1a4     main.cpp.obj
 0002:000011b8       ??_C@_0FG@HKAAFBIF@C?3?2software?2hadesmem?9v142?9Relea@ 100ab1b8     main.cpp.obj
 0002:00001210       ??_C@_0BL@BKBINFBA@WriteProcessMemory?5failed?4@ 100ab210     main.cpp.obj
 0002:0000122c       ??_C@_0DD@NEDPJGDL@Address?5?$DN?5?$CFp?0?5Target?5?$DN?5?$CFp?0?5Push@ 100ab22c     main.cpp.obj
 0002:00001260       ??_C@_0BM@BLAEMDDL@hadesmem?3?3detail?3?3WriteJump@ 100ab260     main.cpp.obj
 0002:0000127c       ??_C@_0BF@NLCMJOPD@Using?5relative?5jump?4@ 100ab27c     main.cpp.obj
 0002:00001294       ??_C@_0BK@FPNCDMKG@Address?5?$DN?5?$CFp?0?5Target?5?$DN?5?$CFp@ 100ab294     main.cpp.obj
 0002:000012b0       ??_C@_0BM@CONKFGOI@hadesmem?3?3detail?3?3WriteCall@ 100ab2b0     main.cpp.obj
 0002:000012cc       ??_C@_0BF@MEMDMDAI@Using?5relative?5call?4@ 100ab2cc     main.cpp.obj
 0002:000012e4       ??_C@_0BD@KKJJLKB@VerifyPatchThreads@ 100ab2e4     main.cpp.obj
 0002:000012f8       ??_C@_0FH@FDDALOBI@C?3?2software?2hadesmem?9v142?9Relea@ 100ab2f8     main.cpp.obj
 0002:00001350       ??_C@_0CM@OJCIIPGE@Thread?5is?5currently?5executing?5p@ 100ab350     main.cpp.obj
 0002:00001380       ??_7?$basic_istream@DU?$char_traits@D@std@@@std@@6B@ 100ab380     main.cpp.obj
 0002:00001388       ??_7?$basic_iostream@DU?$char_traits@D@std@@@std@@6B@ 100ab388     main.cpp.obj
 0002:0000138c       ??_8?$basic_iostream@DU?$char_traits@D@std@@@std@@7B?$basic_istream@DU?$char_traits@D@std@@@1@@ 100ab38c     main.cpp.obj
 0002:00001394       ??_8?$basic_iostream@DU?$char_traits@D@std@@@std@@7B?$basic_ostream@DU?$char_traits@D@std@@@1@@ 100ab394     main.cpp.obj
 0002:0000139c       ??_C@_0CE@GCLPNIIO@hadesmem?3?3PatchRaw?3?3RemoveUnche@ 100ab39c     main.cpp.obj
 0002:000013c0       ??_C@_07NJGAEJFG@?$FLDEBUG?$FN@ 100ab3c0     main.cpp.obj
 0002:000013cc       ??_7CDataStore@Nampower@@6B@ 100ab3cc     main.cpp.obj
 0002:000013f4       ??_C@_06BALNJMNP@player@   100ab3f4     main.cpp.obj
 0002:00001400       ??_7?$basic_stringstream@DU?$char_traits@D@std@@V?$allocator@D@2@@std@@6B@ 100ab400     main.cpp.obj
 0002:00001404       ??_8?$basic_stringstream@DU?$char_traits@D@std@@V?$allocator@D@2@@std@@7B?$basic_istream@DU?$char_traits@D@std@@@1@@ 100ab404     main.cpp.obj
 0002:0000140c       ??_8?$basic_stringstream@DU?$char_traits@D@std@@V?$allocator@D@2@@std@@7B?$basic_ostream@DU?$char_traits@D@std@@@1@@ 100ab40c     main.cpp.obj
 0002:00001414       ??_C@_0M@EHAPGNAC@?$CFY?9?$CFm?9?$CFd?5?$CFX@ 100ab414     main.cpp.obj
 0002:00001420       ??_C@_06CGLFEPBO@Unused@   100ab420     main.cpp.obj
 0002:00001428       ??_C@_04MKEOLIJC@?5to?5@   100ab428     main.cpp.obj
 0002:00001430       ??_C@_0N@JECGEPKH@Registering?5@ 100ab430     main.cpp.obj
 0002:00001440       ??_C@_0BK@ECMBPKJF@?5triggering?5queued?5spells@ 100ab440     main.cpp.obj
 0002:0000145c       ??_C@_01LBDDMOBJ@?$FN@     100ab45c     main.cpp.obj
 0002:00001460       ??_C@_0BE@DJPHGBFK@?5latency?5reduction?5@ 100ab460     main.cpp.obj
 0002:00001474       ??_C@_0BE@MCKMMINL@?5original?5duration?5@ 100ab474     main.cpp.obj
 0002:00001488       ??_C@_0M@GDEDPOEP@?5elapsed?5?$DO?5@ 100ab488     main.cpp.obj
 0002:00001494       ??_C@_0BB@CLMMGHMA@Ending?5channel?5?$FL@ 100ab494     main.cpp.obj
 0002:000014a8       ??_C@_0BF@PLCENIP@?5latency?5reduction?3?5@ 100ab4a8     main.cpp.obj
 0002:000014c0       ??_C@_0BG@BKKFKINO@Remaining?5tick?5time?3?5@ 100ab4c0     main.cpp.obj
 0002:000014d8       ??_C@_0CO@EPCFCBPN@Ending?5channel?5due?5to?5cancelCha@ 100ab4d8     main.cpp.obj
 0002:00001508       ??_C@_0DA@KGIDDBKC@Non?5gcd?5spell?5cooldown?5up?0?5cast@ 100ab508     main.cpp.obj
 0002:00001538       ??_C@_0CB@OKGJLKOH@?5due?5to?5max?5time?5since?5last?5cas@ 100ab538     main.cpp.obj
 0002:0000155c       ??_C@_0BJ@MOIJJLEH@Ignoring?5queued?5cast?5of?5@ 100ab55c     main.cpp.obj
 0002:00001578       ??_C@_0CI@DLDOLJJB@Spell?5cooldown?5up?0?5casting?5queu@ 100ab578     main.cpp.obj
 0002:000015a0       ??_C@_0BH@JFBHEHPE@NP_QueueCastTimeSpells@ 100ab5a0     main.cpp.obj
 0002:000015b8       ??_C@_0BP@PICLLELH@Set?5NP_QueueCastTimeSpells?5to?5@ 100ab5b8     main.cpp.obj
 0002:000015d8       ??_C@_0BG@EPNAOJED@NP_QueueInstantSpells@ 100ab5d8     main.cpp.obj
 0002:000015f0       ??_C@_0BO@FGKHFEMB@Set?5NP_QueueInstantSpells?5to?5@ 100ab5f0     main.cpp.obj
 0002:00001610       ??_C@_0BG@NHCCGJDA@NP_QueueOnSwingSpells@ 100ab610     main.cpp.obj
 0002:00001628       ??_C@_0BO@BGEGNIHK@Set?5NP_QueueOnSwingSpells?5to?5@ 100ab628     main.cpp.obj
 0002:00001648       ??_C@_0BJ@KIPOCKFK@NP_QueueChannelingSpells@ 100ab648     main.cpp.obj
 0002:00001664       ??_C@_0CB@OBNLDPCK@Set?5NP_QueueChannelingSpells?5to@ 100ab664     main.cpp.obj
 0002:00001688       ??_C@_0BI@OGLIEAGM@NP_QueueTargetingSpells@ 100ab688     main.cpp.obj
 0002:000016a0       ??_C@_0CA@DMKPKEFC@Set?5NP_QueueTargetingSpells?5to?5@ 100ab6a0     main.cpp.obj
 0002:000016c0       ??_C@_0BJ@EEBEGJJE@NP_QueueSpellsOnCooldown@ 100ab6c0     main.cpp.obj
 0002:000016dc       ??_C@_0CB@ILICALD@Set?5NP_QueueSpellsOnCooldown?5to@ 100ab6dc     main.cpp.obj
 0002:00001700       ??_C@_0CH@NKILOBGJ@NP_InterruptChannelsOutsideQueu@ 100ab700     main.cpp.obj
 0002:00001728       ??_C@_0CP@CBMJDLLE@Set?5NP_InterruptChannelsOutside@ 100ab728     main.cpp.obj
 0002:00001758       ??_C@_0BN@BPHINGMM@NP_RetryServerRejectedSpells@ 100ab758     main.cpp.obj
 0002:00001778       ??_C@_0CF@GJMGHEJL@Set?5NP_RetryServerRejectedSpell@ 100ab778     main.cpp.obj
 0002:000017a0       ??_C@_0BM@KAAEKKLI@NP_QuickcastTargetingSpells@ 100ab7a0     main.cpp.obj
 0002:000017bc       ??_C@_0CE@LGHOMBHC@Set?5NP_QuickcastTargetingSpells@ 100ab7bc     main.cpp.obj
 0002:000017e0       ??_C@_0CB@HPGIFMMF@NP_ReplaceMatchingNonGcdCategor@ 100ab7e0     main.cpp.obj
 0002:00001804       ??_C@_0CJ@BKCNDEIE@Set?5NP_ReplaceMatchingNonGcdCat@ 100ab804     main.cpp.obj
 0002:00001830       ??_C@_0CE@HNEFELI@NP_OptimizeBufferUsingPacketTim@ 100ab830     main.cpp.obj
 0002:00001854       ??_C@_0CM@IFFMCJBG@Set?5NP_OptimizeBufferUsingPacke@ 100ab854     main.cpp.obj
 0002:00001880       ??_C@_0CB@PAPCHMPF@NP_PreventRightClickTargetChang@ 100ab880     main.cpp.obj
 0002:000018a4       ??_C@_0CJ@CEOCHGOE@Set?5NP_PreventRightClickTargetC@ 100ab8a4     main.cpp.obj
 0002:000018d0       ??_C@_0BO@IJCJBII@NP_PreventRightClickPvPAttack@ 100ab8d0     main.cpp.obj
 0002:000018f0       ??_C@_0CG@OFCDCGBE@Set?5NP_PreventRightClickPvPAtta@ 100ab8f0     main.cpp.obj
 0002:00001918       ??_C@_0BP@COIIKABN@NP_DoubleCastToEndChannelEarly@ 100ab918     main.cpp.obj
 0002:00001938       ??_C@_0CH@FPPJPDAN@Set?5NP_DoubleCastToEndChannelEa@ 100ab938     main.cpp.obj
 0002:00001960       ??_C@_0BJ@OGGMANCP@NP_QuickcastOnDoubleCast@ 100ab960     main.cpp.obj
 0002:0000197c       ??_C@_0CB@FCCLLLOO@Set?5NP_QuickcastOnDoubleCast?5to@ 100ab97c     main.cpp.obj
 0002:000019a0       ??_C@_0BJ@BNCLKABI@NP_SpamProtectionEnabled@ 100ab9a0     main.cpp.obj
 0002:000019bc       ??_C@_0CB@HLCAEHJD@Set?5NP_SpamProtectionEnabled?5to@ 100ab9bc     main.cpp.obj
 0002:000019e0       ??_C@_0CA@HJJDEHK@NP_PreserveGreaterDemonAutocast@ 100ab9e0     main.cpp.obj
 0002:00001a00       ??_C@_0CI@PFLGHHNE@Set?5NP_PreserveGreaterDemonAuto@ 100aba00     main.cpp.obj
 0002:00001a28       ??_C@_0BH@KAMACOOH@NP_EnableUnitEventsPet@ 100aba28     main.cpp.obj
 0002:00001a40       ??_C@_0BP@GFELCLJC@Set?5NP_EnableUnitEventsPet?5to?5@ 100aba40     main.cpp.obj
 0002:00001a60       ??_C@_0BJ@LAAHDDAL@NP_EnableUnitEventsParty@ 100aba60     main.cpp.obj
 0002:00001a7c       ??_C@_0CB@FHIPANLA@Set?5NP_EnableUnitEventsParty?5to@ 100aba7c     main.cpp.obj
 0002:00001aa0       ??_C@_0BI@NOADONEC@NP_EnableUnitEventsRaid@ 100abaa0     main.cpp.obj
 0002:00001ab8       ??_C@_0CA@ICNBHNIB@Set?5NP_EnableUnitEventsRaid?5to?5@ 100abab8     main.cpp.obj
 0002:00001ad8       ??_C@_0BN@NCMLNAFN@NP_EnableUnitEventsMouseover@ 100abad8     main.cpp.obj
 0002:00001af8       ??_C@_0CF@ECIKMNJO@Set?5NP_EnableUnitEventsMouseove@ 100abaf8     main.cpp.obj
 0002:00001b20       ??_C@_0BI@KJHIDFHI@NP_EnableUnitEventsGuid@ 100abb20     main.cpp.obj
 0002:00001b38       ??_C@_0CA@JMHHEFGO@Set?5NP_EnableUnitEventsGuid?5to?5@ 100abb38     main.cpp.obj
 0002:00001b58       ??_C@_0CB@GODFGNOP@NP_EnableUnitEventsGuidFilterin@ 100abb58     main.cpp.obj
 0002:00001b7c       ??_C@_0CJ@JFKOPHJC@Set?5NP_EnableUnitEventsGuidFilt@ 100abb7c     main.cpp.obj
 0002:00001ba8       ??_C@_0BI@OFECCKJA@NP_EnableAuraCastEvents@ 100abba8     main.cpp.obj
 0002:00001bc0       ??_C@_0CA@MCAFBLDG@Set?5NP_EnableAuraCastEvents?5to?5@ 100abbc0     main.cpp.obj
 0002:00001be0       ??_C@_0BK@MBLEOKAE@NP_EnableAutoAttackEvents@ 100abbe0     main.cpp.obj
 0002:00001bfc       ??_C@_0CC@FLEKOLKF@Set?5NP_EnableAutoAttackEvents?5t@ 100abbfc     main.cpp.obj
 0002:00001c20       ??_C@_0BK@HPKDDDJN@NP_EnableSpellStartEvents@ 100abc20     main.cpp.obj
 0002:00001c3c       ??_C@_0CC@DAAAFBCJ@Set?5NP_EnableSpellStartEvents?5t@ 100abc3c     main.cpp.obj
 0002:00001c60       ??_C@_0BH@DBJNDJCK@NP_EnableSpellGoEvents@ 100abc60     main.cpp.obj
 0002:00001c78       ??_C@_0BP@HABICIHH@Set?5NP_EnableSpellGoEvents?5to?5@ 100abc78     main.cpp.obj
 0002:00001c98       ??_C@_0BJ@OPDINFN@NP_EnableSpellHealEvents@ 100abc98     main.cpp.obj
 0002:00001cb4       ??_C@_0CB@CKCADEOG@Set?5NP_EnableSpellHealEvents?5to@ 100abcb4     main.cpp.obj
 0002:00001cd8       ??_C@_0BN@DLFLANCE@NP_EnableSpellEnergizeEvents@ 100abcd8     main.cpp.obj
 0002:00001cf8       ??_C@_0CF@HJHLFECN@Set?5NP_EnableSpellEnergizeEvent@ 100abcf8     main.cpp.obj
 0002:00001d20       ??_C@_0CB@CLDKJOLH@NP_PreventMountingWhenBuffCappe@ 100abd20     main.cpp.obj
 0002:00001d44       ??_C@_0CJ@KNLLLEIG@Set?5NP_PreventMountingWhenBuffC@ 100abd44     main.cpp.obj
 0002:00001d70       ??_C@_0BK@GBFHDLKG@NP_EnableEnhancedTooltips@ 100abd70     main.cpp.obj
 0002:00001d8c       ??_C@_0CC@JDOGGGOL@Set?5NP_EnableEnhancedTooltips?5t@ 100abd8c     main.cpp.obj
 0002:00001db0       ??_C@_0BD@KEENKIJP@NP_MinBufferTimeMs@ 100abdb0     main.cpp.obj
 0002:00001dc4       ??_C@_0CO@NIJCIBCJ@Set?5NP_MinBufferTimeMs?5and?5curr@ 100abdc4     main.cpp.obj
 0002:00001df4       ??_C@_0BG@LLHBJGHN@NP_NonGcdBufferTimeMs@ 100abdf4     main.cpp.obj
 0002:00001e0c       ??_C@_0BO@BEDCEPJD@Set?5NP_NonGcdBufferTimeMs?5to?5@ 100abe0c     main.cpp.obj
 0002:00001e2c       ??_C@_0BH@MKMOFKHN@NP_MaxBufferIncreaseMs@ 100abe2c     main.cpp.obj
 0002:00001e44       ??_C@_0BP@NHKKEPBG@Set?5NP_MaxBufferIncreaseMs?5to?5@ 100abe44     main.cpp.obj
 0002:00001e64       ??_C@_0BG@HPCNJHHL@NP_SpellQueueWindowMs@ 100abe64     main.cpp.obj
 0002:00001e7c       ??_C@_0BO@LKJMGOIJ@Set?5NP_SpellQueueWindowMs?5to?5@ 100abe7c     main.cpp.obj
 0002:00001e9c       ??_C@_0BL@KOCNOCFF@NP_OnSwingBufferCooldownMs@ 100abe9c     main.cpp.obj
 0002:00001eb8       ??_C@_0CD@BOIHNHHB@Set?5NP_OnSwingBufferCooldownMs?5@ 100abeb8     main.cpp.obj
 0002:00001edc       ??_C@_0BI@LPMHBLBF@NP_ChannelQueueWindowMs@ 100abedc     main.cpp.obj
 0002:00001ef4       ??_C@_0CA@PAGBAGHM@Set?5NP_ChannelQueueWindowMs?5to?5@ 100abef4     main.cpp.obj
 0002:00001f14       ??_C@_0BK@KEKPPKMD@NP_TargetingQueueWindowMs@ 100abf14     main.cpp.obj
 0002:00001f30       ??_C@_0CC@DIBIMACH@Set?5NP_TargetingQueueWindowMs?5t@ 100abf30     main.cpp.obj
 0002:00001f54       ??_C@_0BJ@EPEDEFB@NP_CooldownQueueWindowMs@ 100abf54     main.cpp.obj
 0002:00001f70       ??_C@_0CB@FONDBBI@Set?5NP_CooldownQueueWindowMs?5to@ 100abf70     main.cpp.obj
 0002:00001f94       ??_C@_0CF@LNIPLOJI@NP_ChannelLatencyReductionPerce@ 100abf94     main.cpp.obj
 0002:00001fbc       ??_C@_0CN@EINCDKGL@Set?5NP_ChannelLatencyReductionP@ 100abfbc     main.cpp.obj
 0002:00001fec       ??_C@_0BF@NPNCLNJG@NP_NameplateDistance@ 100abfec     main.cpp.obj
 0002:00002004       ??_C@_0BN@EGLOHIBD@Set?5NP_NameplateDistance?5to?5@ 100ac004     main.cpp.obj
 0002:00002024       ??_C@_0BG@EGHAEDHI@NP_ChatBubbleDistance@ 100ac024     main.cpp.obj
 0002:0000203c       ??_C@_0BO@HCLJPHJK@Set?5NP_ChatBubbleDistance?5to?5@ 100ac03c     main.cpp.obj
 0002:00002060       ??_7?$PatchDetour@P6IHPAI@ZPAX@hadesmem@@6B@ 100ac060     main.cpp.obj
 0002:000020b0       ??_C@_03PEOPGAMG@NP_@      100ac0b0     main.cpp.obj
 0002:000020b4       ??_C@_0BJ@HNOEHODG@Using?5default?5value?5for?5@ 100ac0b4     main.cpp.obj
 0002:000020d0       ??_C@_04IOBBKNGP@Logs@     100ac0d0     main.cpp.obj
 0002:000020d8       ??_C@_0BD@FEPMOMFL@nampower_debug?4log@ 100ac0d8     main.cpp.obj
 0002:000020ec       ??_C@_0BI@LDBODINK@Logs?2nampower_debug?4log@ 100ac0ec     main.cpp.obj
 0002:00002104       ??_C@_0BF@EHNBCGI@nampower_debug?4log?41@ 100ac104     main.cpp.obj
 0002:0000211c       ??_C@_0BK@KHFLEKEN@Logs?2nampower_debug?4log?41@ 100ac11c     main.cpp.obj
 0002:00002138       ??_C@_0BF@CPFAEBKL@nampower_debug?4log?42@ 100ac138     main.cpp.obj
 0002:00002150       ??_C@_0BK@IMHGBJIO@Logs?2nampower_debug?4log?42@ 100ac150     main.cpp.obj
 0002:0000216c       ??_C@_0BF@DGELHAOK@nampower_debug?4log?43@ 100ac16c     main.cpp.obj
 0002:00002184       ??_C@_0BK@JFGNCIMP@Logs?2nampower_debug?4log?43@ 100ac184     main.cpp.obj
 0002:000021a0       ??_C@_01LFCBOECM@?4@       100ac1a0     main.cpp.obj
 0002:000021a4       ??_C@_0BD@BPOEFIKN@Loading?5nampower?5v@ 100ac1a4     main.cpp.obj
 0002:000021b8       ??_C@_01GBGANLPD@0@        100ac1b8     main.cpp.obj
 0002:000021bc       ??_C@_0BK@INOGODLN@Registering?1Loading?5CVars@ 100ac1bc     main.cpp.obj
 0002:000021d8       ??_C@_0BI@JDKNJGGE@NP_FelguardAutocastData@ 100ac1d8     main.cpp.obj
 0002:000021f0       ??_C@_0BJ@MKNOLCCP@NP_DoomguardAutocastData@ 100ac1f0     main.cpp.obj
 0002:0000220c       ??_C@_0BI@FNDFACLE@NP_InfernalAutocastData@ 100ac20c     main.cpp.obj
 0002:00002224       ??_C@_0BG@ONBOGKDH@NP_ChatBubblesWhisper@ 100ac224     main.cpp.obj
 0002:0000223c       ??_C@_0BD@KFKPMNIC@NP_ChatBubblesRaid@ 100ac23c     main.cpp.obj
 0002:00002250       ??_C@_0BL@DEGOJLLK@NP_ChatBubblesBattleground@ 100ac250     main.cpp.obj
 0002:0000226c       ??_C@_0CF@IALCIHCG@?$DN?$DN?$DN?5Starting?5hook?5initializatio@ 100ac26c     main.cpp.obj
 0002:00002294       ??_C@_0CL@MJPJAFAM@?$DN?$DN?$DN?5All?5hooks?5initialized?5succe@ 100ac294     main.cpp.obj
 0002:000022c0       ??_C@_01CLKCMJKC@?5@       100ac2c0     main.cpp.obj
 0002:000022c4       ??_C@_0BJ@DDBOIFAJ@Added?5custom?5event?5code?3@ 100ac2c4     main.cpp.obj
 0002:000022e0       ??_C@_0BC@IIJKILOC@SPELL_QUEUE_EVENT@ 100ac2e0     main.cpp.obj
 0002:000022f4       ??_C@_0BB@INAPBEKM@SPELL_CAST_EVENT@ 100ac2f4     main.cpp.obj
 0002:00002308       ??_C@_0BI@IIEOEKLK@SPELL_DAMAGE_EVENT_SELF@ 100ac308     main.cpp.obj
 0002:00002320       ??_C@_0BJ@HABHONC@SPELL_DAMAGE_EVENT_OTHER@ 100ac320     main.cpp.obj
 0002:0000233c       ??_C@_0BC@FNMHDFMM@DEBUFF_ADDED_SELF@ 100ac33c     main.cpp.obj
 0002:00002350       ??_C@_0BE@IPCENOKC@DEBUFF_REMOVED_SELF@ 100ac350     main.cpp.obj
 0002:00002364       ??_C@_0BD@LOLCCDKE@DEBUFF_ADDED_OTHER@ 100ac364     main.cpp.obj
 0002:00002378       ??_C@_0BF@BEGKIMBA@DEBUFF_REMOVED_OTHER@ 100ac378     main.cpp.obj
 0002:00002390       ??_C@_0BA@MOKKJPMK@BUFF_ADDED_SELF@ 100ac390     main.cpp.obj
 0002:000023a0       ??_C@_0BC@OPHNKALP@BUFF_REMOVED_SELF@ 100ac3a0     main.cpp.obj
 0002:000023b4       ??_C@_0BB@FHECOLDL@BUFF_ADDED_OTHER@ 100ac3b4     main.cpp.obj
 0002:000023c8       ??_C@_0BD@HHAMLJLH@BUFF_REMOVED_OTHER@ 100ac3c8     main.cpp.obj
 0002:000023dc       ??_C@_09OAKDIAEE@UNIT_DIED@ 100ac3dc     main.cpp.obj
 0002:000023e8       ??_C@_0BC@HMKGCEPB@AURA_CAST_ON_SELF@ 100ac3e8     main.cpp.obj
 0002:000023fc       ??_C@_0BD@OGPLAOKE@AURA_CAST_ON_OTHER@ 100ac3fc     main.cpp.obj
 0002:00002410       ??_C@_0BB@GJGJCOEG@AUTO_ATTACK_SELF@ 100ac410     main.cpp.obj
 0002:00002424       ??_C@_0BC@LDOLOHIB@AUTO_ATTACK_OTHER@ 100ac424     main.cpp.obj
 0002:00002438       ??_C@_0BB@LFPNKHHB@SPELL_START_SELF@ 100ac438     main.cpp.obj
 0002:0000244c       ??_C@_0BC@LIKNGAH@SPELL_START_OTHER@ 100ac44c     main.cpp.obj
 0002:00002460       ??_C@_0O@EBECIIDL@SPELL_GO_SELF@ 100ac460     main.cpp.obj
 0002:00002470       ??_C@_0P@JNHHMBKG@SPELL_GO_OTHER@ 100ac470     main.cpp.obj
 0002:00002480       ??_C@_0BC@IAGOOOHI@SPELL_FAILED_SELF@ 100ac480     main.cpp.obj
 0002:00002494       ??_C@_0BD@HCGDPNOK@SPELL_FAILED_OTHER@ 100ac494     main.cpp.obj
 0002:000024a8       ??_C@_0BD@BEPEMHGP@SPELL_DELAYED_SELF@ 100ac4a8     main.cpp.obj
 0002:000024bc       ??_C@_0BE@PBCEOCAE@SPELL_DELAYED_OTHER@ 100ac4bc     main.cpp.obj
 0002:000024d0       ??_C@_0BE@IOCKMDKP@SPELL_CHANNEL_START@ 100ac4d0     main.cpp.obj
 0002:000024e4       ??_C@_0BF@LJOECPNH@SPELL_CHANNEL_UPDATE@ 100ac4e4     main.cpp.obj
 0002:000024fc       ??_C@_0BD@MPPCDFLO@SPELL_HEAL_BY_SELF@ 100ac4fc     main.cpp.obj
 0002:00002510       ??_C@_0BE@CLAGLE@SPELL_HEAL_BY_OTHER@ 100ac510     main.cpp.obj
 0002:00002524       ??_C@_0BD@PGIOICCP@SPELL_HEAL_ON_SELF@ 100ac524     main.cpp.obj
 0002:00002538       ??_C@_0BH@FKIAPLHB@SPELL_ENERGIZE_BY_SELF@ 100ac538     main.cpp.obj
 0002:00002550       ??_C@_0BI@LGFKLFL@SPELL_ENERGIZE_BY_OTHER@ 100ac550     main.cpp.obj
 0002:00002568       ??_C@_0BH@GDPMEMOA@SPELL_ENERGIZE_ON_SELF@ 100ac568     main.cpp.obj
 0002:00002580       ??_C@_0BK@LABCOB@BUFF_UPDATE_DURATION_SELF@ 100ac580     main.cpp.obj
 0002:0000259c       ??_C@_0BM@OJOKLDBP@DEBUFF_UPDATE_DURATION_SELF@ 100ac59c     main.cpp.obj
 0002:000025b8       ??_C@_0BA@GBKNELAD@SPELL_MISS_SELF@ 100ac5b8     main.cpp.obj
 0002:000025c8       ??_C@_0BB@LFFFJGPL@SPELL_MISS_OTHER@ 100ac5c8     main.cpp.obj
 0002:000025dc       ??_C@_0BB@IBMHAJAM@UNIT_COMBAT_GUID@ 100ac5dc     main.cpp.obj
 0002:000025f0       ??_C@_0BG@EEJJBMGL@UNIT_NAME_UPDATE_GUID@ 100ac5f0     main.cpp.obj
 0002:00002608       ??_C@_0BK@HFCILLKB@UNIT_PORTRAIT_UPDATE_GUID@ 100ac608     main.cpp.obj
 0002:00002624       ??_C@_0BI@BNJDINBF@UNIT_MODEL_CHANGED_GUID@ 100ac624     main.cpp.obj
 0002:0000263c       ??_C@_0BM@BPKDJDMK@UNIT_INVENTORY_CHANGED_GUID@ 100ac63c     main.cpp.obj
 0002:00002658       ??_C@_0O@CDAGPNCP@UNIT_PET_GUID@ 100ac658     main.cpp.obj
 0002:00002668       ??_C@_0BB@FECBAHGP@UNIT_HEALTH_GUID@ 100ac668     main.cpp.obj
 0002:0000267c       ??_C@_0P@INHDBPOB@UNIT_MANA_GUID@ 100ac67c     main.cpp.obj
 0002:0000268c       ??_C@_0P@LANGPKLM@UNIT_RAGE_GUID@ 100ac68c     main.cpp.obj
 0002:0000269c       ??_C@_0BB@LHNLBJOO@UNIT_ENERGY_GUID@ 100ac69c     main.cpp.obj
 0002:000026b0       ??_C@_0BA@KMIOLEEG@UNIT_FLAGS_GUID@ 100ac6b0     main.cpp.obj
 0002:000026c0       ??_C@_0P@ENHHMIHG@UNIT_AURA_GUID@ 100ac6c0     main.cpp.obj
 0002:000026d0       ??_C@_0BI@OEJBNCMD@UNIT_DYNAMIC_FLAGS_GUID@ 100ac6d0     main.cpp.obj
 0002:000026e8       ??_C@_0BJ@OKKIPLGF@PLAYER_GUILD_UPDATE_GUID@ 100ac6e8     main.cpp.obj
 0002:00002704       ??_C@_08GNEEABI@KEY_DOWN@  100ac704     main.cpp.obj
 0002:00002710       ??_C@_06NKLJJJM@KEY_UP@    100ac710     main.cpp.obj
 0002:00002718       ??_C@_0BH@PMOIPGL@ENVIRONMENTAL_DMG_SELF@ 100ac718     main.cpp.obj
 0002:00002730       ??_C@_0BI@PGFCBMFF@ENVIRONMENTAL_DMG_OTHER@ 100ac730     main.cpp.obj
 0002:00002748       ??_C@_0BD@EPAMBIEE@DAMAGE_SHIELD_SELF@ 100ac748     main.cpp.obj
 0002:0000275c       ??_C@_0BE@FNMDODJL@DAMAGE_SHIELD_OTHER@ 100ac75c     main.cpp.obj
 0002:00002770       ??_C@_0BF@HBBDLPGH@SPELL_DISPEL_BY_SELF@ 100ac770     main.cpp.obj
 0002:00002788       ??_C@_0BG@PPJKINEO@SPELL_DISPEL_BY_OTHER@ 100ac788     main.cpp.obj
 0002:000027a0       ??_C@_07NFDODHAI@?5to?5700@ 100ac7a0     main.cpp.obj
 0002:000027a8       ??_C@_0BN@PFEPHOAH@Increasing?5event?5count?5from?5@ 100ac7a8     main.cpp.obj
 0002:000027c8       ??_C@_0CB@KNPGGJME@Registering?5Custom?5Lua?5function@ 100ac7c8     main.cpp.obj
 0002:000027ec       ??_C@_0BB@COEIEDHD@QueueSpellByName@ 100ac7ec     main.cpp.obj
 0002:00002800       ??_C@_0BH@EFPAODGH@CastSpellByNameNoQueue@ 100ac800     main.cpp.obj
 0002:00002818       ??_C@_0BB@HKEDLMIG@CastSpellNoQueue@ 100ac818     main.cpp.obj
 0002:0000282c       ??_C@_0M@PPLDGHGJ@QueueScript@ 100ac82c     main.cpp.obj
 0002:00002838       ??_C@_0P@EEAKKLOD@IsSpellInRange@ 100ac838     main.cpp.obj
 0002:00002848       ??_C@_0O@OJOODJBA@IsSpellUsable@ 100ac848     main.cpp.obj
 0002:00002858       ??_C@_0BG@LHDLCFEE@GetCurrentCastingInfo@ 100ac858     main.cpp.obj
 0002:00002870       ??_C@_0BC@NFIAGJCO@GetSpellIdForName@ 100ac870     main.cpp.obj
 0002:00002884       ??_C@_0BJ@OIEGKLKO@GetSpellNameAndRankForId@ 100ac884     main.cpp.obj
 0002:000028a0       ??_C@_0BK@PJJFEGPC@GetSpellSlotTypeIdForName@ 100ac8a0     main.cpp.obj
 0002:000028bc       ??_C@_0BL@MFCJKIGL@ChannelStopCastingNextTick@ 100ac8bc     main.cpp.obj
 0002:000028d8       ??_C@_0BD@GKGGEBFB@GetNampowerVersion@ 100ac8d8     main.cpp.obj
 0002:000028ec       ??_C@_0N@JDLNMJKE@GetItemLevel@ 100ac8ec     main.cpp.obj
 0002:000028fc       ??_C@_0N@CBMNGPCH@GetItemStats@ 100ac8fc     main.cpp.obj
 0002:0000290c       ??_C@_0BA@OKINMLMF@StartItemExport@ 100ac90c     main.cpp.obj
 0002:0000291c       ??_C@_0M@GCMNFEPN@GetSpellRec@ 100ac91c     main.cpp.obj
 0002:00002928       ??_C@_0BC@EMLGDCK@GetItemStatsField@ 100ac928     main.cpp.obj
 0002:0000293c       ??_C@_0BB@DLPAGHLE@GetSpellRecField@ 100ac93c     main.cpp.obj
 0002:00002950       ??_C@_0M@GMDOHMKD@GetUnitData@ 100ac950     main.cpp.obj
 0002:0000295c       ??_C@_0N@NDOHCLOO@GetUnitField@ 100ac95c     main.cpp.obj
 0002:0000296c       ??_C@_0BC@OJJLHCMM@GetSpellModifiers@ 100ac96c     main.cpp.obj
 0002:00002980       ??_C@_0BD@JFAGNKGG@FindPlayerItemSlot@ 100ac980     main.cpp.obj
 0002:00002994       ??_C@_0BB@DMAMHCNP@GetEquippedItems@ 100ac994     main.cpp.obj
 0002:000029a8       ??_C@_0BA@MGJKCOKC@GetEquippedItem@ 100ac9a8     main.cpp.obj
 0002:000029b8       ??_C@_0M@NACEOJGE@GetBagItems@ 100ac9b8     main.cpp.obj
 0002:000029c4       ??_C@_0L@INPDLDGD@GetBagItem@ 100ac9c4     main.cpp.obj
 0002:000029d0       ??_C@_0M@IILIBIAD@GetCastInfo@ 100ac9d0     main.cpp.obj
 0002:000029dc       ??_C@_0BD@FMMMOHBG@GetSpellIdCooldown@ 100ac9dc     main.cpp.obj
 0002:000029f0       ??_C@_0BC@JJBCKJPB@GetItemIdCooldown@ 100ac9f0     main.cpp.obj
 0002:00002a04       ??_C@_0BD@JMKKPPOD@GetTrinketCooldown@ 100aca04     main.cpp.obj
 0002:00002a18       ??_C@_0BA@EIDAGHKD@UseItemIdOrName@ 100aca18     main.cpp.obj
 0002:00002a28       ??_C@_0L@NMBBKLLO@UseTrinket@ 100aca28     main.cpp.obj
 0002:00002a34       ??_C@_0M@EGBLDCCI@GetTrinkets@ 100aca34     main.cpp.obj
 0002:00002a40       ??_C@_0O@JMOODDHF@DisenchantAll@ 100aca40     main.cpp.obj
 0002:00002a50       ??_C@_0BD@CIKGFBEL@GetItemIconTexture@ 100aca50     main.cpp.obj
 0002:00002a64       ??_C@_0BE@BGANPINO@GetSpellIconTexture@ 100aca64     main.cpp.obj
 0002:00002a78       ??_C@_0BG@NHHLBJIB@GetPlayerAuraDuration@ 100aca78     main.cpp.obj
 0002:00002a90       ??_C@_0BF@JCGGDHDN@CancelPlayerAuraSlot@ 100aca90     main.cpp.obj
 0002:00002aa8       ??_C@_0BI@EGDKELMA@CancelPlayerAuraSpellId@ 100acaa8     main.cpp.obj
 0002:00002ac0       ??_C@_0O@EGACADAN@GetSpellPower@ 100acac0     main.cpp.obj
 0002:00002ad0       ??_C@_0BB@GJJOHFMI@GetSpellDuration@ 100acad0     main.cpp.obj
 0002:00002ae4       ??_C@_0BC@HKNNBGID@GetSpellRangeData@ 100acae4     main.cpp.obj
 0002:00002af8       ??_C@_0BA@HLJFEPBF@LearnTalentRank@ 100acaf8     main.cpp.obj
 0002:00002b08       ??_C@_0P@GNPNONPK@PlayerIsMoving@ 100acb08     main.cpp.obj
 0002:00002b18       ??_C@_0P@BEJAMHEO@PlayerIsRooted@ 100acb18     main.cpp.obj
 0002:00002b28       ??_C@_0BB@DODJPBOK@PlayerIsSwimming@ 100acb28     main.cpp.obj
 0002:00002b3c       ??_C@_0BB@ICFMFGMO@SetMouseoverUnit@ 100acb3c     main.cpp.obj
 0002:00002b50       ??_C@_0M@JAJHMPKB@GetUnitGUID@ 100acb50     main.cpp.obj
 0002:00002b5c       ??_C@_0N@GJHOCJAI@IsAuraHidden@ 100acb5c     main.cpp.obj
 0002:00002b6c       ??_C@_0P@JHGANGDE@CombatLogFlush@ 100acb6c     main.cpp.obj
 0002:00002b7c       ??_C@_0BA@NPLJFLOD@WriteCustomFile@ 100acb7c     main.cpp.obj
 0002:00002b8c       ??_C@_0P@EBMMNFFF@ReadCustomFile@ 100acb8c     main.cpp.obj
 0002:00002b9c       ??_C@_0BB@JMDMLFMH@CustomFileExists@ 100acb9c     main.cpp.obj
 0002:00002bb0       ??_C@_0L@MHJCKBGI@ImportFile@ 100acbb0     main.cpp.obj
 0002:00002bbc       ??_C@_0L@MAPHJAD@ExportFile@ 100acbbc     main.cpp.obj
 0002:00002bc8       ??_C@_0BF@OGGDEDEG@ExecuteCustomLuaFile@ 100acbc8     main.cpp.obj
 0002:00002be0       ??_C@_0BP@CLLCOBDF@Registering?5Glue?5Lua?5functions@ 100acbe0     main.cpp.obj
 0002:00002c00       ??_C@_0BA@DKCPPAAE@EncryptPassword@ 100acc00     main.cpp.obj
 0002:00002c10       ??_C@_0BF@OEDNNOGG@EncryptedServerLogin@ 100acc10     main.cpp.obj
 0002:00002c2c       ??_7?$PatchDetour@P6IXXZPAX@hadesmem@@6B@ 100acc2c     main.cpp.obj
 0002:00002c7c       ??_C@_0CA@CBNOLNBD@Exception?5in?5Nampower?3?3load?$CI?$CJ?3?5@ 100acc7c     main.cpp.obj
 0002:00002c9c       ??_C@_0P@NAFFIKBA@Nampower?5Error@ 100acc9c     main.cpp.obj
 0002:00002cac       ??_C@_0CG@PNCMOHNE@Unknown?5exception?5in?5Nampower?3?3@ 100accac     main.cpp.obj
 0002:00002cd4       ??_C@_0BK@DKOOEMML@Restoring?5original?5bytes?4@ 100accd4     main.cpp.obj
 0002:00002cf0       ??_C@_0EE@CMAMOMOO@hadesmem?3?3PatchDetour?$DMvoid?5?$CI__f@ 100accf0     main.cpp.obj
 0002:00002d34       ??_C@_0BG@LCAOCHAL@Writing?5jump?5to?5stub?4@ 100acd34     main.cpp.obj
 0002:00002d50       ??_C@_0ED@FNJJIMJO@hadesmem?3?3PatchDetour?$DMvoid?5?$CI__f@ 100acd50     main.cpp.obj
 0002:00002d94       ??_C@_0L@NBAFHLHH@Stub?5near?4@ 100acd94     main.cpp.obj
 0002:00002da0       ??_C@_0EF@HPLFPOCH@hadesmem?3?3PatchDetour?$DMvoid?5?$CI__f@ 100acda0     main.cpp.obj
 0002:00002de8       ??_C@_0EI@IEHKJNFE@hadesmem?3?3PatchDetour?$DMvoid?5?$CI__f@ 100acde8     main.cpp.obj
 0002:00002e30       ??_C@_0M@GFKJMBMN@operator?5?$CI?$CJ@ 100ace30     main.cpp.obj
 0002:00002e40       ??_C@_0FH@PGJHJNK@C?3?2software?2hadesmem?9v142?9Relea@ 100ace40     main.cpp.obj
 0002:00002e98       ??_C@_0BK@NOAOGKJA@Unknown?5instruction?5size?4@ 100ace98     main.cpp.obj
 0002:00002eb4       ??_C@_0DG@JEMBOIJP@This?5?$DN?5?$CFp?0?5Target?5?$DN?5?$CFp?0?5Detour?5@ 100aceb4     main.cpp.obj
 0002:00002eec       ??_C@_0DO@BDGDLPLM@hadesmem?3?3PatchDetour?$DMvoid?5?$CI__f@ 100aceec     main.cpp.obj
 0002:00002f2c       ??_C@_05KHOEDHDN@Apply@    100acf2c     main.cpp.obj
 0002:00002f34       ??_C@_0BE@FPCEIMCK@Disassembly?5failed?4@ 100acf34     main.cpp.obj
 0002:00002f48       ??_C@_08LMIDJNHP@Invalid?4@ 100acf48     main.cpp.obj
 0002:00002f54       ??_C@_09CGOPAKAI@?$CFs?4?5?$FL?$CFs?$FN?4@ 100acf54     main.cpp.obj
 0002:00002f60       ??_C@_0BM@LBDNLCLP@Operand?1offset?5size?5is?5?$CFhu?4@ 100acf60     main.cpp.obj
 0002:00002f7c       ??_C@_0BH@BFFFOFOC@Jump?1call?5target?5?$DN?5?$CFp?4@ 100acf7c     main.cpp.obj
 0002:00002f94       ??_C@_0BH@LEKNPHHB@Writing?5resolved?5jump?4@ 100acf94     main.cpp.obj
 0002:00002fac       ??_C@_0BH@KLECKKIK@Writing?5resolved?5call?4@ 100acfac     main.cpp.obj
 0002:00002fc4       ??_C@_0CE@JLFHLNDK@Writing?5jump?5back?5to?5original?5c@ 100acfc4     main.cpp.obj
 0002:00002fe8       ??_C@_0EN@DGGOEDLL@hadesmem?3?3PatchDetour?$DMint?5?$CI__fa@ 100acfe8     main.cpp.obj
 0002:00003038       ??_C@_0EM@OFOCKEIK@hadesmem?3?3PatchDetour?$DMint?5?$CI__fa@ 100ad038     main.cpp.obj
 0002:00003088       ??_C@_0EO@GEKODJPD@hadesmem?3?3PatchDetour?$DMint?5?$CI__fa@ 100ad088     main.cpp.obj
 0002:000030d8       ??_C@_0FB@CEIIMG@hadesmem?3?3PatchDetour?$DMint?5?$CI__fa@ 100ad0d8     main.cpp.obj
 0002:00003130       ??_C@_0EH@NEPCCDBP@hadesmem?3?3PatchDetour?$DMint?5?$CI__fa@ 100ad130     main.cpp.obj
 0002:00003178       ??_C@_07CLEOFAGA@Cleanup@  100ad178     main.cpp.obj
 0002:00003180       ??_C@_0FI@HFJICEID@C?3?2software?2hadesmem?9v142?9Relea@ 100ad180     main.cpp.obj
 0002:000031d8       ??_C@_0BM@KIILNFBE@SmartHandle?5cleanup?5failed?4@ 100ad1d8     main.cpp.obj
 0002:000031f8       ??_7?$num_put@DV?$ostreambuf_iterator@DU?$char_traits@D@std@@@std@@@std@@6B@ 100ad1f8     main.cpp.obj
 0002:00003224       ??_C@_02BBAHNLBA@?$CFp@    100ad224     main.cpp.obj
 0002:0000322c       ??_7?$numpunct@D@std@@6B@  100ad22c     main.cpp.obj
 0002:00003250       ??_7?$PatchDetour@P6I_NPAUSpellRec@game@@PADHMMMMM@ZPAX@hadesmem@@6B@ 100ad250     main.cpp.obj
 0002:000032a4       ??_7?$PatchDetour@P6IHPAX0IPAPAH1HHHHIPAPAPAPAH@ZPAX@hadesmem@@6B@ 100ad2a4     main.cpp.obj
 0002:000032f8       ??_7?$PatchDetour@P6IXPA_K0II@ZPAX@hadesmem@@6B@ 100ad2f8     main.cpp.obj
 0002:0000334c       ??_7?$PatchDetour@P6IXPAIPAXHHHH@ZPAX@hadesmem@@6B@ 100ad34c     main.cpp.obj
 0002:000033a0       ??_7?$PatchDetour@P6IXPA_KPBDHHH@ZPAX@hadesmem@@6B@ 100ad3a0     main.cpp.obj
 0002:000033f4       ??_7?$PatchDetour@P6IXPAIPA_K@ZPAX@hadesmem@@6B@ 100ad3f4     main.cpp.obj
 0002:00003448       ??_7?$PatchDetour@P6IXPAI@ZPAX@hadesmem@@6B@ 100ad448     main.cpp.obj
 0002:0000349c       ??_7?$PatchDetour@P6IXPAX0II@ZPAX@hadesmem@@6B@ 100ad49c     main.cpp.obj
 0002:000034f0       ??_7?$PatchDetour@P6IXPA_KI@ZPAX@hadesmem@@6B@ 100ad4f0     main.cpp.obj
 0002:00003544       ??_7?$PatchDetour@P6I_KPBD@ZPAX@hadesmem@@6B@ 100ad544     main.cpp.obj
 0002:00003598       ??_7?$PatchDetour@P6I_NPAUEVENT_DATA_KEY@@H@ZPAX@hadesmem@@6B@ 100ad598     main.cpp.obj
 0002:000035ec       ??_7?$PatchDetour@P6IXPAIPAXW4CHAT_COMMAND_ID@game@@PAD@ZPAX@hadesmem@@6B@ 100ad5ec     main.cpp.obj
 0002:00003640       ??_7?$PatchDetour@P6IIPAI00@ZPAX@hadesmem@@6B@ 100ad640     main.cpp.obj
 0002:00003694       ??_7?$PatchDetour@P6IXI@ZPAX@hadesmem@@6B@ 100ad694     main.cpp.obj
 0002:000036e8       ??_7?$PatchDetour@P6IXEH@ZPAX@hadesmem@@6B@ 100ad6e8     main.cpp.obj
 0002:0000373c       ??_7?$PatchDetour@P6IX_K@ZPAX@hadesmem@@6B@ 100ad73c     main.cpp.obj
 0002:00003790       ??_7?$PatchDetour@P6IXPAIPAXHE@ZPAX@hadesmem@@6B@ 100ad790     main.cpp.obj
 0002:000037e4       ??_7?$PatchDetour@P6IXPAIPAXII@ZPAX@hadesmem@@6B@ 100ad7e4     main.cpp.obj
 0002:00003838       ??_7?$PatchDetour@P6IXIHH@ZPAX@hadesmem@@6B@ 100ad838     main.cpp.obj
 0002:0000388c       ??_7?$PatchDetour@P6IXPAX0PAVCDataStore@Nampower@@@ZPAX@hadesmem@@6B@ 100ad88c     main.cpp.obj
 0002:000038e0       ??_7?$PatchDetour@P6IHIIIPAVCDataStore@Nampower@@@ZPAX@hadesmem@@6B@ 100ad8e0     main.cpp.obj
 0002:00003934       ??_7?$PatchDetour@P6IXPA_K0I@ZPAX@hadesmem@@6B@ 100ad934     main.cpp.obj
 0002:00003988       ??_7?$PatchDetour@P6GHPAIPAVCDataStore@Nampower@@@ZPAX@hadesmem@@6B@ 100ad988     main.cpp.obj
 0002:000039dc       ??_7?$PatchDetour@P6I_NPAI0IM@ZPAX@hadesmem@@6B@ 100ad9dc     main.cpp.obj
 0002:00003a30       ??_7?$PatchDetour@P6IXPAXHH@ZPAX@hadesmem@@6B@ 100ada30     main.cpp.obj
 0002:00003a84       ??_7?$PatchDetour@P6IIPAUCTerrainClickEvent@game@@@ZPAX@hadesmem@@6B@ 100ada84     main.cpp.obj
 0002:00003ad8       ??_7?$PatchDetour@P6IH_K@ZPAX@hadesmem@@6B@ 100adad8     main.cpp.obj
 0002:00003b2c       ??_7?$PatchDetour@P6IIPAI@ZPAX@hadesmem@@6B@ 100adb2c     main.cpp.obj
 0002:00003b80       ??_7?$PatchDetour@P6IXPA_K0IPAVCDataStore@Nampower@@@ZPAX@hadesmem@@6B@ 100adb80     main.cpp.obj
 0002:00003bd4       ??_7?$PatchDetour@P6IPAHPAI@ZPAX@hadesmem@@6B@ 100adbd4     main.cpp.obj
 0002:00003c28       ??_7?$PatchDetour@P6IXIW4SpellCastResult@game@@HH_N@ZPAX@hadesmem@@6B@ 100adc28     main.cpp.obj
 0002:00003c7c       ??_7?$PatchDetour@P6IX_N0W4SpellCastResult@game@@@ZPAX@hadesmem@@6B@ 100adc7c     main.cpp.obj
 0002:00003cd0       ??_7?$PatchDetour@P6IXPAUSpellCast@game@@D@ZPAX@hadesmem@@6B@ 100adcd0     main.cpp.obj
 0002:00003d24       ??_7?$PatchDetour@P6I_NPAIIPAUCGItem_C@game@@_K@ZPAX@hadesmem@@6B@ 100add24     main.cpp.obj
 0002:00003d78       ??_7?$PatchDetour@P6IXIH_K@ZPAX@hadesmem@@6B@ 100add78     main.cpp.obj
 0002:00003dcc       ??_7?$PatchDetour@P6IXPAX0I@ZPAX@hadesmem@@6B@ 100addcc     main.cpp.obj
 0002:00003e20       ??_7?$PatchDetour@P6IXHI@ZPAX@hadesmem@@6B@ 100ade20     main.cpp.obj
 0002:00003e74       ??_7?$PatchDetour@P6GXXZPAX@hadesmem@@6B@ 100ade74     main.cpp.obj
 0002:00003ec8       ??_C@_0FJ@CKOLAMMN@hadesmem?3?3detail?3?3SmartHandleIm@ 100adec8     main.cpp.obj
 0002:00003f28       ??_C@_0FL@DOKMKPPP@hadesmem?3?3detail?3?3SmartHandleIm@ 100adf28     main.cpp.obj
 0002:00003f88       ??_C@_0ED@JCILNKDP@hadesmem?3?3PatchDetour?$DMvoid?5?$CI__s@ 100adf88     main.cpp.obj
 0002:00003fd0       ??_C@_0EC@NBLPENOM@hadesmem?3?3PatchDetour?$DMvoid?5?$CI__s@ 100adfd0     main.cpp.obj
 0002:00004018       ??_C@_0EE@IONPJLFD@hadesmem?3?3PatchDetour?$DMvoid?5?$CI__s@ 100ae018     main.cpp.obj
 0002:00004060       ??_C@_0EH@GCGPEKIN@hadesmem?3?3PatchDetour?$DMvoid?5?$CI__s@ 100ae060     main.cpp.obj
 0002:000040a8       ??_C@_0DN@HCDNLHCD@hadesmem?3?3PatchDetour?$DMvoid?5?$CI__s@ 100ae0a8     main.cpp.obj
 0002:000040e8       ??_C@_0FA@GGFAPFCJ@hadesmem?3?3PatchDetour?$DMvoid?5?$CI__f@ 100ae0e8     main.cpp.obj
 0002:00004138       ??_C@_0EP@NOCFAKPK@hadesmem?3?3PatchDetour?$DMvoid?5?$CI__f@ 100ae138     main.cpp.obj
 0002:00004188       ??_C@_0FB@HKPPPFCN@hadesmem?3?3PatchDetour?$DMvoid?5?$CI__f@ 100ae188     main.cpp.obj
 0002:000041e0       ??_C@_0FE@PMBAGJMC@hadesmem?3?3PatchDetour?$DMvoid?5?$CI__f@ 100ae1e0     main.cpp.obj
 0002:00004238       ??_C@_0EK@IODNOJBC@hadesmem?3?3PatchDetour?$DMvoid?5?$CI__f@ 100ae238     main.cpp.obj
 0002:00004288       ??_C@_0FK@DHPECJNJ@hadesmem?3?3PatchDetour?$DMvoid?5?$CI__f@ 100ae288     main.cpp.obj
 0002:000042e8       ??_C@_0FJ@KEPJMAML@hadesmem?3?3PatchDetour?$DMvoid?5?$CI__f@ 100ae2e8     main.cpp.obj
 0002:00004348       ??_C@_0FL@MHBDKDON@hadesmem?3?3PatchDetour?$DMvoid?5?$CI__f@ 100ae348     main.cpp.obj
 0002:000043a8       ??_C@_0FO@CIOCKLLO@hadesmem?3?3PatchDetour?$DMvoid?5?$CI__f@ 100ae3a8     main.cpp.obj
 0002:00004408       ??_C@_0FE@OCCPBJAI@hadesmem?3?3PatchDetour?$DMvoid?5?$CI__f@ 100ae408     main.cpp.obj
 0002:00004460       ??_C@_0GB@CMIPBGLM@hadesmem?3?3PatchDetour?$DMvoid?5?$CI__f@ 100ae460     main.cpp.obj
 0002:000044c8       ??_C@_0GA@NOGDNOJO@hadesmem?3?3PatchDetour?$DMvoid?5?$CI__f@ 100ae4c8     main.cpp.obj
 0002:00004528       ??_C@_0GC@PKNAENAF@hadesmem?3?3PatchDetour?$DMvoid?5?$CI__f@ 100ae528     main.cpp.obj
 0002:00004590       ??_C@_0GF@ENIDGHPD@hadesmem?3?3PatchDetour?$DMvoid?5?$CI__f@ 100ae590     main.cpp.obj
 0002:000045f8       ??_C@_0FL@MEMFFBCH@hadesmem?3?3PatchDetour?$DMvoid?5?$CI__f@ 100ae5f8     main.cpp.obj
 0002:00004658       ??_C@_0IE@MPIDPNEO@hadesmem?3?3PatchDetour?$DMbool?5?$CI__f@ 100ae658     main.cpp.obj
 0002:000046e0       ??_C@_0ID@LBIDDOBG@hadesmem?3?3PatchDetour?$DMbool?5?$CI__f@ 100ae6e0     main.cpp.obj
 0002:00004768       ??_C@_0IF@KJIANCNO@hadesmem?3?3PatchDetour?$DMbool?5?$CI__f@ 100ae768     main.cpp.obj
 0002:000047f0       ??_C@_0II@FBONHKFA@hadesmem?3?3PatchDetour?$DMbool?5?$CI__f@ 100ae7f0     main.cpp.obj
 0002:00004878       ??_C@_0HO@FGBNGFMK@hadesmem?3?3PatchDetour?$DMbool?5?$CI__f@ 100ae878     main.cpp.obj
 0002:000048f8       ??_C@_0FN@COKBPBGB@hadesmem?3?3PatchDetour?$DMvoid?5?$CI__f@ 100ae8f8     main.cpp.obj
 0002:00004958       ??_C@_0FM@JNBHAJFN@hadesmem?3?3PatchDetour?$DMvoid?5?$CI__f@ 100ae958     main.cpp.obj
